; ModuleID = 'ir/22_1.ll'
source_filename = "/home/users/francesco.santambrogio/Downloads/Hpps24-fpga2aie/aie/Work/aie/22_1/src/22_1.cc"
target datalayout = "e-i8:8:8-i16:16:16-i32:32:32-i64:32:32-f32:32:32-f64:32:32-p:32:32:32:32:8-s0:256:256-a0:8:8-S256-n32:64-P1-p0:20:32:32:32:8-p1:20:32:32:32:8-p2:20:32:32:32:8-p3:20:32:32:32:8-p4:20:32:32:32:8-p5:20:32:32:32:8-p6:20:32:32:32:8-p7:20:32:32:32:8-p8:20:32:32:32:8-p9:1:32:32:32:32-p10:1:32:32:32:32-p11:1:32:32:32:32-p12:1:32:32:32:32-p13:1:32:32:32:32-p14:1:32:32:32:32-p15:1:32:32:32:32-p16:1:32:32:32:32-p17:1:32:32:32:32-p18:1:32:32:32:32-p19:1:32:32:32:32-p20:1:32:32:32:32-p21:1:32:32:32:32-p22:1:32:32:32:32-p23:1:32:32:32:32-p24:1:32:32:32:32"
target triple = "pdarch-unknown-unknown-elf"

%"class.aie::detail::vector" = type { %struct.v8float }
%struct.v8float = type { %struct.ipd.custom_type.v32int8.v32int8 }
%struct.ipd.custom_type.v32int8.v32int8 = type { i256 }
%class.anon = type { i8 }
%"struct.aie::detail::utils::unroll_context" = type { i8 }
%struct.input_stream.0 = type { %union.anon.1 }
%union.anon.1 = type { i32 }
%struct.input_stream.2 = type { %union.anon.3 }
%union.anon.3 = type { i32 }
%struct.output_stream.4 = type { %union.anon.5 }
%union.anon.5 = type { i32 }
%struct.ipd.custom_type.uint2_t.uint2_t.6 = type { i8 }
%"class.aie::detail::vector.16" = type { %struct.v16float }
%struct.v16float = type { %struct.ipd.custom_type.v64int8.v64int8 }
%struct.ipd.custom_type.v64int8.v64int8 = type { i512 }
%"class.aie::detail::vector_elem_const_ref.20" = type { %"class.aie::detail::vector.16"*, i32 }
%"class.aie::detail::vector.10" = type { %struct.v8cint32 }
%struct.v8cint32 = type { %struct.ipd.custom_type.v64int8.v64int8 }
%struct.v4cint32 = type { %struct.ipd.custom_type.v32int8.v32int8 }
%"class.aie::detail::vector.3" = type { %struct.v8int32 }
%struct.v8int32 = type { %struct.ipd.custom_type.v32int8.v32int8 }
%"class.aie::detail::vector.15" = type { %struct.v4float }
%struct.v4float = type { %struct.ipd.custom_type.v16int8.v16int8 }
%struct.ipd.custom_type.v16int8.v16int8 = type { i128 }
%"class.aie::detail::vector.19" = type { %struct.v4cint32 }
%struct.v2cint32 = type { %struct.ipd.custom_type.v16int8.v16int8 }
%struct.v8int16 = type { %struct.ipd.custom_type.v16int8.v16int8 }
%struct.v4int32 = type { %struct.ipd.custom_type.v16int8.v16int8 }
%struct.ipd.custom_type.uint1_t.uint1_t = type { i8 }
%"class.aie::detail::vector_elem_const_ref.11" = type { %"class.aie::detail::vector.3"*, i32 }
%"class.aie::detail::vector_elem_ref" = type { %"class.aie::detail::vector.3"*, i32 }
%"class.aie::detail::vector.7" = type { %struct.v16int32 }
%struct.v16int32 = type { %struct.ipd.custom_type.v64int8.v64int8 }
%"class.aie::detail::vector_elem_const_ref" = type { %"class.aie::detail::vector.7"*, i32 }
%class.anon.6 = type { %class.anon*, %class.anon*, %"class.aie::detail::vector.3"*, i32*, i32*, i32*, %"class.aie::detail::vector.3"* }
%struct.ipd.custom_type.v8acc48.v8acc48 = type { i384 }
%struct.ipd.custom_type.uint3_t.uint3_t = type { i8 }
%"struct.me_primitive::chessout_v8int32_lsrs_v8acc48___uchar_uint1_t_uint1_t_uint1_t_uint3_t_uint1_t" = type <{ %struct.v8int32, %struct.ipd.custom_type.uint1_t.uint1_t }>
%"struct.me_primitive::chessout_v8acc48_ups_w2a_sw_v8int32___uchar_uint1_t_uint2_t_uint1_t_uint1_t" = type <{ %struct.ipd.custom_type.v8acc48.v8acc48, %struct.ipd.custom_type.uint1_t.uint1_t }>
%"class.aie::detail::vector.12" = type { %struct.v8int16 }
%"struct.me_primitive::chessout_v4int32_stream_read128___PWSS_rsrc1__sint_uint1_t___sint" = type <{ %struct.v4int32, i32 }>
%"struct.me_primitive::chessout_v4int32_stream_read128___PWSS_rsrc2__sint_uint1_t___sint" = type <{ %struct.v4int32, i32 }>
%"struct.me_primitive::chessout_v4int32_stream_read128___PWSSMEM__sint_uint1_t___sint" = type <{ %struct.v4int32, i32 }>
%"class.aie::detail::vector.21" = type { %struct.v4int32 }
%"struct.me_primitive::chessout___sint_stream_read___PSS_rsrc1__sint_uint1_t___sint" = type { i32, i32 }
%"struct.me_primitive::chessout___sint_stream_read___PSS_rsrc2__sint_uint1_t___sint" = type { i32, i32 }
%"struct.me_primitive::chessout___sint_stream_read___PSSMEM__sint_uint1_t___sint" = type { i32, i32 }
%struct.output_stream.17 = type { %union.anon.1 }

$_ZN12input_streamIiEC2Ej = comdat any

$_ZN12input_streamIfEC2Ej = comdat any

$_ZN13output_streamIfEC2Ej = comdat any

$_Z4donev = comdat any

$_ZN12me_primitive5eventE7uint2_t = comdat any

$_ZN7uint2_tC2Ei = comdat any

$_ZN3aie9broadcastIfLj8EEENS_6detail6vectorINS_17operand_base_typeINS1_5utils10remove_allIT_E4typeEE4typeEXT0_EEES6_ = comdat any

$_ZN3aie6detail14broadcast_bitsILj32EfLj8EE3runERKf = comdat any

$_ZN3aie6detail19broadcast_bits_implILj32EfLj8EE3runERKf = comdat any

$_ZN3aie6detail6vectorIfLj8EEC2Ev = comdat any

$_ZN3aie6detail19broadcast_bits_implILj32EfLj16EE3runERKf = comdat any

$_ZNK3aie6detail6vectorIfLj16EE7extractILj8EEENS1_IfXT_EEEj = comdat any

$_Z5ext_w8v16floati = comdat any

$_ZNK3aie6detail6vectorIfLj16EE7cast_toI6cint32EEDav = comdat any

$_ZNK3aie6detail6vectorI6cint32Lj8EEcv8v8cint32Ev = comdat any

$_Z8shuffle88v8cint32ij = comdat any

$_ZN3aie6detail6vectorI6cint32Lj8EEC2E8v8cint32 = comdat any

$_Z5ext_w8v8cint32i = comdat any

$_ZN3aie6detail6vectorIfLj8EEC2E7v8float = comdat any

$_Z10as_v8float8v4cint32 = comdat any

$_ZN7v8floatC2E17chessllvmInternal7v32int8 = comdat any

$_ZNK3aie6detail6vectorI6cint32Lj8EE9to_nativeEv = comdat any

$_ZN3aie6detail6vectorI6cint32Lj8EEC2Ev = comdat any

$_Z11as_v8cint328v16float = comdat any

$_ZN8v8cint32C2E17chessllvmInternal7v64int8 = comdat any

$_ZN3aie6detail14vector_storageI6cint32Lj8EE5undefEv = comdat any

$_Z14undef_v8cint32v = comdat any

$_ZN3aie6detail6vectorIfLj16EEC2Ev = comdat any

$_ZN3aie6detail6vectorIfLj16EEC2IJEEEfDpOT_ = comdat any

$_ZNK3aie6detail6vectorIfLj16EEixEj = comdat any

$_ZN3aie6detail19broadcast_bits_implILj32EfLj16EE3runILj16EEENS0_6vectorIfLj16EEENS0_21vector_elem_const_refIfXT_EEE = comdat any

$_ZNK3aie6detail6vectorIfLj16EE4growILj16EEENS1_IfXT_EEEj = comdat any

$_ZNK3aie6detail6vectorIfLj16EEcv8v16floatEv = comdat any

$_Z11fpshuffle168v16floatijj = comdat any

$_ZN3aie6detail6vectorIfLj16EEC2E8v16float = comdat any

$_ZNK3aie6detail6vectorIfLj16EE7extractILj16EEENS1_IfXT_EEEj = comdat any

$_ZNK3aie6detail6vectorIfLj16EE9to_nativeEv = comdat any

$_ZNK3aie6detail6vectorIfLj16EE14elem_const_refEj = comdat any

$_ZN3aie6detail21vector_elem_const_refIfLj16EEC2ERKNS0_6vectorIfLj16EEEj = comdat any

$_ZN3aie6detail14vector_storageIfLj16EE5undefEv = comdat any

$_ZN3aie6detail6vectorIfLj16EE23init_from_values_simpleI8v16floatJEfEEvRT_RKfDpOT0_ = comdat any

$_Z9shft_elem8v16floatf = comdat any

$_Z14undef_v16floatv = comdat any

$_ZN3aie6detail14vector_storageIfLj8EE5undefEv = comdat any

$_Z13undef_v8floatv = comdat any

$_Z5log2vN3aie6detail6vectorIfLj8EEE = comdat any

$_ZNK3aie6detail6vectorIfLj8EE7extractILj4EEENS1_IfXT_EEEj = comdat any

$_ZNK3aie6detail6vectorIfLj4EEcv7v4floatEv = comdat any

$_Z10as_v8int167v4float = comdat any

$_Z7put_wmsi7v8int16i = comdat any

$_Z10as_v4int327v8int16 = comdat any

$_Z7put_wmsi7v4int32i = comdat any

$_ZN7uint1_tC2Ei = comdat any

$_ZN12me_primitive15stream_write128EPU4AS23U16__protect_accessi7v4int327uint1_tS3_ = comdat any

$_ZN12me_primitive15stream_write128EPU4AS24U16__protect_accessi7v4int327uint1_tS3_ = comdat any

$_ZN12me_primitive15stream_write128EPU4AS12U16__protect_accessi7v4int327uint1_tS3_ = comdat any

$_ZN7v4int32C2E17chessllvmInternal7v16int8 = comdat any

$_ZN7v8int16C2E17chessllvmInternal7v16int8 = comdat any

$_ZNK3aie6detail6vectorIfLj4EE9to_nativeEv = comdat any

$_ZN3aie6detail6vectorIfLj4EEC2Ev = comdat any

$_Z5ext_v7v8floati = comdat any

$_ZNK3aie6detail6vectorIfLj8EE7cast_toI6cint32EEDav = comdat any

$_ZNK3aie6detail6vectorI6cint32Lj4EE4growILj8EEENS1_IS2_XT_EEEj = comdat any

$_Z5ext_v8v8cint32i = comdat any

$_ZN3aie6detail6vectorIfLj4EEC2E7v4float = comdat any

$_Z10as_v4float8v2cint32 = comdat any

$_ZN7v4floatC2E17chessllvmInternal7v16int8 = comdat any

$_Z6xset_wi8v4cint32 = comdat any

$_ZN3aie6detail6vectorI6cint32Lj4EEC2Ev = comdat any

$_Z11as_v4cint327v8float = comdat any

$_ZN8v4cint32C2E17chessllvmInternal7v32int8 = comdat any

$_ZN3aie6detail14vector_storageI6cint32Lj4EE5undefEv = comdat any

$_Z14undef_v4cint32v = comdat any

$_ZN3aie6detail14vector_storageIfLj4EE5undefEv = comdat any

$_Z13undef_v4floatv = comdat any

$_ZNK3aie6detail6vectorIfLj8EEcv7v8floatEv = comdat any

$_Z10as_v8int327v8float = comdat any

$_ZN3aie6detail6vectorIiLj8EEC2E7v8int32 = comdat any

$_ZN3aie9downshiftINS_6detail6vectorIiLj8EEEEEN22aie_dm_resource_removeIT_E4typeERKS5_j = comdat any

$_ZN3aie3subINS_6detail6vectorIiLj8EEEiEEN22aie_dm_resource_removeIT_E4typeERKS5_T0_ = comdat any

$_ZN3aie8to_floatIiLj8EEEDaRKNS_6detail6vectorIT_XT0_EEEi = comdat any

$_ZN3aie7bit_andIiNS_6detail6vectorIiLj8EEEEEN22aie_dm_resource_removeIT0_E4typeET_RKS5_ = comdat any

$_ZN3aie6bit_orIiNS_6detail6vectorIiLj8EEEEEN22aie_dm_resource_removeIT0_E4typeET_RKS5_ = comdat any

$_ZNK3aie6detail6vectorIiLj8EEcv7v8int32Ev = comdat any

$_Z10as_v8float7v8int32 = comdat any

$_Z5fpmac7v8floatS_S_ = comdat any

$_Z5fpadd7v8floatS_ = comdat any

$_ZNK3aie6detail6vectorIiLj8EE9to_nativeEv = comdat any

$_ZN3aie6detail8bit_bitsILj32EiLj8ELNS0_5BitOpE2EE3runERKiRKNS0_6vectorIiLj8EEE = comdat any

$_ZN3aie6detail13bit_bits_implILj32EiLj8ELNS0_5BitOpE2EE3runEiRKNS0_6vectorIiLj8EEE = comdat any

$_ZN3aie6detail6vectorIiLj8EEC2Ev = comdat any

$_ZNK3aie6detail6vectorIiLj8EEixEj = comdat any

$_ZN3aie6detailorIiNS0_21vector_elem_const_refIiLj8EEEEEDaT_T0_ = comdat any

$_ZN3aie6detail6vectorIiLj8EEixEj = comdat any

$_ZN3aie6detail15vector_elem_refIiLj8EEaSERKi = comdat any

$_ZN3aie6detail6vectorIiLj8EE3setEij = comdat any

$_Z8upd_elem7v8int32ji = comdat any

$_ZN3aie6detail6vectorIiLj8EE8elem_refEj = comdat any

$_ZN3aie6detail15vector_elem_refIiLj8EEC2ERNS0_6vectorIiLj8EEEj = comdat any

$_ZNK3aie6detail21vector_elem_const_refIiLj8EE3getEv = comdat any

$_ZNK3aie6detail6vectorIiLj8EE3getEj = comdat any

$_Z8ext_elem7v8int32j = comdat any

$_ZNK3aie6detail6vectorIiLj8EE14elem_const_refEj = comdat any

$_ZN3aie6detail21vector_elem_const_refIiLj8EEC2ERKNS0_6vectorIiLj8EEEj = comdat any

$_ZN3aie6detail14vector_storageIiLj8EE5undefEv = comdat any

$_Z13undef_v8int32v = comdat any

$_ZN3aie6detail8bit_bitsILj32EiLj8ELNS0_5BitOpE0EE3runERKiRKNS0_6vectorIiLj8EEE = comdat any

$_ZN3aie6detail13bit_bits_implILj32EiLj8ELNS0_5BitOpE0EE3runEiRKNS0_6vectorIiLj8EEE = comdat any

$_ZN3aie6detailanIiNS0_21vector_elem_const_refIiLj8EEEEEDaT_T0_ = comdat any

$_ZN3aie6detail22elementary_vector_bitsILNS0_12ElementaryOpE7ELj32EfiLj8EE3runERKNS0_6vectorIiLj8EEEi = comdat any

$_ZN3aie6detail27elementary_vector_bits_implILNS0_12ElementaryOpE7ELj32EfiLj8EE3runERKNS0_6vectorIiLj8EEEi = comdat any

$_ZNK3aie6detail6vectorIiLj8EE12grow_extractILj8EEENS1_IiXT_EEEj = comdat any

$_Z9fix2float7v8int32i = comdat any

$_ZN3aie6detail6vectorIfLj8EE6insertILj8EEERS2_jRKNS1_IfXT_EEE = comdat any

$_ZNK3aie6detail6vectorIiLj8EE7extractILj8EEENS1_IiXT_EEEj = comdat any

$_ZN3aie6detail12add_sub_bitsILj32EiLj8ELNS0_15AddSubOperationE1EE3runERKNS0_6vectorIiLj8EEERKi = comdat any

$_ZN3aie6detail17add_sub_bits_implILj32EiLj8ELNS0_15AddSubOperationE1EE3runERKNS0_6vectorIiLj8EEERKi = comdat any

$_ZN3aie6detail6vectorIiLj16EEC2IJEEEiDpOT_ = comdat any

$_ZNK3aie6detail6vectorIiLj16EE14elem_const_refEj = comdat any

$_ZN3aie6detail17add_sub_bits_implILj32EiLj8ELNS0_15AddSubOperationE1EE3runILj16EEENS0_6vectorIiLj8EEERKS6_NS0_21vector_elem_const_refIiXT_EEE = comdat any

$_ZN3aie6detail6vectorIiLj16EEC2Ev = comdat any

$_ZN3aie6detail5utils14is_same_objectINS0_6vectorIiLj16EEENS3_IiLj8EEEEEbRKT_RKT0_ = comdat any

$_ZNK3aie6detail6vectorIiLj8EE4growILj16EEENS1_IiXT_EEEj = comdat any

$_ZZN3aie6detail17add_sub_bits_implILj32EiLj8ELNS0_15AddSubOperationE1EE6get_opEvENKUlDpOT_E_clIJNS0_6vectorIiLj16EEEiijRjiiEEEDaS6_ = comdat any

$_ZN3aie6detail6vectorIiLj16EEC2E8v16int32 = comdat any

$_ZNK3aie6detail6vectorIiLj16EE4growILj16EEENS1_IiXT_EEEj = comdat any

$_ZZN3aie6detail17add_sub_bits_implILj32EiLj8ELNS0_15AddSubOperationE1EE6get_opEvENKUlDpOT_E_clIJNS0_6vectorIiLj16EEEiijSA_RjiiEEEDaS6_ = comdat any

$_ZNK3aie6detail6vectorIiLj16EE7extractILj8EEENS1_IiXT_EEEj = comdat any

$_Z5ext_w8v16int32i = comdat any

$_ZNK3aie6detail6vectorIiLj16EE7cast_toI6cint32EEDav = comdat any

$_Z10as_v8int328v4cint32 = comdat any

$_ZN7v8int32C2E17chessllvmInternal7v32int8 = comdat any

$_Z11as_v8cint328v16int32 = comdat any

$_ZNK3aie6detail6vectorIiLj16EEcv8v16int32Ev = comdat any

$_Z5sub168v16int32ijjS_ijj = comdat any

$_ZNK3aie6detail6vectorIiLj16EE9to_nativeEv = comdat any

$_Z5sub168v16int32ijjijj = comdat any

$_Z6xset_wi7v8int32 = comdat any

$_ZN3aie6detail14vector_storageIiLj16EE5undefEv = comdat any

$_Z14undef_v16int32v = comdat any

$_ZN3aie6detail21vector_elem_const_refIiLj16EEC2ERKNS0_6vectorIiLj16EEEj = comdat any

$_ZN3aie6detail6vectorIiLj16EE23init_from_values_simpleI8v16int32JEiEEvRT_RKiDpOT0_ = comdat any

$_Z9shft_elem8v16int32i = comdat any

$_ZN3aie6detail10shift_bitsIiLj32ELj8EE3runERKNS0_6vectorIiLj8EEEjj = comdat any

$_ZN3aie6detail15shift_bits_implIiLj32ELj8EE3runERKNS0_6vectorIiLj8EEEjj = comdat any

$_ZN3aie6detail5utils12unroll_timesILj1EZNS0_15shift_bits_implIiLj32ELj8EE3runERKNS0_6vectorIiLj8EEEjjEUlT_E_EEvOT0_ = comdat any

$_ZNSt3__27forwardIZN3aie6detail15shift_bits_implIiLj32ELj8EE3runERKNS2_6vectorIiLj8EEEjjEUlT_E_EEOS9_RNS_16remove_referenceIS9_E4typeE = comdat any

$_ZN3aie6detail5utils10unroll_forIjLj0ELj1ELj1EZNS0_15shift_bits_implIiLj32ELj8EE3runERKNS0_6vectorIiLj8EEEjjEUlT_E_EEvOT3_ = comdat any

$_ZN3aie6detail5utils17unroll_for_helperIjLj0ELj1ELj0ELj1EE7executeIZNS0_15shift_bits_implIiLj32ELj8EE3runERKNS0_6vectorIiLj8EEEjjEUlT_E_EEvOSB_ = comdat any

$_ZZN3aie6detail15shift_bits_implIiLj32ELj8EE3runERKNS0_6vectorIiLj8EEEjjENKUlT_E_clINS0_5utils14unroll_contextIjLj0ELj1ELj0EEEEEDaS7_ = comdat any

$_ZN3aie6detail5utils17unroll_for_helperIjLj0ELj1ELj1ELj1EE7executeIZNS0_15shift_bits_implIiLj32ELj8EE3runERKNS0_6vectorIiLj8EEEjjEUlT_E_EEvOSB_ = comdat any

$_ZNK3aie6detail5utils14unroll_contextIjLj0ELj1ELj0EEcvjEv = comdat any

$_ZN3aie6detail6vectorIiLj8EE6insertILj8EEERS2_jNS1_IiXT_EE11native_typeE = comdat any

$_ZN3aie6detail6vectorIiLj8EE6insertILj8EEERS2_jRKNS1_IiXT_EEE = comdat any

$_Z4lsrs7v8acc48i = comdat any

$_ZN12me_primitive8shft_nrmEi = comdat any

$_Z12get_sat_implv = comdat any

$_Z16get_sym_sat_implv = comdat any

$_Z12get_rnd_implv = comdat any

$_ZN12me_primitive4lsrsI7uint1_tEEN13chessEnableIfIXsr17chessIsCompatibleIN15chessRemoveQualIT_E4typeES1_EE5valueE7v8int32E4typeE7v8acc48hS1_S1_S1_7uint3_tRS4_ = comdat any

$_Z16set_srs_sat_impl7uint1_t = comdat any

$_Z20chess_dont_warn_deadI7uint1_tERKT_S3_ = comdat any

$_Z3ups7v8int32i = comdat any

$_ZN12me_primitive10ups_w2a_swI7uint1_tEEN13chessEnableIfIXsr17chessIsCompatibleIN15chessRemoveQualIT_E4typeES1_EE5valueE7v8acc48E4typeE7v8int32hS1_7uint2_tS1_RS4_ = comdat any

$_Z16set_ups_sat_impl7uint1_t = comdat any

$_ZNK3aie6detail5utils14unroll_contextIjLj0ELj1ELj0EE7currentEv = comdat any

$_ZNK3aie6detail6vectorIfLj8EE9to_nativeEv = comdat any

$_ZN3aie6detail6vectorIsLj8EEC2E7v8int16 = comdat any

$_ZN3aie11vector_castIfNS_6detail6vectorIsLj8EEEEEDaRKT0_ = comdat any

$_ZN3aie6detail6vectorIfLj8EE6insertILj4EEERS2_jRKNS1_IfXT_EEE = comdat any

$_Z5upd_v7v8floati7v4float = comdat any

$_ZNK3aie6detail6vectorIfLj4EE4growILj16EEENS1_IfXT_EEEj = comdat any

$_ZNK3aie6detail6vectorIfLj8EE4growILj16EEENS1_IfXT_EEEj = comdat any

$_Z7select8j8v8cint32ijS_ij = comdat any

$_Z6xset_wi7v8float = comdat any

$_Z6xset_vi7v4float = comdat any

$_ZN3aie6detail11vector_castIfsLj8EEEDaRKNS0_6vectorIT0_XT1_EEE = comdat any

$_ZNK3aie6detail6vectorIsLj8EE7cast_toIfEEDav = comdat any

$_Z10as_v4float7v8int16 = comdat any

$_Z7get_wssi = comdat any

$_Z8getl_wssi = comdat any

$_Z10as_v8int167v4int32 = comdat any

$_ZN12me_primitive14stream_read128IiEEN13chessEnableIfIXsr17chessIsCompatibleIN15chessRemoveQualIT_E4typeEiEE5valueE7v4int32E4typeEPU4AS19U16__protect_accessi7uint1_tRS3_ = comdat any

$_ZN12me_primitive14stream_read128IiEEN13chessEnableIfIXsr17chessIsCompatibleIN15chessRemoveQualIT_E4typeEiEE5valueE7v4int32E4typeEPU4AS20U16__protect_accessi7uint1_tRS3_ = comdat any

$_ZN12me_primitive14stream_read128IiEEN13chessEnableIfIXsr17chessIsCompatibleIN15chessRemoveQualIT_E4typeEiEE5valueE7v4int32E4typeEPU4AS11U16__protect_accessi7uint1_tRS3_ = comdat any

$_ZN3aie5zerosIfLj8EEENS_6detail6vectorIT_XT0_EEEv = comdat any

$_Z5fpmul7v8floatS_ = comdat any

$_ZN3aie11vector_castIiNS_6detail6vectorIsLj8EEEEEDaRKT0_ = comdat any

$_ZN3aie6detail6vectorIiLj8EE6insertILj4EEERS2_jRKNS1_IiXT_EEE = comdat any

$_ZNK3aie6detail6vectorIiLj4EEcv7v4int32Ev = comdat any

$_Z5upd_v7v8int32i7v4int32 = comdat any

$_ZNK3aie6detail6vectorIiLj4EE4growILj16EEENS1_IiXT_EEEj = comdat any

$_Z6xset_vi7v4int32 = comdat any

$_ZNK3aie6detail6vectorIiLj4EE9to_nativeEv = comdat any

$_ZN3aie6detail11vector_castIisLj8EEEDaRKNS0_6vectorIT0_XT1_EEE = comdat any

$_ZNK3aie6detail6vectorIsLj8EE7cast_toIiEEDav = comdat any

$_ZN3aie6detail6vectorIiLj4EEC2Ev = comdat any

$_ZN3aie6detail14vector_storageIiLj4EE5undefEv = comdat any

$_Z13undef_v4int32v = comdat any

$_Z6get_ssi = comdat any

$_ZN12me_primitive11stream_readIiEEN13chessEnableIfIXsr17chessIsCompatibleIN15chessRemoveQualIT_E4typeEiEE5valueEiE4typeEPU4AS17U16__protect_accessi7uint1_tRS3_ = comdat any

$_ZN12me_primitive11stream_readIiEEN13chessEnableIfIXsr17chessIsCompatibleIN15chessRemoveQualIT_E4typeEiEE5valueEiE4typeEPU4AS18U16__protect_accessi7uint1_tRS3_ = comdat any

$_ZN12me_primitive11stream_readIiEEN13chessEnableIfIXsr17chessIsCompatibleIN15chessRemoveQualIT_E4typeEiEE5valueEiE4typeEPU3AS9U16__protect_accessi7uint1_tRS3_ = comdat any

$_ZN3aie6detail5zerosIfLj8EEENS0_6vectorIT_XT0_EEEv = comdat any

$_ZN3aie6detail11vector_castIfiLj8EEEDaRKNS0_6vectorIT0_XT1_EEE = comdat any

$_ZNK3aie6detail6vectorIiLj8EE7cast_toIfEEDav = comdat any

$_Z5fpneg7v8float = comdat any

@_ZL11sync_buffer = internal global [8 x i32] [i32 0, i32 -1, i32 0, i32 0, i32 0, i32 0, i32 0, i32 0], align 16, !dbg !0
@__chess_separator_idummy = external dso_local global i32, align 4
@llvm.global_ctors = appending global [1 x { i32, void () addrspace(1)*, i8* }] [{ i32, void () addrspace(1)*, i8* } { i32 65535, void () addrspace(1)* @_GLOBAL__sub_I_entropy_vect.cpp, i8* null }]
@_ZL1c = internal global [7 x %"class.aie::detail::vector"] zeroinitializer, align 32, !dbg !512
@_ZN12me_primitive3ms0E = external dso_local addrspace(23) global i32, align 1 #0
@_ZN12me_primitive3ms1E = external dso_local addrspace(24) global i32, align 1 #1
@__const._ZN3aie6detail17add_sub_bits_implILj32EiLj8ELNS0_15AddSubOperationE1EE3runILj16EEENS0_6vectorIiLj8EEERKS6_NS0_21vector_elem_const_refIiXT_EEE.op = private unnamed_addr constant %class.anon undef, align 1
@__const._ZN3aie6detail15shift_bits_implIiLj32ELj8EE3runERKNS0_6vectorIiLj8EEEjj.srs_op = private unnamed_addr constant %class.anon undef, align 1
@__const._ZN3aie6detail15shift_bits_implIiLj32ELj8EE3runERKNS0_6vectorIiLj8EEEjj.ups_op = private unnamed_addr constant %class.anon undef, align 1
@__const._ZN3aie6detail5utils17unroll_for_helperIjLj0ELj1ELj0ELj1EE7executeIZNS0_15shift_bits_implIiLj32ELj8EE3runERKNS0_6vectorIiLj8EEEjjEUlT_E_EEvOSB_.ctx = private unnamed_addr constant %"struct.aie::detail::utils::unroll_context" undef, align 1
@_ZN12me_primitive3ss0E = external dso_local addrspace(19) global i32, align 1 #0
@_ZN12me_primitive5wsst0E = external dso_local addrspace(14) global i32, align 1 #0
@_ZN12me_primitive3ss1E = external dso_local addrspace(20) global i32, align 1 #1
@_ZN12me_primitive5wsst1E = external dso_local addrspace(14) global i32, align 1 #1
@_ZN12me_primitive4sst0E = external dso_local addrspace(13) global i32, align 1 #0
@_ZN12me_primitive4sst1E = external dso_local addrspace(13) global i32, align 1 #1
@ZERO = external dso_local constant [8 x i32], align 32

; Function Attrs: norecurse nounwind
define dso_local i32 @main() addrspace(1) #2 !dbg !1106 {
entry:
  store volatile i32 0, i32* getelementptr inbounds ([8 x i32], [8 x i32]* @_ZL11sync_buffer, i32 0, i32 0), align 4, !dbg !1116, !tbaa !1117, !noalias !1121
  call addrspace(1) void @llvm.dbg.declare(metadata %struct.input_stream.0* undef, metadata !1108, metadata !DIExpression()), !dbg !1126
  call addrspace(1) void @llvm.dbg.declare(metadata %struct.input_stream.2* undef, metadata !1109, metadata !DIExpression()), !dbg !1127
  call addrspace(1) void @llvm.dbg.declare(metadata %struct.output_stream.4* undef, metadata !1110, metadata !DIExpression()), !dbg !1128
  call addrspace(1) void @llvm.dbg.value(metadata i32 undef, metadata !1111, metadata !DIExpression()), !dbg !1129
  call addrspace(1) void @llvm.dbg.value(metadata i32 1, metadata !1111, metadata !DIExpression()), !dbg !1129
  br label %while.cond, !dbg !1130

while.cond:                                       ; preds = %while.end, %entry
  %index.0 = phi i32 [ 1, %entry ], [ %index.1.lcssa, %while.end ], !dbg !1131
  call addrspace(1) void @llvm.dbg.value(metadata i32 %index.0, metadata !1111, metadata !DIExpression()), !dbg !1129
  call addrspace(1) void @llvm.dbg.value(metadata i32 undef, metadata !1114, metadata !DIExpression()), !dbg !1132
  %0 = load volatile i32, i32* getelementptr inbounds ([8 x i32], [8 x i32]* @_ZL11sync_buffer, i32 0, i32 1), align 4, !dbg !1133, !tbaa !1117, !noalias !1121
  call addrspace(1) void @llvm.dbg.value(metadata i32 %0, metadata !1114, metadata !DIExpression()), !dbg !1132
  call addrspace(1) void @llvm.dbg.value(metadata i32 %index.0, metadata !1111, metadata !DIExpression()), !dbg !1129
  %tobool1 = icmp ne i32 %0, 0, !dbg !1134
  br i1 %tobool1, label %while.body2.preheader, label %while.end, !dbg !1135

while.body2.preheader:                            ; preds = %while.cond
  br label %while.body2, !dbg !1135

while.body2:                                      ; preds = %while.body2.preheader, %while.body2
  %index.13 = phi i32 [ %sub, %while.body2 ], [ %index.0, %while.body2.preheader ]
  %proc_22_1_bounds.02 = phi i32 [ %spec.select, %while.body2 ], [ %0, %while.body2.preheader ]
  call addrspace(1) void @llvm.dbg.value(metadata i32 %index.13, metadata !1111, metadata !DIExpression()), !dbg !1129
  call addrspace(1) void @llvm.dbg.value(metadata i32 %proc_22_1_bounds.02, metadata !1114, metadata !DIExpression()), !dbg !1132
  call addrspace(1) void @_Z32entropy_vec_pass_kernel_functionP12input_streamIiEPS_IfEP13output_streamIfE(i32 undef, i32 undef, i32 undef) #26, !dbg !1136, !noalias !1121
  %sub = sub nsw i32 1, %index.13, !dbg !1138
  call addrspace(1) void @llvm.dbg.value(metadata i32 %sub, metadata !1111, metadata !DIExpression()), !dbg !1129
  call addrspace(1) void @llvm.chess_memory_fence(), !dbg !1139, !noalias !1121
  %cmp = icmp sgt i32 %proc_22_1_bounds.02, 0, !dbg !1140
  %dec = add nsw i32 %proc_22_1_bounds.02, -1
  %spec.select = select i1 %cmp, i32 %dec, i32 %proc_22_1_bounds.02, !dbg !1142
  call addrspace(1) void @llvm.dbg.value(metadata i32 %spec.select, metadata !1114, metadata !DIExpression()), !dbg !1132
  %tobool = icmp ne i32 %spec.select, 0, !dbg !1134
  br i1 %tobool, label %while.body2, label %while.end.loopexit, !dbg !1135, !llvm.loop !1143

while.end.loopexit:                               ; preds = %while.body2
  %sub.lcssa = phi i32 [ %sub, %while.body2 ], !dbg !1138
  br label %while.end, !dbg !1146

while.end:                                        ; preds = %while.end.loopexit, %while.cond
  %index.1.lcssa = phi i32 [ %index.0, %while.cond ], [ %sub.lcssa, %while.end.loopexit ], !dbg !1129
  call addrspace(1) void @_Z4donev() #27, !dbg !1146, !noalias !1121
  %1 = load volatile i32, i32* getelementptr inbounds ([8 x i32], [8 x i32]* @_ZL11sync_buffer, i32 0, i32 0), align 4, !dbg !1147, !tbaa !1117, !noalias !1121
  %cmp3 = icmp sgt i32 %1, 0, !dbg !1149
  br i1 %cmp3, label %while.end6, label %while.cond, !llvm.loop !1150

while.end6:                                       ; preds = %while.end
  ret i32 0, !dbg !1152
}

; Function Attrs: argmemonly nofree nosync nounwind willreturn
declare void @llvm.lifetime.start.p0i8(i64 immarg, i8* nocapture) addrspace(1) #3

; Function Attrs: nofree nosync nounwind readnone speculatable willreturn
declare void @llvm.dbg.declare(metadata, metadata, metadata) addrspace(1) #4

; Function Attrs: inaccessiblememonly nounwind willreturn
declare i8* @llvm.noalias.decl.p0i8.p0s_struct.input_stream.0s.i32(%struct.input_stream.0*, i32, metadata) addrspace(1) #5

; Function Attrs: nounwind
define linkonce_odr dso_local void @_ZN12input_streamIiEC2Ej(%struct.input_stream.0* nonnull dereferenceable(4) %this, i32 %ch) unnamed_addr addrspace(1) #6 comdat align 2 !dbg !1153 {
entry:
  call addrspace(1) void @llvm.dbg.value(metadata %struct.input_stream.0* %this, metadata !1155, metadata !DIExpression()), !dbg !1157
  call addrspace(1) void @llvm.dbg.value(metadata i32 %ch, metadata !1156, metadata !DIExpression()), !dbg !1157
  %0 = getelementptr inbounds %struct.input_stream.0, %struct.input_stream.0* %this, i32 0, i32 0, !dbg !1158
  %channel = bitcast %union.anon.1* %0 to i32*, !dbg !1158
  store i32 %ch, i32* %channel, align 4, !dbg !1158, !tbaa !1159
  ret void, !dbg !1158
}

; Function Attrs: inaccessiblememonly nounwind willreturn
declare i8* @llvm.noalias.decl.p0i8.p0s_struct.input_stream.2s.i32(%struct.input_stream.2*, i32, metadata) addrspace(1) #5

; Function Attrs: nounwind
define linkonce_odr dso_local void @_ZN12input_streamIfEC2Ej(%struct.input_stream.2* nonnull dereferenceable(4) %this, i32 %ch) unnamed_addr addrspace(1) #6 comdat align 2 !dbg !1160 {
entry:
  call addrspace(1) void @llvm.dbg.value(metadata %struct.input_stream.2* %this, metadata !1162, metadata !DIExpression()), !dbg !1164
  call addrspace(1) void @llvm.dbg.value(metadata i32 %ch, metadata !1163, metadata !DIExpression()), !dbg !1164
  %0 = getelementptr inbounds %struct.input_stream.2, %struct.input_stream.2* %this, i32 0, i32 0, !dbg !1165
  %channel = bitcast %union.anon.3* %0 to i32*, !dbg !1165
  store i32 %ch, i32* %channel, align 4, !dbg !1165, !tbaa !1159
  ret void, !dbg !1165
}

; Function Attrs: inaccessiblememonly nounwind willreturn
declare i8* @llvm.noalias.decl.p0i8.p0s_struct.output_stream.4s.i32(%struct.output_stream.4*, i32, metadata) addrspace(1) #5

; Function Attrs: nounwind
define linkonce_odr dso_local void @_ZN13output_streamIfEC2Ej(%struct.output_stream.4* nonnull dereferenceable(4) %this, i32 %ch) unnamed_addr addrspace(1) #6 comdat align 2 !dbg !1166 {
entry:
  call addrspace(1) void @llvm.dbg.value(metadata %struct.output_stream.4* %this, metadata !1168, metadata !DIExpression()), !dbg !1170
  call addrspace(1) void @llvm.dbg.value(metadata i32 %ch, metadata !1169, metadata !DIExpression()), !dbg !1170
  %0 = getelementptr inbounds %struct.output_stream.4, %struct.output_stream.4* %this, i32 0, i32 0, !dbg !1171
  %channel = bitcast %union.anon.5* %0 to i32*, !dbg !1171
  store i32 %ch, i32* %channel, align 4, !dbg !1171, !tbaa !1159
  ret void, !dbg !1171
}

; Function Attrs: nounwind willreturn
declare void @llvm.chess_memory_fence() addrspace(1) #7

; Function Attrs: alwaysinline nounwind mustprogress
define linkonce_odr dso_local void @_Z4donev() addrspace(1) #8 comdat {
entry:
  %custom_type.tmp = alloca %struct.ipd.custom_type.uint2_t.uint2_t.6, align 4
  call addrspace(1) void @llvm.chess_memory_fence()
  call addrspace(1) void @_ZL25chess_separator_scheduleri(i32 8) #26
  call addrspace(1) void @_ZN7uint2_tC2Ei(%struct.ipd.custom_type.uint2_t.uint2_t.6* nonnull dereferenceable(1) %custom_type.tmp, i32 2) #26
  %0 = load %struct.ipd.custom_type.uint2_t.uint2_t.6, %struct.ipd.custom_type.uint2_t.uint2_t.6* %custom_type.tmp, align 4, !tbaa !1172
  call addrspace(1) void @_ZN12me_primitive5eventE7uint2_t(%struct.ipd.custom_type.uint2_t.uint2_t.6 %0) #28
  call addrspace(1) void @_ZL25chess_separator_scheduleri(i32 5) #26
  call addrspace(1) void @llvm.chess_memory_fence()
  ret void
}

; Function Attrs: argmemonly nofree nosync nounwind willreturn
declare void @llvm.lifetime.end.p0i8(i64 immarg, i8* nocapture) addrspace(1) #3

; Function Attrs: alwaysinline nounwind mustprogress
define internal void @_ZL25chess_separator_scheduleri(i32 %i) addrspace(1) #9 {
entry:
  store volatile i32 %i, i32* @__chess_separator_idummy, align 4, !tbaa !1174
  ret void
}

; Function Attrs: alwaysinline nounwind mustprogress
define linkonce_odr dso_local void @_ZN12me_primitive5eventE7uint2_t(%struct.ipd.custom_type.uint2_t.uint2_t.6 %a0.coerce) addrspace(1) #10 comdat {
entry:
  call x86_regcallcc addrspace(1) void @__regcall3__chessintr_void_event_uint2_t(%struct.ipd.custom_type.uint2_t.uint2_t.6 %a0.coerce) #29
  ret void
}

; Function Attrs: alwaysinline nounwind
define linkonce_odr dso_local void @_ZN7uint2_tC2Ei(%struct.ipd.custom_type.uint2_t.uint2_t.6* nonnull dereferenceable(1) %this, i32 %a) unnamed_addr addrspace(1) #11 comdat align 2 {
entry:
  %0 = bitcast %struct.ipd.custom_type.uint2_t.uint2_t.6* %this to i8*
  %bf.load = load i8, i8* %0, align 4
  %bf.clear = and i8 %bf.load, -4
  store i8 %bf.clear, i8* %0, align 4
  %1 = call addrspace(1) %struct.ipd.custom_type.uint2_t.uint2_t.6 @llvm.chess.init.customint.s_struct.ipd.custom_type.uint2_t.uint2_t.6s.i32.p1f_s_struct.ipd.custom_type.uint2_t.uint2_t.6si32f(%struct.ipd.custom_type.uint2_t.uint2_t.6 undef, i32 %a, i32 2, i32 32, i1 true, i32 0, %struct.ipd.custom_type.uint2_t.uint2_t.6 (i32) addrspace(1)* @__regcall3__chessintr_uint2_t_uint2_t___sint)
  store %struct.ipd.custom_type.uint2_t.uint2_t.6 %1, %struct.ipd.custom_type.uint2_t.uint2_t.6* %this, align 4
  ret void
}

; Function Attrs: inaccessiblememonly nounwind
declare dso_local x86_regcallcc void @__regcall3__chessintr_void_event_uint2_t(%struct.ipd.custom_type.uint2_t.uint2_t.6) addrspace(1) #12

; Function Attrs: nounwind readnone willreturn
declare dso_local x86_regcallcc %struct.ipd.custom_type.uint2_t.uint2_t.6 @__regcall3__chessintr_uint2_t_uint2_t___sint(i32 signext) addrspace(1) #13

; Function Attrs: nounwind readnone willreturn
declare %struct.ipd.custom_type.uint2_t.uint2_t.6 @llvm.chess.init.customint.s_struct.ipd.custom_type.uint2_t.uint2_t.6s.i32.p1f_s_struct.ipd.custom_type.uint2_t.uint2_t.6si32f(%struct.ipd.custom_type.uint2_t.uint2_t.6, i32, i32, i32, i1, i32, %struct.ipd.custom_type.uint2_t.uint2_t.6 (i32) addrspace(1)*) addrspace(1) #14

; Function Attrs: nounwind
define internal void @_GLOBAL__sub_I_entropy_vect.cpp() addrspace(1) #6 !dbg !1177 {
entry:
  call addrspace(1) void @__cxx_global_var_init(), !dbg !1179
  ret void
}

; Function Attrs: alwaysinline nounwind
define internal void @__cxx_global_var_init() addrspace(1) #11 !dbg !1180 {
entry:
  %call = call addrspace(1) %"class.aie::detail::vector" @_ZN3aie9broadcastIfLj8EEENS_6detail6vectorINS_17operand_base_typeINS1_5utils10remove_allIT_E4typeEE4typeEXT0_EEES6_(float 0xC0083D2420000000) #26, !dbg !1181
  %0 = extractvalue %"class.aie::detail::vector" %call, 0, !dbg !1181
  store %struct.v8float %0, %struct.v8float* getelementptr inbounds ([7 x %"class.aie::detail::vector"], [7 x %"class.aie::detail::vector"]* @_ZL1c, i32 0, i32 0, i32 0), align 32, !dbg !1181
  %call1 = call addrspace(1) %"class.aie::detail::vector" @_ZN3aie9broadcastIfLj8EEENS_6detail6vectorINS_17operand_base_typeINS1_5utils10remove_allIT_E4typeEE4typeEXT0_EEES6_(float 0x4018496E00000000) #26, !dbg !1182
  %1 = extractvalue %"class.aie::detail::vector" %call1, 0, !dbg !1182
  store %struct.v8float %1, %struct.v8float* getelementptr inbounds ([7 x %"class.aie::detail::vector"], [7 x %"class.aie::detail::vector"]* @_ZL1c, i32 0, i32 1, i32 0), align 32, !dbg !1182
  %call2 = call addrspace(1) %"class.aie::detail::vector" @_ZN3aie9broadcastIfLj8EEENS_6detail6vectorINS_17operand_base_typeINS1_5utils10remove_allIT_E4typeEE4typeEXT0_EEES6_(float 0xC01517DEE0000000) #26, !dbg !1183
  %2 = extractvalue %"class.aie::detail::vector" %call2, 0, !dbg !1183
  store %struct.v8float %2, %struct.v8float* getelementptr inbounds ([7 x %"class.aie::detail::vector"], [7 x %"class.aie::detail::vector"]* @_ZL1c, i32 0, i32 2, i32 0), align 32, !dbg !1183
  %call3 = call addrspace(1) %"class.aie::detail::vector" @_ZN3aie9broadcastIfLj8EEENS_6detail6vectorINS_17operand_base_typeINS1_5utils10remove_allIT_E4typeEE4typeEXT0_EEES6_(float 0x4009CF97E0000000) #26, !dbg !1184
  %3 = extractvalue %"class.aie::detail::vector" %call3, 0, !dbg !1184
  store %struct.v8float %3, %struct.v8float* getelementptr inbounds ([7 x %"class.aie::detail::vector"], [7 x %"class.aie::detail::vector"]* @_ZL1c, i32 0, i32 3, i32 0), align 32, !dbg !1184
  %call4 = call addrspace(1) %"class.aie::detail::vector" @_ZN3aie9broadcastIfLj8EEENS_6detail6vectorINS_17operand_base_typeINS1_5utils10remove_allIT_E4typeEE4typeEXT0_EEES6_(float 0xBFF3CD7240000000) #26, !dbg !1185
  %4 = extractvalue %"class.aie::detail::vector" %call4, 0, !dbg !1185
  store %struct.v8float %4, %struct.v8float* getelementptr inbounds ([7 x %"class.aie::detail::vector"], [7 x %"class.aie::detail::vector"]* @_ZL1c, i32 0, i32 4, i32 0), align 32, !dbg !1185
  %call5 = call addrspace(1) %"class.aie::detail::vector" @_ZN3aie9broadcastIfLj8EEENS_6detail6vectorINS_17operand_base_typeINS1_5utils10remove_allIT_E4typeEE4typeEXT0_EEES6_(float 0x3FD12145E0000000) #26, !dbg !1186
  %5 = extractvalue %"class.aie::detail::vector" %call5, 0, !dbg !1186
  store %struct.v8float %5, %struct.v8float* getelementptr inbounds ([7 x %"class.aie::detail::vector"], [7 x %"class.aie::detail::vector"]* @_ZL1c, i32 0, i32 5, i32 0), align 32, !dbg !1186
  %call6 = call addrspace(1) %"class.aie::detail::vector" @_ZN3aie9broadcastIfLj8EEENS_6detail6vectorINS_17operand_base_typeINS1_5utils10remove_allIT_E4typeEE4typeEXT0_EEES6_(float 0xBF997FC680000000) #26, !dbg !1187
  %6 = extractvalue %"class.aie::detail::vector" %call6, 0, !dbg !1187
  store %struct.v8float %6, %struct.v8float* getelementptr inbounds ([7 x %"class.aie::detail::vector"], [7 x %"class.aie::detail::vector"]* @_ZL1c, i32 0, i32 6, i32 0), align 32, !dbg !1187
  %7 = call addrspace(1) {}* @llvm.invariant.start.p0i8(i64 224, i8* bitcast ([7 x %"class.aie::detail::vector"]* @_ZL1c to i8*)), !dbg !1188
  ret void, !dbg !1189
}

; Function Attrs: alwaysinline nounwind mustprogress
define linkonce_odr dso_local %"class.aie::detail::vector" @_ZN3aie9broadcastIfLj8EEENS_6detail6vectorINS_17operand_base_typeINS1_5utils10remove_allIT_E4typeEE4typeEXT0_EEES6_(float %a) addrspace(1) #9 comdat !dbg !1190 {
entry:
  %retval = alloca %"class.aie::detail::vector", align 32
  %a.addr = alloca float, align 4
  store float %a, float* %a.addr, align 4, !tbaa !1198
  call addrspace(1) void @llvm.dbg.declare(metadata float* %a.addr, metadata !1195, metadata !DIExpression()), !dbg !1200
  %call = call addrspace(1) %"class.aie::detail::vector" @_ZN3aie6detail14broadcast_bitsILj32EfLj8EE3runERKf(float* nonnull align 4 dereferenceable(4) %a.addr) #26, !dbg !1201
  %0 = getelementptr inbounds %"class.aie::detail::vector", %"class.aie::detail::vector"* %retval, i32 0, i32 0, !dbg !1201
  %1 = extractvalue %"class.aie::detail::vector" %call, 0, !dbg !1201
  store %struct.v8float %1, %struct.v8float* %0, align 32, !dbg !1201
  %2 = load %"class.aie::detail::vector", %"class.aie::detail::vector"* %retval, align 32, !dbg !1203
  ret %"class.aie::detail::vector" %2, !dbg !1203
}

; Function Attrs: argmemonly nofree nosync nounwind willreturn
declare {}* @llvm.invariant.start.p0i8(i64 immarg, i8* nocapture) addrspace(1) #3

; Function Attrs: alwaysinline nounwind mustprogress
define linkonce_odr dso_local %"class.aie::detail::vector" @_ZN3aie6detail14broadcast_bitsILj32EfLj8EE3runERKf(float* nonnull align 4 dereferenceable(4) %a) addrspace(1) #9 comdat align 2 !dbg !1204 {
entry:
  %retval = alloca %"class.aie::detail::vector", align 32
  call addrspace(1) void @llvm.dbg.value(metadata float* %a, metadata !1217, metadata !DIExpression()), !dbg !1218
  %call = call addrspace(1) %"class.aie::detail::vector" @_ZN3aie6detail19broadcast_bits_implILj32EfLj8EE3runERKf(float* nonnull align 4 dereferenceable(4) %a) #26, !dbg !1219
  %0 = getelementptr inbounds %"class.aie::detail::vector", %"class.aie::detail::vector"* %retval, i32 0, i32 0, !dbg !1219
  %1 = extractvalue %"class.aie::detail::vector" %call, 0, !dbg !1219
  store %struct.v8float %1, %struct.v8float* %0, align 32, !dbg !1219
  %2 = load %"class.aie::detail::vector", %"class.aie::detail::vector"* %retval, align 32, !dbg !1220
  ret %"class.aie::detail::vector" %2, !dbg !1220
}

; Function Attrs: alwaysinline nounwind mustprogress
define linkonce_odr dso_local %"class.aie::detail::vector" @_ZN3aie6detail19broadcast_bits_implILj32EfLj8EE3runERKf(float* nonnull align 4 dereferenceable(4) %a) addrspace(1) #9 comdat align 2 !dbg !1221 {
entry:
  %custom_type.tmp = alloca %"class.aie::detail::vector", align 32
  %tmp = alloca %"class.aie::detail::vector", align 32
  %ref.tmp = alloca %"class.aie::detail::vector.16", align 32
  call addrspace(1) void @llvm.dbg.value(metadata float* %a, metadata !1230, metadata !DIExpression()), !dbg !1233
  call addrspace(1) void @llvm.dbg.value(metadata i32 undef, metadata !1231, metadata !DIExpression()), !dbg !1233
  call addrspace(1) void @llvm.dbg.value(metadata i32 16, metadata !1231, metadata !DIExpression()), !dbg !1233
  call addrspace(1) void @_ZN3aie6detail6vectorIfLj8EEC2Ev(%"class.aie::detail::vector"* nonnull dereferenceable(32) %custom_type.tmp) #26, !dbg !1234
  %0 = load %"class.aie::detail::vector", %"class.aie::detail::vector"* %custom_type.tmp, align 32, !dbg !1234, !tbaa !1235
  call addrspace(1) void @llvm.dbg.value(metadata %"class.aie::detail::vector" %0, metadata !1232, metadata !DIExpression()), !dbg !1233
  %1 = bitcast %"class.aie::detail::vector"* %tmp to i8*, !dbg !1238
  call addrspace(1) void @llvm.lifetime.start.p0i8(i64 32, i8* %1) #24, !dbg !1238
  %2 = bitcast %"class.aie::detail::vector.16"* %ref.tmp to i8*, !dbg !1242
  call addrspace(1) void @llvm.lifetime.start.p0i8(i64 64, i8* %2) #24, !dbg !1242
  %call = call addrspace(1) %"class.aie::detail::vector.16" @_ZN3aie6detail19broadcast_bits_implILj32EfLj16EE3runERKf(float* nonnull align 4 dereferenceable(4) %a) #26, !dbg !1242
  %3 = getelementptr inbounds %"class.aie::detail::vector.16", %"class.aie::detail::vector.16"* %ref.tmp, i32 0, i32 0, !dbg !1242
  %4 = extractvalue %"class.aie::detail::vector.16" %call, 0, !dbg !1242
  store %struct.v16float %4, %struct.v16float* %3, align 32, !dbg !1242
  %call1 = call addrspace(1) %"class.aie::detail::vector" @_ZNK3aie6detail6vectorIfLj16EE7extractILj8EEENS1_IfXT_EEEj(%"class.aie::detail::vector.16"* nonnull dereferenceable(64) %ref.tmp, i32 0) #26, !dbg !1238
  %5 = getelementptr inbounds %"class.aie::detail::vector", %"class.aie::detail::vector"* %tmp, i32 0, i32 0, !dbg !1238
  %6 = extractvalue %"class.aie::detail::vector" %call1, 0, !dbg !1238
  store %struct.v8float %6, %struct.v8float* %5, align 32, !dbg !1238
  %7 = load %"class.aie::detail::vector", %"class.aie::detail::vector"* %tmp, align 32, !dbg !1238, !tbaa !1235
  %8 = bitcast %"class.aie::detail::vector"* %tmp to i8*, !dbg !1238
  call addrspace(1) void @llvm.lifetime.end.p0i8(i64 32, i8* %8) #24, !dbg !1238
  %9 = bitcast %"class.aie::detail::vector.16"* %ref.tmp to i8*, !dbg !1243
  call addrspace(1) void @llvm.lifetime.end.p0i8(i64 64, i8* %9) #24, !dbg !1243
  ret %"class.aie::detail::vector" %7, !dbg !1238
}

; Function Attrs: alwaysinline nounwind
define linkonce_odr dso_local void @_ZN3aie6detail6vectorIfLj8EEC2Ev(%"class.aie::detail::vector"* nonnull dereferenceable(32) %this) unnamed_addr addrspace(1) #11 comdat align 2 !dbg !1244 {
entry:
  call addrspace(1) void @llvm.dbg.value(metadata %"class.aie::detail::vector"* %this, metadata !1246, metadata !DIExpression()), !dbg !1248
  %data = getelementptr inbounds %"class.aie::detail::vector", %"class.aie::detail::vector"* %this, i32 0, i32 0, !dbg !1249
  %call = call addrspace(1) %struct.v8float @_ZN3aie6detail14vector_storageIfLj8EE5undefEv() #26, !dbg !1250
  %0 = getelementptr inbounds %struct.v8float, %struct.v8float* %data, i32 0, i32 0, !dbg !1250
  %1 = extractvalue %struct.v8float %call, 0, !dbg !1250
  store %struct.ipd.custom_type.v32int8.v32int8 %1, %struct.ipd.custom_type.v32int8.v32int8* %0, align 32, !dbg !1250
  ret void, !dbg !1251
}

; Function Attrs: alwaysinline nounwind mustprogress
define linkonce_odr dso_local %"class.aie::detail::vector.16" @_ZN3aie6detail19broadcast_bits_implILj32EfLj16EE3runERKf(float* nonnull align 4 dereferenceable(4) %a) addrspace(1) #9 comdat align 2 !dbg !1252 {
entry:
  %custom_type.tmp = alloca %"class.aie::detail::vector.16", align 32
  %tmp = alloca %"class.aie::detail::vector.16", align 32
  %custom_type.tmp1 = alloca %"class.aie::detail::vector.16", align 32
  %tmp2 = alloca %"class.aie::detail::vector.16", align 32
  %agg.tmp = alloca %"class.aie::detail::vector_elem_const_ref.20", align 4
  call addrspace(1) void @llvm.dbg.value(metadata float* %a, metadata !1449, metadata !DIExpression()), !dbg !1458
  call addrspace(1) void @llvm.dbg.value(metadata i32 undef, metadata !1450, metadata !DIExpression()), !dbg !1458
  call addrspace(1) void @llvm.dbg.value(metadata i32 16, metadata !1450, metadata !DIExpression()), !dbg !1458
  call addrspace(1) void @_ZN3aie6detail6vectorIfLj16EEC2Ev(%"class.aie::detail::vector.16"* nonnull dereferenceable(64) %custom_type.tmp) #26, !dbg !1459
  %0 = load %"class.aie::detail::vector.16", %"class.aie::detail::vector.16"* %custom_type.tmp, align 32, !dbg !1459, !tbaa !1460
  call addrspace(1) void @llvm.dbg.value(metadata %"class.aie::detail::vector.16" %0, metadata !1451, metadata !DIExpression()), !dbg !1458
  store %"class.aie::detail::vector.16" undef, %"class.aie::detail::vector.16"* %tmp, align 32, !dbg !1463
  %1 = bitcast %"class.aie::detail::vector.16"* %tmp to i8*, !dbg !1463
  call addrspace(1) void @llvm.lifetime.start.p0i8(i64 64, i8* %1) #24, !dbg !1463
  call addrspace(1) void @llvm.dbg.declare(metadata %"class.aie::detail::vector.16"* %tmp, metadata !1452, metadata !DIExpression()), !dbg !1464
  %2 = load float, float* %a, align 4, !dbg !1465, !tbaa !1198
  call addrspace(1) void @_ZN3aie6detail6vectorIfLj16EEC2IJEEEfDpOT_(%"class.aie::detail::vector.16"* nonnull dereferenceable(64) %custom_type.tmp1, float %2) #26, !dbg !1464
  %3 = load %"class.aie::detail::vector.16", %"class.aie::detail::vector.16"* %custom_type.tmp1, align 32, !dbg !1464, !tbaa !1460
  store %"class.aie::detail::vector.16" %3, %"class.aie::detail::vector.16"* %tmp, align 32, !dbg !1464, !tbaa !1460
  %4 = bitcast %"class.aie::detail::vector.16"* %tmp2 to i8*, !dbg !1466
  call addrspace(1) void @llvm.lifetime.start.p0i8(i64 64, i8* %4) #24, !dbg !1466
  %call = call addrspace(1) %"class.aie::detail::vector_elem_const_ref.20" @_ZNK3aie6detail6vectorIfLj16EEixEj(%"class.aie::detail::vector.16"* nonnull dereferenceable(64) %tmp, i32 0) #26, !dbg !1467
  %5 = getelementptr inbounds %"class.aie::detail::vector_elem_const_ref.20", %"class.aie::detail::vector_elem_const_ref.20"* %agg.tmp, i32 0, i32 0, !dbg !1467
  %6 = extractvalue %"class.aie::detail::vector_elem_const_ref.20" %call, 0, !dbg !1467
  store %"class.aie::detail::vector.16"* %6, %"class.aie::detail::vector.16"** %5, align 4, !dbg !1467
  %7 = getelementptr inbounds %"class.aie::detail::vector_elem_const_ref.20", %"class.aie::detail::vector_elem_const_ref.20"* %agg.tmp, i32 0, i32 1, !dbg !1467
  %8 = extractvalue %"class.aie::detail::vector_elem_const_ref.20" %call, 1, !dbg !1467
  store i32 %8, i32* %7, align 4, !dbg !1467
  %9 = load %"class.aie::detail::vector_elem_const_ref.20", %"class.aie::detail::vector_elem_const_ref.20"* %agg.tmp, align 4, !dbg !1466, !tbaa !1468
  %call3 = call addrspace(1) %"class.aie::detail::vector.16" @_ZN3aie6detail19broadcast_bits_implILj32EfLj16EE3runILj16EEENS0_6vectorIfLj16EEENS0_21vector_elem_const_refIfXT_EEE(%"class.aie::detail::vector_elem_const_ref.20" %9) #26, !dbg !1466
  %10 = getelementptr inbounds %"class.aie::detail::vector.16", %"class.aie::detail::vector.16"* %tmp2, i32 0, i32 0, !dbg !1466
  %11 = extractvalue %"class.aie::detail::vector.16" %call3, 0, !dbg !1466
  store %struct.v16float %11, %struct.v16float* %10, align 32, !dbg !1466
  %12 = load %"class.aie::detail::vector.16", %"class.aie::detail::vector.16"* %tmp2, align 32, !dbg !1466, !tbaa !1460
  %13 = bitcast %"class.aie::detail::vector.16"* %tmp2 to i8*, !dbg !1466
  call addrspace(1) void @llvm.lifetime.end.p0i8(i64 64, i8* %13) #24, !dbg !1466
  %14 = bitcast %"class.aie::detail::vector.16"* %tmp to i8*, !dbg !1471
  call addrspace(1) void @llvm.lifetime.end.p0i8(i64 64, i8* %14) #24, !dbg !1471
  ret %"class.aie::detail::vector.16" %12, !dbg !1466
}

; Function Attrs: alwaysinline nounwind mustprogress
define linkonce_odr dso_local %"class.aie::detail::vector" @_ZNK3aie6detail6vectorIfLj16EE7extractILj8EEENS1_IfXT_EEEj(%"class.aie::detail::vector.16"* nonnull dereferenceable(64) %this, i32 %idx) addrspace(1) #9 comdat align 2 !dbg !1472 {
entry:
  %retval = alloca %"class.aie::detail::vector", align 32
  %custom_type.tmp = alloca %"class.aie::detail::vector", align 32
  %tmp = alloca %struct.v8float, align 32
  %tmp8 = alloca %"class.aie::detail::vector.10", align 32
  %custom_type.tmp9 = alloca %"class.aie::detail::vector.10", align 32
  %agg.tmp = alloca %struct.v8cint32, align 32
  %agg.tmp10 = alloca %struct.v8cint32, align 32
  %ref.tmp = alloca %"class.aie::detail::vector.10", align 32
  %custom_type.tmp14 = alloca %"class.aie::detail::vector", align 32
  %agg.tmp15 = alloca %struct.v8float, align 32
  %ref.tmp16 = alloca %struct.v4cint32, align 32
  %agg.tmp17 = alloca %struct.v8cint32, align 32
  call addrspace(1) void @llvm.dbg.value(metadata %"class.aie::detail::vector.16"* %this, metadata !1479, metadata !DIExpression()), !dbg !1631
  call addrspace(1) void @llvm.dbg.value(metadata i32 0, metadata !1481, metadata !DIExpression()), !dbg !1631
  %cmp = icmp ult i32 0, 2, !dbg !1632
  %0 = call addrspace(1) i1 @llvm.is.constant.i1(i1 %cmp), !dbg !1632
  br i1 %0, label %do.body, label %if.end4, !dbg !1634

do.body:                                          ; preds = %entry
  %cmp2 = icmp ult i32 0, 2, !dbg !1635
  %1 = call addrspace(1) i1 @llvm.chess_manifest(i1 %cmp2), !dbg !1635
  br i1 %1, label %if.end4, label %if.then3, !dbg !1639

if.then3:                                         ; preds = %do.body
  call addrspace(1) void @llvm.chess_error(metadata !1640), !dbg !1635
  unreachable, !dbg !1635

if.end4:                                          ; preds = %do.body, %entry
  %cmp5 = icmp ult i32 0, 2, !dbg !1634
  call addrspace(1) void @llvm.assume(i1 %cmp5), !dbg !1634
  call addrspace(1) void @llvm.dbg.value(metadata i32 undef, metadata !1482, metadata !DIExpression()), !dbg !1631
  call addrspace(1) void @llvm.dbg.value(metadata i32 256, metadata !1482, metadata !DIExpression()), !dbg !1631
  call addrspace(1) void @llvm.dbg.declare(metadata %"class.aie::detail::vector"* %retval, metadata !1483, metadata !DIExpression()), !dbg !1641
  call addrspace(1) void @_ZN3aie6detail6vectorIfLj8EEC2Ev(%"class.aie::detail::vector"* nonnull dereferenceable(32) %custom_type.tmp) #26, !dbg !1641
  %2 = load %"class.aie::detail::vector", %"class.aie::detail::vector"* %custom_type.tmp, align 32, !dbg !1641, !tbaa !1235
  store %"class.aie::detail::vector" %2, %"class.aie::detail::vector"* %retval, align 32, !dbg !1641, !tbaa !1235
  %3 = call addrspace(1) i1 @llvm.is.constant.i32(i32 0), !dbg !1642
  br i1 %3, label %if.then6, label %if.else, !dbg !1643

if.then6:                                         ; preds = %if.end4
  %data = getelementptr inbounds %"class.aie::detail::vector", %"class.aie::detail::vector"* %retval, i32 0, i32 0, !dbg !1644
  %4 = bitcast %struct.v8float* %tmp to i8*, !dbg !1649
  call addrspace(1) void @llvm.lifetime.start.p0i8(i64 32, i8* %4) #24, !dbg !1649
  %data7 = getelementptr inbounds %"class.aie::detail::vector.16", %"class.aie::detail::vector.16"* %this, i32 0, i32 0, !dbg !1650
  %5 = load %struct.v16float, %struct.v16float* %data7, align 32, !dbg !1649, !tbaa !1651
  %call = call addrspace(1) %struct.v8float @_Z5ext_w8v16floati(%struct.v16float %5, i32 0) #28, !dbg !1649
  %6 = getelementptr inbounds %struct.v8float, %struct.v8float* %tmp, i32 0, i32 0, !dbg !1649
  %7 = extractvalue %struct.v8float %call, 0, !dbg !1649
  store %struct.ipd.custom_type.v32int8.v32int8 %7, %struct.ipd.custom_type.v32int8.v32int8* %6, align 32, !dbg !1649
  %8 = load %struct.v8float, %struct.v8float* %tmp, align 32, !dbg !1649, !tbaa !1652
  store %struct.v8float %8, %struct.v8float* %data, align 32, !dbg !1649, !tbaa !1652
  %9 = bitcast %struct.v8float* %tmp to i8*, !dbg !1649
  call addrspace(1) void @llvm.lifetime.end.p0i8(i64 32, i8* %9) #24, !dbg !1649
  br label %cleanup, !dbg !1653

if.else:                                          ; preds = %if.end4
  call addrspace(1) void @llvm.dbg.value(metadata i32 undef, metadata !1486, metadata !DIExpression()), !dbg !1654
  call addrspace(1) void @llvm.dbg.value(metadata i32 4, metadata !1486, metadata !DIExpression()), !dbg !1654
  store %"class.aie::detail::vector.10" undef, %"class.aie::detail::vector.10"* %tmp8, align 32, !dbg !1655
  %10 = bitcast %"class.aie::detail::vector.10"* %tmp8 to i8*, !dbg !1655
  call addrspace(1) void @llvm.lifetime.start.p0i8(i64 64, i8* %10) #24, !dbg !1655
  call addrspace(1) void @llvm.dbg.declare(metadata %"class.aie::detail::vector.10"* %tmp8, metadata !1489, metadata !DIExpression()), !dbg !1656
  %11 = bitcast %"class.aie::detail::vector.10"* %ref.tmp to i8*, !dbg !1657
  call addrspace(1) void @llvm.lifetime.start.p0i8(i64 64, i8* %11) #24, !dbg !1657
  %call11 = call addrspace(1) %"class.aie::detail::vector.10" @_ZNK3aie6detail6vectorIfLj16EE7cast_toI6cint32EEDav(%"class.aie::detail::vector.16"* nonnull dereferenceable(64) %this) #26, !dbg !1657
  %12 = getelementptr inbounds %"class.aie::detail::vector.10", %"class.aie::detail::vector.10"* %ref.tmp, i32 0, i32 0, !dbg !1657
  %13 = extractvalue %"class.aie::detail::vector.10" %call11, 0, !dbg !1657
  store %struct.v8cint32 %13, %struct.v8cint32* %12, align 32, !dbg !1657
  %call12 = call addrspace(1) %struct.v8cint32 @_ZNK3aie6detail6vectorI6cint32Lj8EEcv8v8cint32Ev(%"class.aie::detail::vector.10"* nonnull dereferenceable(64) %ref.tmp) #26, !dbg !1657
  %14 = getelementptr inbounds %struct.v8cint32, %struct.v8cint32* %agg.tmp10, i32 0, i32 0, !dbg !1657
  %15 = extractvalue %struct.v8cint32 %call12, 0, !dbg !1657
  store %struct.ipd.custom_type.v64int8.v64int8 %15, %struct.ipd.custom_type.v64int8.v64int8* %14, align 32, !dbg !1657
  %mul = mul i32 0, 4, !dbg !1658
  %16 = load %struct.v8cint32, %struct.v8cint32* %agg.tmp10, align 32, !dbg !1659, !tbaa !1660
  %call13 = call addrspace(1) %struct.v8cint32 @_Z8shuffle88v8cint32ij(%struct.v8cint32 %16, i32 %mul, i32 12816) #26, !dbg !1659
  %17 = getelementptr inbounds %struct.v8cint32, %struct.v8cint32* %agg.tmp, i32 0, i32 0, !dbg !1659
  %18 = extractvalue %struct.v8cint32 %call13, 0, !dbg !1659
  store %struct.ipd.custom_type.v64int8.v64int8 %18, %struct.ipd.custom_type.v64int8.v64int8* %17, align 32, !dbg !1659
  %19 = load %struct.v8cint32, %struct.v8cint32* %agg.tmp, align 32, !dbg !1659, !tbaa !1660
  call addrspace(1) void @_ZN3aie6detail6vectorI6cint32Lj8EEC2E8v8cint32(%"class.aie::detail::vector.10"* nonnull dereferenceable(64) %custom_type.tmp9, %struct.v8cint32 %19) #26, !dbg !1659
  %20 = load %"class.aie::detail::vector.10", %"class.aie::detail::vector.10"* %custom_type.tmp9, align 32, !dbg !1659, !tbaa !1661
  store %"class.aie::detail::vector.10" %20, %"class.aie::detail::vector.10"* %tmp8, align 32, !dbg !1659, !tbaa !1661
  %21 = bitcast %"class.aie::detail::vector.10"* %ref.tmp to i8*, !dbg !1659
  call addrspace(1) void @llvm.lifetime.end.p0i8(i64 64, i8* %21) #24, !dbg !1659
  %22 = bitcast %struct.v4cint32* %ref.tmp16 to i8*, !dbg !1663
  call addrspace(1) void @llvm.lifetime.start.p0i8(i64 32, i8* %22) #24, !dbg !1663
  %call18 = call addrspace(1) %struct.v8cint32 @_ZNK3aie6detail6vectorI6cint32Lj8EEcv8v8cint32Ev(%"class.aie::detail::vector.10"* nonnull dereferenceable(64) %tmp8) #26, !dbg !1664
  %23 = getelementptr inbounds %struct.v8cint32, %struct.v8cint32* %agg.tmp17, i32 0, i32 0, !dbg !1664
  %24 = extractvalue %struct.v8cint32 %call18, 0, !dbg !1664
  store %struct.ipd.custom_type.v64int8.v64int8 %24, %struct.ipd.custom_type.v64int8.v64int8* %23, align 32, !dbg !1664
  %25 = load %struct.v8cint32, %struct.v8cint32* %agg.tmp17, align 32, !dbg !1663, !tbaa !1660
  %call19 = call addrspace(1) %struct.v4cint32 @_Z5ext_w8v8cint32i(%struct.v8cint32 %25, i32 0) #28, !dbg !1663
  %26 = getelementptr inbounds %struct.v4cint32, %struct.v4cint32* %ref.tmp16, i32 0, i32 0, !dbg !1663
  %27 = extractvalue %struct.v4cint32 %call19, 0, !dbg !1663
  store %struct.ipd.custom_type.v32int8.v32int8 %27, %struct.ipd.custom_type.v32int8.v32int8* %26, align 32, !dbg !1663
  %ref.tmp16.val = load %struct.v4cint32, %struct.v4cint32* %ref.tmp16, align 32, !dbg !1665, !tbaa !1652
  %call20 = call addrspace(1) %struct.ipd.custom_type.v32int8.v32int8 @_ZN3aie6detailL18vector_cast_helperIfLj8E8v4cint32EENS0_14vector_storageIT_XT0_EE4typeEOT1_(%struct.v4cint32 %ref.tmp16.val) #26, !dbg !1665
  %oldret = insertvalue %struct.v8float undef, %struct.ipd.custom_type.v32int8.v32int8 %call20, 0, !dbg !1665
  %28 = getelementptr inbounds %struct.v8float, %struct.v8float* %agg.tmp15, i32 0, i32 0, !dbg !1665
  %29 = extractvalue %struct.v8float %oldret, 0, !dbg !1665
  store %struct.ipd.custom_type.v32int8.v32int8 %29, %struct.ipd.custom_type.v32int8.v32int8* %28, align 32, !dbg !1665
  %30 = load %struct.v8float, %struct.v8float* %agg.tmp15, align 32, !dbg !1665, !tbaa !1652
  call addrspace(1) void @_ZN3aie6detail6vectorIfLj8EEC2E7v8float(%"class.aie::detail::vector"* nonnull dereferenceable(32) %custom_type.tmp14, %struct.v8float %30) #26, !dbg !1665
  %31 = load %"class.aie::detail::vector", %"class.aie::detail::vector"* %custom_type.tmp14, align 32, !dbg !1665, !tbaa !1235
  store %"class.aie::detail::vector" %31, %"class.aie::detail::vector"* %retval, align 32, !dbg !1665, !tbaa !1235
  %32 = bitcast %struct.v4cint32* %ref.tmp16 to i8*, !dbg !1666
  call addrspace(1) void @llvm.lifetime.end.p0i8(i64 32, i8* %32) #24, !dbg !1666
  %33 = bitcast %"class.aie::detail::vector.10"* %tmp8 to i8*, !dbg !1667
  call addrspace(1) void @llvm.lifetime.end.p0i8(i64 64, i8* %33) #24, !dbg !1667
  br label %cleanup, !dbg !1668

cleanup:                                          ; preds = %if.else, %if.then6
  %34 = load %"class.aie::detail::vector", %"class.aie::detail::vector"* %retval, align 32, !dbg !1669
  ret %"class.aie::detail::vector" %34, !dbg !1669
}

; Function Attrs: convergent nofree nosync nounwind readnone willreturn
declare i1 @llvm.is.constant.i1(i1) addrspace(1) #15

; Function Attrs: nounwind readnone willreturn
declare i1 @llvm.chess_manifest(i1) addrspace(1) #14

; Function Attrs: noreturn nounwind
declare void @llvm.chess_error(metadata) addrspace(1) #16

; Function Attrs: nofree nosync nounwind willreturn
declare void @llvm.assume(i1 noundef) addrspace(1) #17

; Function Attrs: convergent nofree nosync nounwind readnone willreturn
declare i1 @llvm.is.constant.i32(i32) addrspace(1) #15

; Function Attrs: alwaysinline nounwind mustprogress
define linkonce_odr dso_local %struct.v8float @_Z5ext_w8v16floati(%struct.v16float %a0.coerce, i32 %a1) addrspace(1) #10 comdat {
entry:
  %retval = alloca %struct.v8float, align 32
  %call = call x86_regcallcc addrspace(1) %struct.v8float @__regcall3__chessintr_v8float_ext_w_v16float___sint(%struct.v16float %a0.coerce, i32 signext 0) #30
  %0 = getelementptr inbounds %struct.v8float, %struct.v8float* %retval, i32 0, i32 0
  %1 = extractvalue %struct.v8float %call, 0
  store %struct.ipd.custom_type.v32int8.v32int8 %1, %struct.ipd.custom_type.v32int8.v32int8* %0, align 32
  %2 = load %struct.v8float, %struct.v8float* %retval, align 32
  ret %struct.v8float %2
}

; Function Attrs: alwaysinline nounwind mustprogress
define linkonce_odr dso_local %"class.aie::detail::vector.10" @_ZNK3aie6detail6vectorIfLj16EE7cast_toI6cint32EEDav(%"class.aie::detail::vector.16"* nonnull dereferenceable(64) %this) addrspace(1) #9 comdat align 2 !dbg !1670 {
entry:
  %ret = alloca %"class.aie::detail::vector.10", align 32
  %custom_type.tmp = alloca %"class.aie::detail::vector.10", align 32
  %tmp = alloca %struct.v8cint32, align 32
  call addrspace(1) void @llvm.dbg.value(metadata %"class.aie::detail::vector.16"* %this, metadata !1680, metadata !DIExpression()), !dbg !1684
  call addrspace(1) void @llvm.dbg.value(metadata i32 undef, metadata !1681, metadata !DIExpression()), !dbg !1684
  call addrspace(1) void @llvm.dbg.value(metadata i32 64, metadata !1681, metadata !DIExpression()), !dbg !1684
  call addrspace(1) void @llvm.dbg.value(metadata i32 undef, metadata !1682, metadata !DIExpression()), !dbg !1684
  call addrspace(1) void @llvm.dbg.value(metadata i32 8, metadata !1682, metadata !DIExpression()), !dbg !1684
  store %"class.aie::detail::vector.10" undef, %"class.aie::detail::vector.10"* %ret, align 32, !dbg !1685
  %0 = bitcast %"class.aie::detail::vector.10"* %ret to i8*, !dbg !1685
  call addrspace(1) void @llvm.lifetime.start.p0i8(i64 64, i8* %0) #24, !dbg !1685
  call addrspace(1) void @llvm.dbg.declare(metadata %"class.aie::detail::vector.10"* %ret, metadata !1683, metadata !DIExpression()), !dbg !1686
  call addrspace(1) void @_ZN3aie6detail6vectorI6cint32Lj8EEC2Ev(%"class.aie::detail::vector.10"* nonnull dereferenceable(64) %custom_type.tmp) #26, !dbg !1686
  %1 = load %"class.aie::detail::vector.10", %"class.aie::detail::vector.10"* %custom_type.tmp, align 32, !dbg !1686, !tbaa !1661
  store %"class.aie::detail::vector.10" %1, %"class.aie::detail::vector.10"* %ret, align 32, !dbg !1686, !tbaa !1661
  %data = getelementptr inbounds %"class.aie::detail::vector.10", %"class.aie::detail::vector.10"* %ret, i32 0, i32 0, !dbg !1687
  %2 = bitcast %struct.v8cint32* %tmp to i8*, !dbg !1688
  call addrspace(1) void @llvm.lifetime.start.p0i8(i64 64, i8* %2) #24, !dbg !1688
  %data2 = getelementptr inbounds %"class.aie::detail::vector.16", %"class.aie::detail::vector.16"* %this, i32 0, i32 0, !dbg !1689
  %data2.val = load %struct.v16float, %struct.v16float* %data2, align 32, !dbg !1688, !tbaa !1660
  %call = call addrspace(1) %struct.ipd.custom_type.v64int8.v64int8 @_ZN3aie6detailL18vector_cast_helperI6cint32Lj8ERK8v16floatEENS0_14vector_storageIT_XT0_EE4typeEOT1_(%struct.v16float %data2.val) #26, !dbg !1688
  %oldret = insertvalue %struct.v8cint32 undef, %struct.ipd.custom_type.v64int8.v64int8 %call, 0, !dbg !1688
  %3 = getelementptr inbounds %struct.v8cint32, %struct.v8cint32* %tmp, i32 0, i32 0, !dbg !1688
  %4 = extractvalue %struct.v8cint32 %oldret, 0, !dbg !1688
  store %struct.ipd.custom_type.v64int8.v64int8 %4, %struct.ipd.custom_type.v64int8.v64int8* %3, align 32, !dbg !1688
  %5 = load %struct.v8cint32, %struct.v8cint32* %tmp, align 32, !dbg !1688, !tbaa !1660
  store %struct.v8cint32 %5, %struct.v8cint32* %data, align 32, !dbg !1688, !tbaa !1660
  %6 = bitcast %struct.v8cint32* %tmp to i8*, !dbg !1688
  call addrspace(1) void @llvm.lifetime.end.p0i8(i64 64, i8* %6) #24, !dbg !1688
  %7 = load %"class.aie::detail::vector.10", %"class.aie::detail::vector.10"* %ret, align 32, !dbg !1690, !tbaa !1661
  %8 = bitcast %"class.aie::detail::vector.10"* %ret to i8*, !dbg !1691
  call addrspace(1) void @llvm.lifetime.end.p0i8(i64 64, i8* %8) #24, !dbg !1691
  ret %"class.aie::detail::vector.10" %7, !dbg !1690
}

; Function Attrs: alwaysinline nounwind mustprogress
define linkonce_odr dso_local %struct.v8cint32 @_ZNK3aie6detail6vectorI6cint32Lj8EEcv8v8cint32Ev(%"class.aie::detail::vector.10"* nonnull dereferenceable(64) %this) addrspace(1) #9 comdat align 2 !dbg !1692 {
entry:
  %retval = alloca %struct.v8cint32, align 32
  call addrspace(1) void @llvm.dbg.value(metadata %"class.aie::detail::vector.10"* %this, metadata !1694, metadata !DIExpression()), !dbg !1696
  %call = call addrspace(1) %struct.v8cint32 @_ZNK3aie6detail6vectorI6cint32Lj8EE9to_nativeEv(%"class.aie::detail::vector.10"* nonnull dereferenceable(64) %this) #26, !dbg !1697
  %0 = getelementptr inbounds %struct.v8cint32, %struct.v8cint32* %retval, i32 0, i32 0, !dbg !1697
  %1 = extractvalue %struct.v8cint32 %call, 0, !dbg !1697
  store %struct.ipd.custom_type.v64int8.v64int8 %1, %struct.ipd.custom_type.v64int8.v64int8* %0, align 32, !dbg !1697
  %2 = load %struct.v8cint32, %struct.v8cint32* %retval, align 32, !dbg !1698
  ret %struct.v8cint32 %2, !dbg !1698
}

; Function Attrs: alwaysinline nounwind mustprogress
define linkonce_odr dso_local %struct.v8cint32 @_Z8shuffle88v8cint32ij(%struct.v8cint32 %a0.coerce, i32 %a1, i32 %a2) addrspace(1) #9 comdat {
entry:
  %retval = alloca %struct.v8cint32, align 32
  %call = call x86_regcallcc addrspace(1) %struct.v8cint32 @__regcall3__chessintr_v8cint32_shuffle8_v8cint32___sint___uint(%struct.v8cint32 %a0.coerce, i32 signext %a1, i32 zeroext %a2) #30
  %0 = getelementptr inbounds %struct.v8cint32, %struct.v8cint32* %retval, i32 0, i32 0
  %1 = extractvalue %struct.v8cint32 %call, 0
  store %struct.ipd.custom_type.v64int8.v64int8 %1, %struct.ipd.custom_type.v64int8.v64int8* %0, align 32
  %2 = load %struct.v8cint32, %struct.v8cint32* %retval, align 32
  ret %struct.v8cint32 %2
}

; Function Attrs: alwaysinline nounwind
define linkonce_odr dso_local void @_ZN3aie6detail6vectorI6cint32Lj8EEC2E8v8cint32(%"class.aie::detail::vector.10"* nonnull dereferenceable(64) %this, %struct.v8cint32 %v.coerce) unnamed_addr addrspace(1) #11 comdat align 2 !dbg !1699 {
entry:
  call addrspace(1) void @llvm.dbg.value(metadata %struct.v8cint32 %v.coerce, metadata !1703, metadata !DIExpression()), !dbg !1704
  call addrspace(1) void @llvm.dbg.value(metadata %"class.aie::detail::vector.10"* %this, metadata !1701, metadata !DIExpression()), !dbg !1704
  %data = getelementptr inbounds %"class.aie::detail::vector.10", %"class.aie::detail::vector.10"* %this, i32 0, i32 0, !dbg !1705
  store %struct.v8cint32 %v.coerce, %struct.v8cint32* %data, align 32, !dbg !1706, !tbaa !1660
  ret void, !dbg !1707
}

; Function Attrs: alwaysinline nounwind mustprogress
define linkonce_odr dso_local %struct.v4cint32 @_Z5ext_w8v8cint32i(%struct.v8cint32 %a0.coerce, i32 %a1) addrspace(1) #10 comdat {
entry:
  %retval = alloca %struct.v4cint32, align 32
  %call = call x86_regcallcc addrspace(1) %struct.v4cint32 @__regcall3__chessintr_v4cint32_ext_w_v8cint32___sint(%struct.v8cint32 %a0.coerce, i32 signext 0) #30
  %0 = getelementptr inbounds %struct.v4cint32, %struct.v4cint32* %retval, i32 0, i32 0
  %1 = extractvalue %struct.v4cint32 %call, 0
  store %struct.ipd.custom_type.v32int8.v32int8 %1, %struct.ipd.custom_type.v32int8.v32int8* %0, align 32
  %2 = load %struct.v4cint32, %struct.v4cint32* %retval, align 32
  ret %struct.v4cint32 %2
}

; Function Attrs: alwaysinline nounwind mustprogress
define internal %struct.ipd.custom_type.v32int8.v32int8 @_ZN3aie6detailL18vector_cast_helperIfLj8E8v4cint32EENS0_14vector_storageIT_XT0_EE4typeEOT1_(%struct.v4cint32 %from.val) addrspace(1) #9 !dbg !1708 {
entry:
  %retval = alloca %struct.v8float, align 32
  call addrspace(1) void @llvm.dbg.value(metadata %struct.v4cint32* undef, metadata !1714, metadata !DIExpression()), !dbg !1719
  %call = call addrspace(1) %struct.v8float @_Z10as_v8float8v4cint32(%struct.v4cint32 %from.val) #26, !dbg !1720
  %0 = getelementptr inbounds %struct.v8float, %struct.v8float* %retval, i32 0, i32 0, !dbg !1720
  %1 = extractvalue %struct.v8float %call, 0, !dbg !1720
  store %struct.ipd.custom_type.v32int8.v32int8 %1, %struct.ipd.custom_type.v32int8.v32int8* %0, align 32, !dbg !1720
  %2 = load %struct.v8float, %struct.v8float* %retval, align 32, !dbg !1722
  %oldret = extractvalue %struct.v8float %2, 0, !dbg !1722
  ret %struct.ipd.custom_type.v32int8.v32int8 %oldret, !dbg !1722
}

; Function Attrs: alwaysinline nounwind
define linkonce_odr dso_local void @_ZN3aie6detail6vectorIfLj8EEC2E7v8float(%"class.aie::detail::vector"* nonnull dereferenceable(32) %this, %struct.v8float %v.coerce) unnamed_addr addrspace(1) #11 comdat align 2 !dbg !1723 {
entry:
  call addrspace(1) void @llvm.dbg.value(metadata %struct.v8float %v.coerce, metadata !1726, metadata !DIExpression()), !dbg !1727
  call addrspace(1) void @llvm.dbg.value(metadata %"class.aie::detail::vector"* %this, metadata !1725, metadata !DIExpression()), !dbg !1727
  %data = getelementptr inbounds %"class.aie::detail::vector", %"class.aie::detail::vector"* %this, i32 0, i32 0, !dbg !1728
  store %struct.v8float %v.coerce, %struct.v8float* %data, align 32, !dbg !1729, !tbaa !1652
  ret void, !dbg !1730
}

; Function Attrs: alwaysinline nounwind mustprogress
define linkonce_odr dso_local %struct.v8float @_Z10as_v8float8v4cint32(%struct.v4cint32 %a.coerce) addrspace(1) #9 comdat {
entry:
  %a = alloca %struct.v4cint32, align 32
  %custom_type.tmp = alloca %struct.v8float, align 32
  store %struct.v4cint32 %a.coerce, %struct.v4cint32* %a, align 32
  %mw = getelementptr inbounds %struct.v4cint32, %struct.v4cint32* %a, i32 0, i32 0
  %0 = load %struct.ipd.custom_type.v32int8.v32int8, %struct.ipd.custom_type.v32int8.v32int8* %mw, align 32, !tbaa !1652
  call addrspace(1) void @_ZN7v8floatC2E17chessllvmInternal7v32int8(%struct.v8float* nonnull dereferenceable(32) %custom_type.tmp, i32 0, %struct.ipd.custom_type.v32int8.v32int8 %0) #26
  %1 = load %struct.v8float, %struct.v8float* %custom_type.tmp, align 32, !tbaa !1652
  ret %struct.v8float %1
}

; Function Attrs: alwaysinline nounwind
define linkonce_odr dso_local void @_ZN7v8floatC2E17chessllvmInternal7v32int8(%struct.v8float* nonnull dereferenceable(32) %this, i32 %0, %struct.ipd.custom_type.v32int8.v32int8 %aw.coerce) unnamed_addr addrspace(1) #11 comdat align 2 !dbg !1731 {
entry:
  call addrspace(1) void @llvm.dbg.value(metadata %struct.ipd.custom_type.v32int8.v32int8 %aw.coerce, metadata !1748, metadata !DIExpression()), !dbg !1749
  call addrspace(1) void @llvm.dbg.value(metadata %struct.v8float* %this, metadata !1745, metadata !DIExpression()), !dbg !1749
  call addrspace(1) void @llvm.dbg.value(metadata i32 0, metadata !1747, metadata !DIExpression()), !dbg !1749
  %mw = getelementptr inbounds %struct.v8float, %struct.v8float* %this, i32 0, i32 0, !dbg !1750
  store %struct.ipd.custom_type.v32int8.v32int8 %aw.coerce, %struct.ipd.custom_type.v32int8.v32int8* %mw, align 32, !dbg !1751, !tbaa !1652
  ret void, !dbg !1752
}

; Function Attrs: nounwind readnone willreturn
declare dso_local x86_regcallcc %struct.v4cint32 @__regcall3__chessintr_v4cint32_ext_w_v8cint32___sint(%struct.v8cint32, i32 signext) addrspace(1) #13

; Function Attrs: nounwind readnone willreturn
declare dso_local x86_regcallcc %struct.v8cint32 @__regcall3__chessintr_v8cint32_shuffle8_v8cint32___sint___uint(%struct.v8cint32, i32 signext, i32 zeroext) addrspace(1) #13

; Function Attrs: alwaysinline nounwind mustprogress
define linkonce_odr dso_local %struct.v8cint32 @_ZNK3aie6detail6vectorI6cint32Lj8EE9to_nativeEv(%"class.aie::detail::vector.10"* nonnull dereferenceable(64) %this) addrspace(1) #9 comdat align 2 !dbg !1753 {
entry:
  call addrspace(1) void @llvm.dbg.value(metadata %"class.aie::detail::vector.10"* %this, metadata !1760, metadata !DIExpression()), !dbg !1761
  %data = getelementptr inbounds %"class.aie::detail::vector.10", %"class.aie::detail::vector.10"* %this, i32 0, i32 0, !dbg !1762
  %0 = load %struct.v8cint32, %struct.v8cint32* %data, align 32, !dbg !1762, !tbaa !1660
  ret %struct.v8cint32 %0, !dbg !1762
}

; Function Attrs: alwaysinline nounwind
define linkonce_odr dso_local void @_ZN3aie6detail6vectorI6cint32Lj8EEC2Ev(%"class.aie::detail::vector.10"* nonnull dereferenceable(64) %this) unnamed_addr addrspace(1) #11 comdat align 2 !dbg !1764 {
entry:
  call addrspace(1) void @llvm.dbg.value(metadata %"class.aie::detail::vector.10"* %this, metadata !1766, metadata !DIExpression()), !dbg !1767
  %data = getelementptr inbounds %"class.aie::detail::vector.10", %"class.aie::detail::vector.10"* %this, i32 0, i32 0, !dbg !1768
  %call = call addrspace(1) %struct.v8cint32 @_ZN3aie6detail14vector_storageI6cint32Lj8EE5undefEv() #26, !dbg !1769
  %0 = getelementptr inbounds %struct.v8cint32, %struct.v8cint32* %data, i32 0, i32 0, !dbg !1769
  %1 = extractvalue %struct.v8cint32 %call, 0, !dbg !1769
  store %struct.ipd.custom_type.v64int8.v64int8 %1, %struct.ipd.custom_type.v64int8.v64int8* %0, align 32, !dbg !1769
  ret void, !dbg !1770
}

; Function Attrs: alwaysinline nounwind mustprogress
define internal %struct.ipd.custom_type.v64int8.v64int8 @_ZN3aie6detailL18vector_cast_helperI6cint32Lj8ERK8v16floatEENS0_14vector_storageIT_XT0_EE4typeEOT1_(%struct.v16float %from.val) addrspace(1) #9 !dbg !1771 {
entry:
  %retval = alloca %struct.v8cint32, align 32
  call addrspace(1) void @llvm.dbg.value(metadata %struct.v16float* undef, metadata !1777, metadata !DIExpression()), !dbg !1780
  %call = call addrspace(1) %struct.v8cint32 @_Z11as_v8cint328v16float(%struct.v16float %from.val) #26, !dbg !1781
  %0 = getelementptr inbounds %struct.v8cint32, %struct.v8cint32* %retval, i32 0, i32 0, !dbg !1781
  %1 = extractvalue %struct.v8cint32 %call, 0, !dbg !1781
  store %struct.ipd.custom_type.v64int8.v64int8 %1, %struct.ipd.custom_type.v64int8.v64int8* %0, align 32, !dbg !1781
  %2 = load %struct.v8cint32, %struct.v8cint32* %retval, align 32, !dbg !1783
  %oldret = extractvalue %struct.v8cint32 %2, 0, !dbg !1783
  ret %struct.ipd.custom_type.v64int8.v64int8 %oldret, !dbg !1783
}

; Function Attrs: alwaysinline nounwind mustprogress
define linkonce_odr dso_local %struct.v8cint32 @_Z11as_v8cint328v16float(%struct.v16float %a.coerce) addrspace(1) #9 comdat {
entry:
  %a = alloca %struct.v16float, align 32
  %custom_type.tmp = alloca %struct.v8cint32, align 32
  store %struct.v16float %a.coerce, %struct.v16float* %a, align 32
  %mw = getelementptr inbounds %struct.v16float, %struct.v16float* %a, i32 0, i32 0
  %0 = load %struct.ipd.custom_type.v64int8.v64int8, %struct.ipd.custom_type.v64int8.v64int8* %mw, align 32, !tbaa !1660
  call addrspace(1) void @_ZN8v8cint32C2E17chessllvmInternal7v64int8(%struct.v8cint32* nonnull dereferenceable(64) %custom_type.tmp, i32 0, %struct.ipd.custom_type.v64int8.v64int8 %0) #26
  %1 = load %struct.v8cint32, %struct.v8cint32* %custom_type.tmp, align 32, !tbaa !1660
  ret %struct.v8cint32 %1
}

; Function Attrs: alwaysinline nounwind
define linkonce_odr dso_local void @_ZN8v8cint32C2E17chessllvmInternal7v64int8(%struct.v8cint32* nonnull dereferenceable(64) %this, i32 %0, %struct.ipd.custom_type.v64int8.v64int8 %aw.coerce) unnamed_addr addrspace(1) #11 comdat align 2 !dbg !1784 {
entry:
  call addrspace(1) void @llvm.dbg.value(metadata %struct.ipd.custom_type.v64int8.v64int8 %aw.coerce, metadata !1811, metadata !DIExpression()), !dbg !1812
  call addrspace(1) void @llvm.dbg.value(metadata %struct.v8cint32* %this, metadata !1808, metadata !DIExpression()), !dbg !1812
  call addrspace(1) void @llvm.dbg.value(metadata i32 0, metadata !1810, metadata !DIExpression()), !dbg !1812
  %mw = getelementptr inbounds %struct.v8cint32, %struct.v8cint32* %this, i32 0, i32 0, !dbg !1813
  store %struct.ipd.custom_type.v64int8.v64int8 %aw.coerce, %struct.ipd.custom_type.v64int8.v64int8* %mw, align 32, !dbg !1814, !tbaa !1660
  ret void, !dbg !1815
}

; Function Attrs: alwaysinline nounwind mustprogress
define linkonce_odr dso_local %struct.v8cint32 @_ZN3aie6detail14vector_storageI6cint32Lj8EE5undefEv() addrspace(1) #9 comdat align 2 !dbg !1816 {
entry:
  %retval = alloca %struct.v8cint32, align 32
  %call = call addrspace(1) %struct.v8cint32 @_Z14undef_v8cint32v() #26, !dbg !1817
  %0 = getelementptr inbounds %struct.v8cint32, %struct.v8cint32* %retval, i32 0, i32 0, !dbg !1817
  %1 = extractvalue %struct.v8cint32 %call, 0, !dbg !1817
  store %struct.ipd.custom_type.v64int8.v64int8 %1, %struct.ipd.custom_type.v64int8.v64int8* %0, align 32, !dbg !1817
  %2 = load %struct.v8cint32, %struct.v8cint32* %retval, align 32, !dbg !1818
  ret %struct.v8cint32 %2, !dbg !1818
}

; Function Attrs: alwaysinline nounwind mustprogress
define linkonce_odr dso_local %struct.v8cint32 @_Z14undef_v8cint32v() addrspace(1) #9 comdat {
entry:
  %retval = alloca %struct.v8cint32, align 32
  %call = call x86_regcallcc addrspace(1) %struct.v8cint32 @__regcall3__chessintr_v8cint32_undef_v8cint32() #30
  %0 = getelementptr inbounds %struct.v8cint32, %struct.v8cint32* %retval, i32 0, i32 0
  %1 = extractvalue %struct.v8cint32 %call, 0
  store %struct.ipd.custom_type.v64int8.v64int8 %1, %struct.ipd.custom_type.v64int8.v64int8* %0, align 32
  %2 = load %struct.v8cint32, %struct.v8cint32* %retval, align 32
  ret %struct.v8cint32 %2
}

; Function Attrs: nounwind readnone willreturn
declare dso_local x86_regcallcc %struct.v8cint32 @__regcall3__chessintr_v8cint32_undef_v8cint32() addrspace(1) #13

; Function Attrs: nounwind readnone willreturn
declare dso_local x86_regcallcc %struct.v8float @__regcall3__chessintr_v8float_ext_w_v16float___sint(%struct.v16float, i32 signext) addrspace(1) #13

; Function Attrs: alwaysinline nounwind
define linkonce_odr dso_local void @_ZN3aie6detail6vectorIfLj16EEC2Ev(%"class.aie::detail::vector.16"* nonnull dereferenceable(64) %this) unnamed_addr addrspace(1) #11 comdat align 2 !dbg !1819 {
entry:
  call addrspace(1) void @llvm.dbg.value(metadata %"class.aie::detail::vector.16"* %this, metadata !1821, metadata !DIExpression()), !dbg !1823
  %data = getelementptr inbounds %"class.aie::detail::vector.16", %"class.aie::detail::vector.16"* %this, i32 0, i32 0, !dbg !1824
  %call = call addrspace(1) %struct.v16float @_ZN3aie6detail14vector_storageIfLj16EE5undefEv() #26, !dbg !1825
  %0 = getelementptr inbounds %struct.v16float, %struct.v16float* %data, i32 0, i32 0, !dbg !1825
  %1 = extractvalue %struct.v16float %call, 0, !dbg !1825
  store %struct.ipd.custom_type.v64int8.v64int8 %1, %struct.ipd.custom_type.v64int8.v64int8* %0, align 32, !dbg !1825
  ret void, !dbg !1826
}

; Function Attrs: alwaysinline nounwind
define linkonce_odr dso_local void @_ZN3aie6detail6vectorIfLj16EEC2IJEEEfDpOT_(%"class.aie::detail::vector.16"* nonnull dereferenceable(64) %this, float %v) unnamed_addr addrspace(1) #11 comdat align 2 !dbg !1827 {
entry:
  %v.addr = alloca float, align 4
  call addrspace(1) void @llvm.dbg.value(metadata %"class.aie::detail::vector.16"* %this, metadata !1834, metadata !DIExpression()), !dbg !1839
  store float %v, float* %v.addr, align 4, !tbaa !1198
  call addrspace(1) void @llvm.dbg.declare(metadata float* %v.addr, metadata !1835, metadata !DIExpression()), !dbg !1840
  %data = getelementptr inbounds %"class.aie::detail::vector.16", %"class.aie::detail::vector.16"* %this, i32 0, i32 0, !dbg !1841
  %call = call addrspace(1) %struct.v16float @_ZN3aie6detail14vector_storageIfLj16EE5undefEv() #26, !dbg !1842
  %0 = getelementptr inbounds %struct.v16float, %struct.v16float* %data, i32 0, i32 0, !dbg !1842
  %1 = extractvalue %struct.v16float %call, 0, !dbg !1842
  store %struct.ipd.custom_type.v64int8.v64int8 %1, %struct.ipd.custom_type.v64int8.v64int8* %0, align 32, !dbg !1842
  call addrspace(1) void @llvm.dbg.value(metadata i32 undef, metadata !1836, metadata !DIExpression()), !dbg !1843
  call addrspace(1) void @llvm.dbg.value(metadata i32 1, metadata !1836, metadata !DIExpression()), !dbg !1843
  %data2 = getelementptr inbounds %"class.aie::detail::vector.16", %"class.aie::detail::vector.16"* %this, i32 0, i32 0, !dbg !1844
  call addrspace(1) void @_ZN3aie6detail6vectorIfLj16EE23init_from_values_simpleI8v16floatJEfEEvRT_RKfDpOT0_(%"class.aie::detail::vector.16"* nonnull dereferenceable(64) %this, %struct.v16float* nonnull align 32 dereferenceable(64) %data2, float* nonnull align 4 dereferenceable(4) %v.addr) #26, !dbg !1848
  ret void, !dbg !1849
}

; Function Attrs: alwaysinline nounwind mustprogress
define linkonce_odr dso_local %"class.aie::detail::vector_elem_const_ref.20" @_ZNK3aie6detail6vectorIfLj16EEixEj(%"class.aie::detail::vector.16"* nonnull dereferenceable(64) %this, i32 %idx) addrspace(1) #9 comdat align 2 !dbg !1850 {
entry:
  %retval = alloca %"class.aie::detail::vector_elem_const_ref.20", align 4
  call addrspace(1) void @llvm.dbg.value(metadata %"class.aie::detail::vector.16"* %this, metadata !1852, metadata !DIExpression()), !dbg !1854
  call addrspace(1) void @llvm.dbg.value(metadata i32 0, metadata !1853, metadata !DIExpression()), !dbg !1854
  %cmp = icmp ult i32 0, 16, !dbg !1855
  %0 = call addrspace(1) i1 @llvm.is.constant.i1(i1 %cmp), !dbg !1855
  br i1 %0, label %do.body, label %if.end4, !dbg !1857

do.body:                                          ; preds = %entry
  %cmp2 = icmp ult i32 0, 16, !dbg !1858
  %1 = call addrspace(1) i1 @llvm.chess_manifest(i1 %cmp2), !dbg !1858
  br i1 %1, label %if.end4, label %if.then3, !dbg !1862

if.then3:                                         ; preds = %do.body
  call addrspace(1) void @llvm.chess_error(metadata !1863), !dbg !1858
  unreachable, !dbg !1858

if.end4:                                          ; preds = %do.body, %entry
  %cmp5 = icmp ult i32 0, 16, !dbg !1857
  call addrspace(1) void @llvm.assume(i1 %cmp5), !dbg !1857
  %call = call addrspace(1) %"class.aie::detail::vector_elem_const_ref.20" @_ZNK3aie6detail6vectorIfLj16EE14elem_const_refEj(%"class.aie::detail::vector.16"* nonnull dereferenceable(64) %this, i32 0) #26, !dbg !1864
  %2 = getelementptr inbounds %"class.aie::detail::vector_elem_const_ref.20", %"class.aie::detail::vector_elem_const_ref.20"* %retval, i32 0, i32 0, !dbg !1864
  %3 = extractvalue %"class.aie::detail::vector_elem_const_ref.20" %call, 0, !dbg !1864
  store %"class.aie::detail::vector.16"* %3, %"class.aie::detail::vector.16"** %2, align 4, !dbg !1864
  %4 = getelementptr inbounds %"class.aie::detail::vector_elem_const_ref.20", %"class.aie::detail::vector_elem_const_ref.20"* %retval, i32 0, i32 1, !dbg !1864
  %5 = extractvalue %"class.aie::detail::vector_elem_const_ref.20" %call, 1, !dbg !1864
  store i32 %5, i32* %4, align 4, !dbg !1864
  %6 = load %"class.aie::detail::vector_elem_const_ref.20", %"class.aie::detail::vector_elem_const_ref.20"* %retval, align 4, !dbg !1865
  ret %"class.aie::detail::vector_elem_const_ref.20" %6, !dbg !1865
}

; Function Attrs: alwaysinline nounwind mustprogress
define linkonce_odr dso_local %"class.aie::detail::vector.16" @_ZN3aie6detail19broadcast_bits_implILj32EfLj16EE3runILj16EEENS0_6vectorIfLj16EEENS0_21vector_elem_const_refIfXT_EEE(%"class.aie::detail::vector_elem_const_ref.20" %a.coerce) addrspace(1) #9 comdat align 2 !dbg !1866 {
entry:
  %retval = alloca %"class.aie::detail::vector.16", align 32
  %a = alloca %"class.aie::detail::vector_elem_const_ref.20", align 4
  %tmp = alloca %"class.aie::detail::vector.16", align 32
  %custom_type.tmp = alloca %"class.aie::detail::vector.16", align 32
  %custom_type.tmp1 = alloca %"class.aie::detail::vector.16", align 32
  %agg.tmp = alloca %struct.v16float, align 32
  %agg.tmp2 = alloca %struct.v16float, align 32
  %ref.tmp = alloca %"class.aie::detail::vector.16", align 32
  store %"class.aie::detail::vector_elem_const_ref.20" %a.coerce, %"class.aie::detail::vector_elem_const_ref.20"* %a, align 4
  call addrspace(1) void @llvm.dbg.declare(metadata %"class.aie::detail::vector_elem_const_ref.20"* %a, metadata !1873, metadata !DIExpression()), !dbg !1877
  store %"class.aie::detail::vector.16" undef, %"class.aie::detail::vector.16"* %tmp, align 32, !dbg !1878
  %0 = bitcast %"class.aie::detail::vector.16"* %tmp to i8*, !dbg !1878
  call addrspace(1) void @llvm.lifetime.start.p0i8(i64 64, i8* %0) #24, !dbg !1878
  call addrspace(1) void @llvm.dbg.declare(metadata %"class.aie::detail::vector.16"* %tmp, metadata !1874, metadata !DIExpression()), !dbg !1879
  call addrspace(1) void @_ZN3aie6detail6vectorIfLj16EEC2Ev(%"class.aie::detail::vector.16"* nonnull dereferenceable(64) %custom_type.tmp) #26, !dbg !1879
  %1 = load %"class.aie::detail::vector.16", %"class.aie::detail::vector.16"* %custom_type.tmp, align 32, !dbg !1879, !tbaa !1460
  store %"class.aie::detail::vector.16" %1, %"class.aie::detail::vector.16"* %tmp, align 32, !dbg !1879, !tbaa !1460
  %2 = bitcast %"class.aie::detail::vector.16"* %ref.tmp to i8*, !dbg !1880
  call addrspace(1) void @llvm.lifetime.start.p0i8(i64 64, i8* %2) #24, !dbg !1880
  %parent = getelementptr inbounds %"class.aie::detail::vector_elem_const_ref.20", %"class.aie::detail::vector_elem_const_ref.20"* %a, i32 0, i32 0, !dbg !1882
  %3 = load %"class.aie::detail::vector.16"*, %"class.aie::detail::vector.16"** %parent, align 4, !dbg !1882, !tbaa !1883
  %call = call addrspace(1) %"class.aie::detail::vector.16" @_ZNK3aie6detail6vectorIfLj16EE4growILj16EEENS1_IfXT_EEEj(%"class.aie::detail::vector.16"* nonnull dereferenceable(64) %3, i32 0) #26, !dbg !1884
  %4 = getelementptr inbounds %"class.aie::detail::vector.16", %"class.aie::detail::vector.16"* %ref.tmp, i32 0, i32 0, !dbg !1884
  %5 = extractvalue %"class.aie::detail::vector.16" %call, 0, !dbg !1884
  store %struct.v16float %5, %struct.v16float* %4, align 32, !dbg !1884
  %call3 = call addrspace(1) %struct.v16float @_ZNK3aie6detail6vectorIfLj16EEcv8v16floatEv(%"class.aie::detail::vector.16"* nonnull dereferenceable(64) %ref.tmp) #26, !dbg !1880
  %6 = getelementptr inbounds %struct.v16float, %struct.v16float* %agg.tmp2, i32 0, i32 0, !dbg !1880
  %7 = extractvalue %struct.v16float %call3, 0, !dbg !1880
  store %struct.ipd.custom_type.v64int8.v64int8 %7, %struct.ipd.custom_type.v64int8.v64int8* %6, align 32, !dbg !1880
  %offset = getelementptr inbounds %"class.aie::detail::vector_elem_const_ref.20", %"class.aie::detail::vector_elem_const_ref.20"* %a, i32 0, i32 1, !dbg !1885
  %8 = load i32, i32* %offset, align 4, !dbg !1885, !tbaa !1886
  %9 = load %struct.v16float, %struct.v16float* %agg.tmp2, align 32, !dbg !1887, !tbaa !1660
  %call4 = call addrspace(1) %struct.v16float @_Z11fpshuffle168v16floatijj(%struct.v16float %9, i32 %8, i32 0, i32 0) #26, !dbg !1887
  %10 = getelementptr inbounds %struct.v16float, %struct.v16float* %agg.tmp, i32 0, i32 0, !dbg !1887
  %11 = extractvalue %struct.v16float %call4, 0, !dbg !1887
  store %struct.ipd.custom_type.v64int8.v64int8 %11, %struct.ipd.custom_type.v64int8.v64int8* %10, align 32, !dbg !1887
  %12 = load %struct.v16float, %struct.v16float* %agg.tmp, align 32, !dbg !1887, !tbaa !1660
  call addrspace(1) void @_ZN3aie6detail6vectorIfLj16EEC2E8v16float(%"class.aie::detail::vector.16"* nonnull dereferenceable(64) %custom_type.tmp1, %struct.v16float %12) #26, !dbg !1887
  %13 = load %"class.aie::detail::vector.16", %"class.aie::detail::vector.16"* %custom_type.tmp1, align 32, !dbg !1887, !tbaa !1460
  store %"class.aie::detail::vector.16" %13, %"class.aie::detail::vector.16"* %tmp, align 32, !dbg !1887, !tbaa !1460
  %14 = bitcast %"class.aie::detail::vector.16"* %ref.tmp to i8*, !dbg !1888
  call addrspace(1) void @llvm.lifetime.end.p0i8(i64 64, i8* %14) #24, !dbg !1888
  %call5 = call addrspace(1) %"class.aie::detail::vector.16" @_ZNK3aie6detail6vectorIfLj16EE7extractILj16EEENS1_IfXT_EEEj(%"class.aie::detail::vector.16"* nonnull dereferenceable(64) %tmp, i32 0) #26, !dbg !1889
  %15 = getelementptr inbounds %"class.aie::detail::vector.16", %"class.aie::detail::vector.16"* %retval, i32 0, i32 0, !dbg !1889
  %16 = extractvalue %"class.aie::detail::vector.16" %call5, 0, !dbg !1889
  store %struct.v16float %16, %struct.v16float* %15, align 32, !dbg !1889
  %17 = bitcast %"class.aie::detail::vector.16"* %tmp to i8*, !dbg !1890
  call addrspace(1) void @llvm.lifetime.end.p0i8(i64 64, i8* %17) #24, !dbg !1890
  %18 = load %"class.aie::detail::vector.16", %"class.aie::detail::vector.16"* %retval, align 32, !dbg !1891
  ret %"class.aie::detail::vector.16" %18, !dbg !1891
}

; Function Attrs: alwaysinline nounwind mustprogress
define linkonce_odr dso_local %"class.aie::detail::vector.16" @_ZNK3aie6detail6vectorIfLj16EE4growILj16EEENS1_IfXT_EEEj(%"class.aie::detail::vector.16"* nonnull dereferenceable(64) %this, i32 %idx) addrspace(1) #9 comdat align 2 !dbg !1892 {
entry:
  %retval = alloca %"class.aie::detail::vector.16", align 32
  %custom_type.tmp = alloca %"class.aie::detail::vector.16", align 32
  call addrspace(1) void @llvm.dbg.value(metadata %"class.aie::detail::vector.16"* %this, metadata !1899, metadata !DIExpression()), !dbg !1903
  call addrspace(1) void @llvm.dbg.value(metadata i32 %idx, metadata !1900, metadata !DIExpression()), !dbg !1903
  call addrspace(1) void @llvm.dbg.value(metadata i32 undef, metadata !1901, metadata !DIExpression()), !dbg !1903
  call addrspace(1) void @llvm.dbg.value(metadata i32 512, metadata !1901, metadata !DIExpression()), !dbg !1903
  call addrspace(1) void @llvm.dbg.declare(metadata %"class.aie::detail::vector.16"* %retval, metadata !1902, metadata !DIExpression()), !dbg !1904
  call addrspace(1) void @_ZN3aie6detail6vectorIfLj16EEC2Ev(%"class.aie::detail::vector.16"* nonnull dereferenceable(64) %custom_type.tmp) #26, !dbg !1904
  %0 = load %"class.aie::detail::vector.16", %"class.aie::detail::vector.16"* %custom_type.tmp, align 32, !dbg !1904, !tbaa !1460
  store %"class.aie::detail::vector.16" %0, %"class.aie::detail::vector.16"* %retval, align 32, !dbg !1904, !tbaa !1460
  %data = getelementptr inbounds %"class.aie::detail::vector.16", %"class.aie::detail::vector.16"* %retval, i32 0, i32 0, !dbg !1905
  %data2 = getelementptr inbounds %"class.aie::detail::vector.16", %"class.aie::detail::vector.16"* %this, i32 0, i32 0, !dbg !1908
  %1 = load %struct.v16float, %struct.v16float* %data2, align 32, !dbg !1908, !tbaa !1660
  store %struct.v16float %1, %struct.v16float* %data, align 32, !dbg !1908, !tbaa !1660
  %2 = load %"class.aie::detail::vector.16", %"class.aie::detail::vector.16"* %retval, align 32, !dbg !1909
  ret %"class.aie::detail::vector.16" %2, !dbg !1909
}

; Function Attrs: alwaysinline nounwind mustprogress
define linkonce_odr dso_local %struct.v16float @_ZNK3aie6detail6vectorIfLj16EEcv8v16floatEv(%"class.aie::detail::vector.16"* nonnull dereferenceable(64) %this) addrspace(1) #9 comdat align 2 !dbg !1910 {
entry:
  %retval = alloca %struct.v16float, align 32
  call addrspace(1) void @llvm.dbg.value(metadata %"class.aie::detail::vector.16"* %this, metadata !1912, metadata !DIExpression()), !dbg !1913
  %call = call addrspace(1) %struct.v16float @_ZNK3aie6detail6vectorIfLj16EE9to_nativeEv(%"class.aie::detail::vector.16"* nonnull dereferenceable(64) %this) #26, !dbg !1914
  %0 = getelementptr inbounds %struct.v16float, %struct.v16float* %retval, i32 0, i32 0, !dbg !1914
  %1 = extractvalue %struct.v16float %call, 0, !dbg !1914
  store %struct.ipd.custom_type.v64int8.v64int8 %1, %struct.ipd.custom_type.v64int8.v64int8* %0, align 32, !dbg !1914
  %2 = load %struct.v16float, %struct.v16float* %retval, align 32, !dbg !1915
  ret %struct.v16float %2, !dbg !1915
}

; Function Attrs: alwaysinline nounwind mustprogress
define linkonce_odr dso_local %struct.v16float @_Z11fpshuffle168v16floatijj(%struct.v16float %a0.coerce, i32 %a1, i32 %a2, i32 %a3) addrspace(1) #9 comdat {
entry:
  %retval = alloca %struct.v16float, align 32
  %call = call x86_regcallcc addrspace(1) %struct.v16float @__regcall3__chessintr_v16float_fpshuffle16_v16float___sint___uint___uint(%struct.v16float %a0.coerce, i32 signext %a1, i32 zeroext 0, i32 zeroext 0) #30
  %0 = getelementptr inbounds %struct.v16float, %struct.v16float* %retval, i32 0, i32 0
  %1 = extractvalue %struct.v16float %call, 0
  store %struct.ipd.custom_type.v64int8.v64int8 %1, %struct.ipd.custom_type.v64int8.v64int8* %0, align 32
  %2 = load %struct.v16float, %struct.v16float* %retval, align 32
  ret %struct.v16float %2
}

; Function Attrs: alwaysinline nounwind
define linkonce_odr dso_local void @_ZN3aie6detail6vectorIfLj16EEC2E8v16float(%"class.aie::detail::vector.16"* nonnull dereferenceable(64) %this, %struct.v16float %v.coerce) unnamed_addr addrspace(1) #11 comdat align 2 !dbg !1916 {
entry:
  call addrspace(1) void @llvm.dbg.value(metadata %struct.v16float %v.coerce, metadata !1919, metadata !DIExpression()), !dbg !1920
  call addrspace(1) void @llvm.dbg.value(metadata %"class.aie::detail::vector.16"* %this, metadata !1918, metadata !DIExpression()), !dbg !1920
  %data = getelementptr inbounds %"class.aie::detail::vector.16", %"class.aie::detail::vector.16"* %this, i32 0, i32 0, !dbg !1921
  store %struct.v16float %v.coerce, %struct.v16float* %data, align 32, !dbg !1922, !tbaa !1660
  ret void, !dbg !1923
}

; Function Attrs: alwaysinline nounwind mustprogress
define linkonce_odr dso_local %"class.aie::detail::vector.16" @_ZNK3aie6detail6vectorIfLj16EE7extractILj16EEENS1_IfXT_EEEj(%"class.aie::detail::vector.16"* nonnull dereferenceable(64) %this, i32 %idx) addrspace(1) #9 comdat align 2 !dbg !1924 {
entry:
  call addrspace(1) void @llvm.dbg.value(metadata %"class.aie::detail::vector.16"* %this, metadata !1927, metadata !DIExpression()), !dbg !1930
  call addrspace(1) void @llvm.dbg.value(metadata i32 0, metadata !1928, metadata !DIExpression()), !dbg !1930
  %cmp = icmp ult i32 0, 1, !dbg !1931
  %0 = call addrspace(1) i1 @llvm.is.constant.i1(i1 %cmp), !dbg !1931
  br i1 %0, label %do.body, label %if.end4, !dbg !1933

do.body:                                          ; preds = %entry
  %cmp2 = icmp ult i32 0, 1, !dbg !1934
  %1 = call addrspace(1) i1 @llvm.chess_manifest(i1 %cmp2), !dbg !1934
  br i1 %1, label %if.end4, label %if.then3, !dbg !1938

if.then3:                                         ; preds = %do.body
  call addrspace(1) void @llvm.chess_error(metadata !1640), !dbg !1934
  unreachable, !dbg !1934

if.end4:                                          ; preds = %do.body, %entry
  %cmp5 = icmp ult i32 0, 1, !dbg !1933
  call addrspace(1) void @llvm.assume(i1 %cmp5), !dbg !1933
  call addrspace(1) void @llvm.dbg.value(metadata i32 undef, metadata !1929, metadata !DIExpression()), !dbg !1930
  call addrspace(1) void @llvm.dbg.value(metadata i32 512, metadata !1929, metadata !DIExpression()), !dbg !1930
  %2 = load %"class.aie::detail::vector.16", %"class.aie::detail::vector.16"* %this, align 32, !dbg !1939, !tbaa !1460
  ret %"class.aie::detail::vector.16" %2, !dbg !1939
}

; Function Attrs: nounwind readnone willreturn
declare dso_local x86_regcallcc %struct.v16float @__regcall3__chessintr_v16float_fpshuffle16_v16float___sint___uint___uint(%struct.v16float, i32 signext, i32 zeroext, i32 zeroext) addrspace(1) #13

; Function Attrs: alwaysinline nounwind mustprogress
define linkonce_odr dso_local %struct.v16float @_ZNK3aie6detail6vectorIfLj16EE9to_nativeEv(%"class.aie::detail::vector.16"* nonnull dereferenceable(64) %this) addrspace(1) #9 comdat align 2 !dbg !1942 {
entry:
  call addrspace(1) void @llvm.dbg.value(metadata %"class.aie::detail::vector.16"* %this, metadata !1947, metadata !DIExpression()), !dbg !1948
  %data = getelementptr inbounds %"class.aie::detail::vector.16", %"class.aie::detail::vector.16"* %this, i32 0, i32 0, !dbg !1949
  %0 = load %struct.v16float, %struct.v16float* %data, align 32, !dbg !1949, !tbaa !1660
  ret %struct.v16float %0, !dbg !1949
}

; Function Attrs: alwaysinline nounwind mustprogress
define linkonce_odr dso_local %"class.aie::detail::vector_elem_const_ref.20" @_ZNK3aie6detail6vectorIfLj16EE14elem_const_refEj(%"class.aie::detail::vector.16"* nonnull dereferenceable(64) %this, i32 %idx) addrspace(1) #9 comdat align 2 !dbg !1951 {
entry:
  %retval = alloca %"class.aie::detail::vector_elem_const_ref.20", align 4
  call addrspace(1) void @llvm.dbg.value(metadata %"class.aie::detail::vector.16"* %this, metadata !1953, metadata !DIExpression()), !dbg !1955
  call addrspace(1) void @llvm.dbg.value(metadata i32 0, metadata !1954, metadata !DIExpression()), !dbg !1955
  %cmp = icmp ult i32 0, 16, !dbg !1956
  %0 = call addrspace(1) i1 @llvm.is.constant.i1(i1 %cmp), !dbg !1956
  br i1 %0, label %do.body, label %if.end4, !dbg !1958

do.body:                                          ; preds = %entry
  %cmp2 = icmp ult i32 0, 16, !dbg !1959
  %1 = call addrspace(1) i1 @llvm.chess_manifest(i1 %cmp2), !dbg !1959
  br i1 %1, label %if.end4, label %if.then3, !dbg !1963

if.then3:                                         ; preds = %do.body
  call addrspace(1) void @llvm.chess_error(metadata !1863), !dbg !1959
  unreachable, !dbg !1959

if.end4:                                          ; preds = %do.body, %entry
  %cmp5 = icmp ult i32 0, 16, !dbg !1958
  call addrspace(1) void @llvm.assume(i1 %cmp5), !dbg !1958
  call addrspace(1) void @_ZN3aie6detail21vector_elem_const_refIfLj16EEC2ERKNS0_6vectorIfLj16EEEj(%"class.aie::detail::vector_elem_const_ref.20"* nonnull dereferenceable(8) %retval, %"class.aie::detail::vector.16"* nonnull align 32 dereferenceable(64) %this, i32 0) #26, !dbg !1964
  %2 = load %"class.aie::detail::vector_elem_const_ref.20", %"class.aie::detail::vector_elem_const_ref.20"* %retval, align 4, !dbg !1965
  ret %"class.aie::detail::vector_elem_const_ref.20" %2, !dbg !1965
}

; Function Attrs: alwaysinline nounwind
define linkonce_odr dso_local void @_ZN3aie6detail21vector_elem_const_refIfLj16EEC2ERKNS0_6vectorIfLj16EEEj(%"class.aie::detail::vector_elem_const_ref.20"* nonnull dereferenceable(8) %this, %"class.aie::detail::vector.16"* nonnull align 32 dereferenceable(64) %v, i32 %idx) unnamed_addr addrspace(1) #11 comdat align 2 !dbg !1966 {
entry:
  call addrspace(1) void @llvm.dbg.value(metadata %"class.aie::detail::vector_elem_const_ref.20"* %this, metadata !1968, metadata !DIExpression()), !dbg !1972
  call addrspace(1) void @llvm.dbg.value(metadata %"class.aie::detail::vector.16"* %v, metadata !1970, metadata !DIExpression()), !dbg !1972
  call addrspace(1) void @llvm.dbg.value(metadata i32 0, metadata !1971, metadata !DIExpression()), !dbg !1972
  %parent = getelementptr inbounds %"class.aie::detail::vector_elem_const_ref.20", %"class.aie::detail::vector_elem_const_ref.20"* %this, i32 0, i32 0, !dbg !1973
  store %"class.aie::detail::vector.16"* %v, %"class.aie::detail::vector.16"** %parent, align 4, !dbg !1973, !tbaa !1974
  %offset = getelementptr inbounds %"class.aie::detail::vector_elem_const_ref.20", %"class.aie::detail::vector_elem_const_ref.20"* %this, i32 0, i32 1, !dbg !1975
  store i32 0, i32* %offset, align 4, !dbg !1975, !tbaa !1886
  ret void, !dbg !1976
}

; Function Attrs: alwaysinline nounwind mustprogress
define linkonce_odr dso_local %struct.v16float @_ZN3aie6detail14vector_storageIfLj16EE5undefEv() addrspace(1) #9 comdat align 2 !dbg !1977 {
entry:
  %retval = alloca %struct.v16float, align 32
  %call = call addrspace(1) %struct.v16float @_Z14undef_v16floatv() #26, !dbg !1978
  %0 = getelementptr inbounds %struct.v16float, %struct.v16float* %retval, i32 0, i32 0, !dbg !1978
  %1 = extractvalue %struct.v16float %call, 0, !dbg !1978
  store %struct.ipd.custom_type.v64int8.v64int8 %1, %struct.ipd.custom_type.v64int8.v64int8* %0, align 32, !dbg !1978
  %2 = load %struct.v16float, %struct.v16float* %retval, align 32, !dbg !1979
  ret %struct.v16float %2, !dbg !1979
}

; Function Attrs: alwaysinline nounwind mustprogress
define linkonce_odr dso_local void @_ZN3aie6detail6vectorIfLj16EE23init_from_values_simpleI8v16floatJEfEEvRT_RKfDpOT0_(%"class.aie::detail::vector.16"* nonnull dereferenceable(64) %this, %struct.v16float* nonnull align 32 dereferenceable(64) %d, float* nonnull align 4 dereferenceable(4) %v) addrspace(1) #9 comdat align 2 !dbg !1980 {
entry:
  %tmp = alloca %struct.v16float, align 32
  call addrspace(1) void @llvm.dbg.value(metadata %"class.aie::detail::vector.16"* %this, metadata !1991, metadata !DIExpression()), !dbg !1994
  call addrspace(1) void @llvm.dbg.value(metadata %struct.v16float* %d, metadata !1992, metadata !DIExpression()), !dbg !1994
  call addrspace(1) void @llvm.dbg.value(metadata float* %v, metadata !1993, metadata !DIExpression()), !dbg !1994
  %0 = bitcast %struct.v16float* %tmp to i8*, !dbg !1995
  call addrspace(1) void @llvm.lifetime.start.p0i8(i64 64, i8* %0) #24, !dbg !1995
  %1 = load float, float* %v, align 4, !dbg !1996, !tbaa !1198
  %2 = load %struct.v16float, %struct.v16float* %d, align 32, !dbg !1995, !tbaa !1660
  %call = call addrspace(1) %struct.v16float @_Z9shft_elem8v16floatf(%struct.v16float %2, float %1) #26, !dbg !1995
  %3 = getelementptr inbounds %struct.v16float, %struct.v16float* %tmp, i32 0, i32 0, !dbg !1995
  %4 = extractvalue %struct.v16float %call, 0, !dbg !1995
  store %struct.ipd.custom_type.v64int8.v64int8 %4, %struct.ipd.custom_type.v64int8.v64int8* %3, align 32, !dbg !1995
  %5 = load %struct.v16float, %struct.v16float* %tmp, align 32, !dbg !1995, !tbaa !1660
  store %struct.v16float %5, %struct.v16float* %d, align 32, !dbg !1995, !tbaa !1660
  %6 = bitcast %struct.v16float* %tmp to i8*, !dbg !1995
  call addrspace(1) void @llvm.lifetime.end.p0i8(i64 64, i8* %6) #24, !dbg !1995
  ret void, !dbg !1997
}

; Function Attrs: alwaysinline nounwind mustprogress
define linkonce_odr dso_local %struct.v16float @_Z9shft_elem8v16floatf(%struct.v16float %a0.coerce, float %a1) addrspace(1) #9 comdat {
entry:
  %retval = alloca %struct.v16float, align 32
  %call = call x86_regcallcc addrspace(1) %struct.v16float @__regcall3__chessintr_v16float_shft_elem_v16float___ffloat(%struct.v16float %a0.coerce, float %a1) #30
  %0 = getelementptr inbounds %struct.v16float, %struct.v16float* %retval, i32 0, i32 0
  %1 = extractvalue %struct.v16float %call, 0
  store %struct.ipd.custom_type.v64int8.v64int8 %1, %struct.ipd.custom_type.v64int8.v64int8* %0, align 32
  %2 = load %struct.v16float, %struct.v16float* %retval, align 32
  ret %struct.v16float %2
}

; Function Attrs: nounwind readnone willreturn
declare dso_local x86_regcallcc %struct.v16float @__regcall3__chessintr_v16float_shft_elem_v16float___ffloat(%struct.v16float, float) addrspace(1) #13

; Function Attrs: alwaysinline nounwind mustprogress
define linkonce_odr dso_local %struct.v16float @_Z14undef_v16floatv() addrspace(1) #9 comdat {
entry:
  %retval = alloca %struct.v16float, align 32
  %call = call x86_regcallcc addrspace(1) %struct.v16float @__regcall3__chessintr_v16float_undef_v16float() #30
  %0 = getelementptr inbounds %struct.v16float, %struct.v16float* %retval, i32 0, i32 0
  %1 = extractvalue %struct.v16float %call, 0
  store %struct.ipd.custom_type.v64int8.v64int8 %1, %struct.ipd.custom_type.v64int8.v64int8* %0, align 32
  %2 = load %struct.v16float, %struct.v16float* %retval, align 32
  ret %struct.v16float %2
}

; Function Attrs: nounwind readnone willreturn
declare dso_local x86_regcallcc %struct.v16float @__regcall3__chessintr_v16float_undef_v16float() addrspace(1) #13

; Function Attrs: alwaysinline nounwind mustprogress
define linkonce_odr dso_local %struct.v8float @_ZN3aie6detail14vector_storageIfLj8EE5undefEv() addrspace(1) #9 comdat align 2 !dbg !1998 {
entry:
  %retval = alloca %struct.v8float, align 32
  %call = call addrspace(1) %struct.v8float @_Z13undef_v8floatv() #26, !dbg !1999
  %0 = getelementptr inbounds %struct.v8float, %struct.v8float* %retval, i32 0, i32 0, !dbg !1999
  %1 = extractvalue %struct.v8float %call, 0, !dbg !1999
  store %struct.ipd.custom_type.v32int8.v32int8 %1, %struct.ipd.custom_type.v32int8.v32int8* %0, align 32, !dbg !1999
  %2 = load %struct.v8float, %struct.v8float* %retval, align 32, !dbg !2000
  ret %struct.v8float %2, !dbg !2000
}

; Function Attrs: alwaysinline nounwind mustprogress
define linkonce_odr dso_local %struct.v8float @_Z13undef_v8floatv() addrspace(1) #9 comdat {
entry:
  %retval = alloca %struct.v8float, align 32
  %call = call x86_regcallcc addrspace(1) %struct.v8float @__regcall3__chessintr_v8float_undef_v8float() #30
  %0 = getelementptr inbounds %struct.v8float, %struct.v8float* %retval, i32 0, i32 0
  %1 = extractvalue %struct.v8float %call, 0
  store %struct.ipd.custom_type.v32int8.v32int8 %1, %struct.ipd.custom_type.v32int8.v32int8* %0, align 32
  %2 = load %struct.v8float, %struct.v8float* %retval, align 32
  ret %struct.v8float %2
}

; Function Attrs: nounwind readnone willreturn
declare dso_local x86_regcallcc %struct.v8float @__regcall3__chessintr_v8float_undef_v8float() addrspace(1) #13

; Function Attrs: inaccessiblememonly nounwind willreturn
declare i8* @llvm.noalias.decl.p0i8.p0p0s_struct.input_streams.i32(%struct.input_stream.2**, i32, metadata) addrspace(1) #5

; Function Attrs: inaccessiblememonly nounwind willreturn
declare i8* @llvm.noalias.decl.p0i8.p0p0s_struct.input_stream.2s.i32(%struct.input_stream.2**, i32, metadata) addrspace(1) #5

; Function Attrs: inaccessiblememonly nounwind willreturn
declare i8* @llvm.noalias.decl.p0i8.p0p0s_struct.output_streams.i32(%struct.output_stream.4**, i32, metadata) addrspace(1) #5

; Function Attrs: inaccessiblememonly nounwind willreturn
declare i8* @llvm.noalias.decl.p0i8.p0p0s_struct.output_stream.4s.i32(%struct.output_stream.4**, i32, metadata) addrspace(1) #5

; Function Attrs: argmemonly nounwind speculatable willreturn
declare %struct.input_stream.2* @llvm.noalias.p0s_struct.input_streams.p0i8.p0p0s_struct.input_streams.i32(%struct.input_stream.2*, i8*, %struct.input_stream.2**, i32, metadata) addrspace(1) #18

; Function Attrs: argmemonly nounwind speculatable willreturn
declare %struct.input_stream.2* @llvm.noalias.p0s_struct.input_stream.2s.p0i8.p0p0s_struct.input_stream.2s.i32(%struct.input_stream.2*, i8*, %struct.input_stream.2**, i32, metadata) addrspace(1) #18

; Function Attrs: inlinehint nounwind mustprogress
define linkonce_odr dso_local %"class.aie::detail::vector" @_Z5log2vN3aie6detail6vectorIfLj8EEE(%"class.aie::detail::vector" %x.coerce) addrspace(1) #19 comdat !dbg !2001 {
entry:
  %x = alloca %"class.aie::detail::vector", align 32
  %m = alloca %"class.aie::detail::vector.3", align 32
  %custom_type.tmp = alloca %"class.aie::detail::vector.3", align 32
  %agg.tmp = alloca %struct.v8int32, align 32
  %agg.tmp1 = alloca %struct.v8float, align 32
  %tmp = alloca %"class.aie::detail::vector.3", align 32
  %tmp4 = alloca %"class.aie::detail::vector.3", align 32
  %exp = alloca %"class.aie::detail::vector", align 32
  %sig_int = alloca %"class.aie::detail::vector.3", align 32
  %custom_type.tmp7 = alloca %"class.aie::detail::vector.3", align 32
  %agg.tmp8 = alloca %struct.v8int32, align 32
  %agg.tmp9 = alloca %struct.v8float, align 32
  %tmp12 = alloca %"class.aie::detail::vector.3", align 32
  %tmp14 = alloca %"class.aie::detail::vector.3", align 32
  %sig = alloca %"class.aie::detail::vector", align 32
  %custom_type.tmp16 = alloca %"class.aie::detail::vector", align 32
  %agg.tmp17 = alloca %struct.v8float, align 32
  %agg.tmp18 = alloca %struct.v8int32, align 32
  %y = alloca %"class.aie::detail::vector", align 32
  %custom_type.tmp21 = alloca %"class.aie::detail::vector", align 32
  %custom_type.tmp22 = alloca %"class.aie::detail::vector", align 32
  %agg.tmp23 = alloca %struct.v8float, align 32
  %agg.tmp24 = alloca %struct.v8float, align 32
  %agg.tmp26 = alloca %struct.v8float, align 32
  %agg.tmp28 = alloca %struct.v8float, align 32
  %custom_type.tmp31 = alloca %"class.aie::detail::vector", align 32
  %agg.tmp32 = alloca %struct.v8float, align 32
  %agg.tmp33 = alloca %struct.v8float, align 32
  %agg.tmp35 = alloca %struct.v8float, align 32
  %agg.tmp37 = alloca %struct.v8float, align 32
  %custom_type.tmp40 = alloca %"class.aie::detail::vector", align 32
  %agg.tmp41 = alloca %struct.v8float, align 32
  %agg.tmp42 = alloca %struct.v8float, align 32
  %agg.tmp44 = alloca %struct.v8float, align 32
  store %"class.aie::detail::vector" %x.coerce, %"class.aie::detail::vector"* %x, align 32
  call addrspace(1) void @llvm.dbg.declare(metadata %"class.aie::detail::vector"* %x, metadata !2005, metadata !DIExpression()), !dbg !2014
  store %"class.aie::detail::vector.3" undef, %"class.aie::detail::vector.3"* %m, align 32, !dbg !2015
  %0 = bitcast %"class.aie::detail::vector.3"* %m to i8*, !dbg !2015
  call addrspace(1) void @llvm.lifetime.start.p0i8(i64 32, i8* %0) #24, !dbg !2015
  call addrspace(1) void @llvm.dbg.declare(metadata %"class.aie::detail::vector.3"* %m, metadata !2006, metadata !DIExpression()), !dbg !2016
  %call = call addrspace(1) %struct.v8float @_ZNK3aie6detail6vectorIfLj8EEcv7v8floatEv(%"class.aie::detail::vector"* nonnull dereferenceable(32) %x) #26, !dbg !2017
  %1 = getelementptr inbounds %struct.v8float, %struct.v8float* %agg.tmp1, i32 0, i32 0, !dbg !2017
  %2 = extractvalue %struct.v8float %call, 0, !dbg !2017
  store %struct.ipd.custom_type.v32int8.v32int8 %2, %struct.ipd.custom_type.v32int8.v32int8* %1, align 32, !dbg !2017
  %3 = load %struct.v8float, %struct.v8float* %agg.tmp1, align 32, !dbg !2018, !tbaa !1652
  %call2 = call addrspace(1) %struct.v8int32 @_Z10as_v8int327v8float(%struct.v8float %3) #26, !dbg !2018
  %4 = getelementptr inbounds %struct.v8int32, %struct.v8int32* %agg.tmp, i32 0, i32 0, !dbg !2018
  %5 = extractvalue %struct.v8int32 %call2, 0, !dbg !2018
  store %struct.ipd.custom_type.v32int8.v32int8 %5, %struct.ipd.custom_type.v32int8.v32int8* %4, align 32, !dbg !2018
  %6 = load %struct.v8int32, %struct.v8int32* %agg.tmp, align 32, !dbg !2018, !tbaa !1652
  call addrspace(1) void @_ZN3aie6detail6vectorIiLj8EEC2E7v8int32(%"class.aie::detail::vector.3"* nonnull dereferenceable(32) %custom_type.tmp, %struct.v8int32 %6) #26, !dbg !2018
  %7 = load %"class.aie::detail::vector.3", %"class.aie::detail::vector.3"* %custom_type.tmp, align 32, !dbg !2018, !tbaa !2019
  store %"class.aie::detail::vector.3" %7, %"class.aie::detail::vector.3"* %m, align 32, !dbg !2018, !tbaa !2019
  %8 = bitcast %"class.aie::detail::vector.3"* %tmp to i8*, !dbg !2021
  call addrspace(1) void @llvm.lifetime.start.p0i8(i64 32, i8* %8) #24, !dbg !2021
  %call3 = call addrspace(1) %"class.aie::detail::vector.3" @_ZN3aie9downshiftINS_6detail6vectorIiLj8EEEEEN22aie_dm_resource_removeIT_E4typeERKS5_j(%"class.aie::detail::vector.3"* nonnull align 32 dereferenceable(32) %m, i32 23) #26, !dbg !2021
  %9 = getelementptr inbounds %"class.aie::detail::vector.3", %"class.aie::detail::vector.3"* %tmp, i32 0, i32 0, !dbg !2021
  %10 = extractvalue %"class.aie::detail::vector.3" %call3, 0, !dbg !2021
  store %struct.v8int32 %10, %struct.v8int32* %9, align 32, !dbg !2021
  %11 = load %"class.aie::detail::vector.3", %"class.aie::detail::vector.3"* %tmp, align 32, !dbg !2021, !tbaa !2019
  store %"class.aie::detail::vector.3" %11, %"class.aie::detail::vector.3"* %m, align 32, !dbg !2021, !tbaa !2019
  %12 = bitcast %"class.aie::detail::vector.3"* %tmp to i8*, !dbg !2021
  call addrspace(1) void @llvm.lifetime.end.p0i8(i64 32, i8* %12) #24, !dbg !2021
  %13 = bitcast %"class.aie::detail::vector.3"* %tmp4 to i8*, !dbg !2022
  call addrspace(1) void @llvm.lifetime.start.p0i8(i64 32, i8* %13) #24, !dbg !2022
  %call5 = call addrspace(1) %"class.aie::detail::vector.3" @_ZN3aie3subINS_6detail6vectorIiLj8EEEiEEN22aie_dm_resource_removeIT_E4typeERKS5_T0_(%"class.aie::detail::vector.3"* nonnull align 32 dereferenceable(32) %m, i32 127) #26, !dbg !2022
  %14 = getelementptr inbounds %"class.aie::detail::vector.3", %"class.aie::detail::vector.3"* %tmp4, i32 0, i32 0, !dbg !2022
  %15 = extractvalue %"class.aie::detail::vector.3" %call5, 0, !dbg !2022
  store %struct.v8int32 %15, %struct.v8int32* %14, align 32, !dbg !2022
  %16 = load %"class.aie::detail::vector.3", %"class.aie::detail::vector.3"* %tmp4, align 32, !dbg !2022, !tbaa !2019
  store %"class.aie::detail::vector.3" %16, %"class.aie::detail::vector.3"* %m, align 32, !dbg !2022, !tbaa !2019
  %17 = bitcast %"class.aie::detail::vector.3"* %tmp4 to i8*, !dbg !2022
  call addrspace(1) void @llvm.lifetime.end.p0i8(i64 32, i8* %17) #24, !dbg !2022
  store %"class.aie::detail::vector" undef, %"class.aie::detail::vector"* %exp, align 32, !dbg !2023
  %18 = bitcast %"class.aie::detail::vector"* %exp to i8*, !dbg !2023
  call addrspace(1) void @llvm.lifetime.start.p0i8(i64 32, i8* %18) #24, !dbg !2023
  call addrspace(1) void @llvm.dbg.declare(metadata %"class.aie::detail::vector"* %exp, metadata !2008, metadata !DIExpression()), !dbg !2024
  %call6 = call addrspace(1) %"class.aie::detail::vector" @_ZN3aie8to_floatIiLj8EEEDaRKNS_6detail6vectorIT_XT0_EEEi(%"class.aie::detail::vector.3"* nonnull align 32 dereferenceable(32) %m, i32 0) #26, !dbg !2025
  %19 = getelementptr inbounds %"class.aie::detail::vector", %"class.aie::detail::vector"* %exp, i32 0, i32 0, !dbg !2025
  %20 = extractvalue %"class.aie::detail::vector" %call6, 0, !dbg !2025
  store %struct.v8float %20, %struct.v8float* %19, align 32, !dbg !2025
  store %"class.aie::detail::vector.3" undef, %"class.aie::detail::vector.3"* %sig_int, align 32, !dbg !2026
  %21 = bitcast %"class.aie::detail::vector.3"* %sig_int to i8*, !dbg !2026
  call addrspace(1) void @llvm.lifetime.start.p0i8(i64 32, i8* %21) #24, !dbg !2026
  call addrspace(1) void @llvm.dbg.declare(metadata %"class.aie::detail::vector.3"* %sig_int, metadata !2009, metadata !DIExpression()), !dbg !2027
  %call10 = call addrspace(1) %struct.v8float @_ZNK3aie6detail6vectorIfLj8EEcv7v8floatEv(%"class.aie::detail::vector"* nonnull dereferenceable(32) %x) #26, !dbg !2028
  %22 = getelementptr inbounds %struct.v8float, %struct.v8float* %agg.tmp9, i32 0, i32 0, !dbg !2028
  %23 = extractvalue %struct.v8float %call10, 0, !dbg !2028
  store %struct.ipd.custom_type.v32int8.v32int8 %23, %struct.ipd.custom_type.v32int8.v32int8* %22, align 32, !dbg !2028
  %24 = load %struct.v8float, %struct.v8float* %agg.tmp9, align 32, !dbg !2029, !tbaa !1652
  %call11 = call addrspace(1) %struct.v8int32 @_Z10as_v8int327v8float(%struct.v8float %24) #26, !dbg !2029
  %25 = getelementptr inbounds %struct.v8int32, %struct.v8int32* %agg.tmp8, i32 0, i32 0, !dbg !2029
  %26 = extractvalue %struct.v8int32 %call11, 0, !dbg !2029
  store %struct.ipd.custom_type.v32int8.v32int8 %26, %struct.ipd.custom_type.v32int8.v32int8* %25, align 32, !dbg !2029
  %27 = load %struct.v8int32, %struct.v8int32* %agg.tmp8, align 32, !dbg !2029, !tbaa !1652
  call addrspace(1) void @_ZN3aie6detail6vectorIiLj8EEC2E7v8int32(%"class.aie::detail::vector.3"* nonnull dereferenceable(32) %custom_type.tmp7, %struct.v8int32 %27) #26, !dbg !2029
  %28 = load %"class.aie::detail::vector.3", %"class.aie::detail::vector.3"* %custom_type.tmp7, align 32, !dbg !2029, !tbaa !2019
  store %"class.aie::detail::vector.3" %28, %"class.aie::detail::vector.3"* %sig_int, align 32, !dbg !2029, !tbaa !2019
  %29 = bitcast %"class.aie::detail::vector.3"* %tmp12 to i8*, !dbg !2030
  call addrspace(1) void @llvm.lifetime.start.p0i8(i64 32, i8* %29) #24, !dbg !2030
  %call13 = call addrspace(1) %"class.aie::detail::vector.3" @_ZN3aie7bit_andIiNS_6detail6vectorIiLj8EEEEEN22aie_dm_resource_removeIT0_E4typeET_RKS5_(i32 8388607, %"class.aie::detail::vector.3"* nonnull align 32 dereferenceable(32) %sig_int) #26, !dbg !2030
  %30 = getelementptr inbounds %"class.aie::detail::vector.3", %"class.aie::detail::vector.3"* %tmp12, i32 0, i32 0, !dbg !2030
  %31 = extractvalue %"class.aie::detail::vector.3" %call13, 0, !dbg !2030
  store %struct.v8int32 %31, %struct.v8int32* %30, align 32, !dbg !2030
  %32 = load %"class.aie::detail::vector.3", %"class.aie::detail::vector.3"* %tmp12, align 32, !dbg !2030, !tbaa !2019
  store %"class.aie::detail::vector.3" %32, %"class.aie::detail::vector.3"* %sig_int, align 32, !dbg !2030, !tbaa !2019
  %33 = bitcast %"class.aie::detail::vector.3"* %tmp12 to i8*, !dbg !2030
  call addrspace(1) void @llvm.lifetime.end.p0i8(i64 32, i8* %33) #24, !dbg !2030
  %34 = bitcast %"class.aie::detail::vector.3"* %tmp14 to i8*, !dbg !2031
  call addrspace(1) void @llvm.lifetime.start.p0i8(i64 32, i8* %34) #24, !dbg !2031
  %call15 = call addrspace(1) %"class.aie::detail::vector.3" @_ZN3aie6bit_orIiNS_6detail6vectorIiLj8EEEEEN22aie_dm_resource_removeIT0_E4typeET_RKS5_(i32 1065353216, %"class.aie::detail::vector.3"* nonnull align 32 dereferenceable(32) %sig_int) #26, !dbg !2031
  %35 = getelementptr inbounds %"class.aie::detail::vector.3", %"class.aie::detail::vector.3"* %tmp14, i32 0, i32 0, !dbg !2031
  %36 = extractvalue %"class.aie::detail::vector.3" %call15, 0, !dbg !2031
  store %struct.v8int32 %36, %struct.v8int32* %35, align 32, !dbg !2031
  %37 = load %"class.aie::detail::vector.3", %"class.aie::detail::vector.3"* %tmp14, align 32, !dbg !2031, !tbaa !2019
  store %"class.aie::detail::vector.3" %37, %"class.aie::detail::vector.3"* %sig_int, align 32, !dbg !2031, !tbaa !2019
  %38 = bitcast %"class.aie::detail::vector.3"* %tmp14 to i8*, !dbg !2031
  call addrspace(1) void @llvm.lifetime.end.p0i8(i64 32, i8* %38) #24, !dbg !2031
  store %"class.aie::detail::vector" undef, %"class.aie::detail::vector"* %sig, align 32, !dbg !2032
  %39 = bitcast %"class.aie::detail::vector"* %sig to i8*, !dbg !2032
  call addrspace(1) void @llvm.lifetime.start.p0i8(i64 32, i8* %39) #24, !dbg !2032
  call addrspace(1) void @llvm.dbg.declare(metadata %"class.aie::detail::vector"* %sig, metadata !2010, metadata !DIExpression()), !dbg !2033
  %call19 = call addrspace(1) %struct.v8int32 @_ZNK3aie6detail6vectorIiLj8EEcv7v8int32Ev(%"class.aie::detail::vector.3"* nonnull dereferenceable(32) %sig_int) #26, !dbg !2034
  %40 = getelementptr inbounds %struct.v8int32, %struct.v8int32* %agg.tmp18, i32 0, i32 0, !dbg !2034
  %41 = extractvalue %struct.v8int32 %call19, 0, !dbg !2034
  store %struct.ipd.custom_type.v32int8.v32int8 %41, %struct.ipd.custom_type.v32int8.v32int8* %40, align 32, !dbg !2034
  %42 = load %struct.v8int32, %struct.v8int32* %agg.tmp18, align 32, !dbg !2035, !tbaa !1652
  %call20 = call addrspace(1) %struct.v8float @_Z10as_v8float7v8int32(%struct.v8int32 %42) #26, !dbg !2035
  %43 = getelementptr inbounds %struct.v8float, %struct.v8float* %agg.tmp17, i32 0, i32 0, !dbg !2035
  %44 = extractvalue %struct.v8float %call20, 0, !dbg !2035
  store %struct.ipd.custom_type.v32int8.v32int8 %44, %struct.ipd.custom_type.v32int8.v32int8* %43, align 32, !dbg !2035
  %45 = load %struct.v8float, %struct.v8float* %agg.tmp17, align 32, !dbg !2035, !tbaa !1652
  call addrspace(1) void @_ZN3aie6detail6vectorIfLj8EEC2E7v8float(%"class.aie::detail::vector"* nonnull dereferenceable(32) %custom_type.tmp16, %struct.v8float %45) #26, !dbg !2035
  %46 = load %"class.aie::detail::vector", %"class.aie::detail::vector"* %custom_type.tmp16, align 32, !dbg !2035, !tbaa !1235
  store %"class.aie::detail::vector" %46, %"class.aie::detail::vector"* %sig, align 32, !dbg !2035, !tbaa !1235
  store %"class.aie::detail::vector" undef, %"class.aie::detail::vector"* %y, align 32, !dbg !2036
  %47 = bitcast %"class.aie::detail::vector"* %y to i8*, !dbg !2036
  call addrspace(1) void @llvm.lifetime.start.p0i8(i64 32, i8* %47) #24, !dbg !2036
  call addrspace(1) void @llvm.dbg.declare(metadata %"class.aie::detail::vector"* %y, metadata !2011, metadata !DIExpression()), !dbg !2037
  call addrspace(1) void @_ZN3aie6detail6vectorIfLj8EEC2Ev(%"class.aie::detail::vector"* nonnull dereferenceable(32) %custom_type.tmp21) #26, !dbg !2037
  %48 = load %"class.aie::detail::vector", %"class.aie::detail::vector"* %custom_type.tmp21, align 32, !dbg !2037, !tbaa !1235
  store %"class.aie::detail::vector" %48, %"class.aie::detail::vector"* %y, align 32, !dbg !2037, !tbaa !1235
  %call25 = call addrspace(1) %struct.v8float @_ZNK3aie6detail6vectorIfLj8EEcv7v8floatEv(%"class.aie::detail::vector"* nonnull dereferenceable(32) getelementptr inbounds ([7 x %"class.aie::detail::vector"], [7 x %"class.aie::detail::vector"]* @_ZL1c, i32 0, i32 5)) #26, !dbg !2038
  %49 = getelementptr inbounds %struct.v8float, %struct.v8float* %agg.tmp24, i32 0, i32 0, !dbg !2038
  %50 = extractvalue %struct.v8float %call25, 0, !dbg !2038
  store %struct.ipd.custom_type.v32int8.v32int8 %50, %struct.ipd.custom_type.v32int8.v32int8* %49, align 32, !dbg !2038
  %call27 = call addrspace(1) %struct.v8float @_ZNK3aie6detail6vectorIfLj8EEcv7v8floatEv(%"class.aie::detail::vector"* nonnull dereferenceable(32) %sig) #26, !dbg !2039
  %51 = getelementptr inbounds %struct.v8float, %struct.v8float* %agg.tmp26, i32 0, i32 0, !dbg !2039
  %52 = extractvalue %struct.v8float %call27, 0, !dbg !2039
  store %struct.ipd.custom_type.v32int8.v32int8 %52, %struct.ipd.custom_type.v32int8.v32int8* %51, align 32, !dbg !2039
  %call29 = call addrspace(1) %struct.v8float @_ZNK3aie6detail6vectorIfLj8EEcv7v8floatEv(%"class.aie::detail::vector"* nonnull dereferenceable(32) getelementptr inbounds ([7 x %"class.aie::detail::vector"], [7 x %"class.aie::detail::vector"]* @_ZL1c, i32 0, i32 6)) #26, !dbg !2040
  %53 = getelementptr inbounds %struct.v8float, %struct.v8float* %agg.tmp28, i32 0, i32 0, !dbg !2040
  %54 = extractvalue %struct.v8float %call29, 0, !dbg !2040
  store %struct.ipd.custom_type.v32int8.v32int8 %54, %struct.ipd.custom_type.v32int8.v32int8* %53, align 32, !dbg !2040
  %55 = load %struct.v8float, %struct.v8float* %agg.tmp24, align 32, !dbg !2041, !tbaa !1652
  %56 = load %struct.v8float, %struct.v8float* %agg.tmp26, align 32, !dbg !2041, !tbaa !1652
  %57 = load %struct.v8float, %struct.v8float* %agg.tmp28, align 32, !dbg !2041, !tbaa !1652
  %call30 = call addrspace(1) %struct.v8float @_Z5fpmac7v8floatS_S_(%struct.v8float %55, %struct.v8float %56, %struct.v8float %57) #26, !dbg !2041
  %58 = getelementptr inbounds %struct.v8float, %struct.v8float* %agg.tmp23, i32 0, i32 0, !dbg !2041
  %59 = extractvalue %struct.v8float %call30, 0, !dbg !2041
  store %struct.ipd.custom_type.v32int8.v32int8 %59, %struct.ipd.custom_type.v32int8.v32int8* %58, align 32, !dbg !2041
  %60 = load %struct.v8float, %struct.v8float* %agg.tmp23, align 32, !dbg !2041, !tbaa !1652
  call addrspace(1) void @_ZN3aie6detail6vectorIfLj8EEC2E7v8float(%"class.aie::detail::vector"* nonnull dereferenceable(32) %custom_type.tmp22, %struct.v8float %60) #26, !dbg !2041
  %61 = load %"class.aie::detail::vector", %"class.aie::detail::vector"* %custom_type.tmp22, align 32, !dbg !2041, !tbaa !1235
  store %"class.aie::detail::vector" %61, %"class.aie::detail::vector"* %y, align 32, !dbg !2041, !tbaa !1235
  call addrspace(1) void @llvm.dbg.value(metadata i32 undef, metadata !2012, metadata !DIExpression()), !dbg !2042
  call addrspace(1) void @llvm.dbg.value(metadata i32 4, metadata !2012, metadata !DIExpression()), !dbg !2042
  br label %for.body, !dbg !2043

for.body:                                         ; preds = %for.body, %entry
  %i.01 = phi i32 [ 4, %entry ], [ %dec, %for.body ]
  call addrspace(1) void @llvm.dbg.value(metadata i32 %i.01, metadata !2012, metadata !DIExpression()), !dbg !2042
  %arrayidx = getelementptr inbounds [7 x %"class.aie::detail::vector"], [7 x %"class.aie::detail::vector"]* @_ZL1c, i32 0, i32 %i.01, !dbg !2044
  %call34 = call addrspace(1) %struct.v8float @_ZNK3aie6detail6vectorIfLj8EEcv7v8floatEv(%"class.aie::detail::vector"* nonnull dereferenceable(32) %arrayidx) #26, !dbg !2044
  %62 = getelementptr inbounds %struct.v8float, %struct.v8float* %agg.tmp33, i32 0, i32 0, !dbg !2044
  %63 = extractvalue %struct.v8float %call34, 0, !dbg !2044
  store %struct.ipd.custom_type.v32int8.v32int8 %63, %struct.ipd.custom_type.v32int8.v32int8* %62, align 32, !dbg !2044
  %call36 = call addrspace(1) %struct.v8float @_ZNK3aie6detail6vectorIfLj8EEcv7v8floatEv(%"class.aie::detail::vector"* nonnull dereferenceable(32) %sig) #26, !dbg !2047
  %64 = getelementptr inbounds %struct.v8float, %struct.v8float* %agg.tmp35, i32 0, i32 0, !dbg !2047
  %65 = extractvalue %struct.v8float %call36, 0, !dbg !2047
  store %struct.ipd.custom_type.v32int8.v32int8 %65, %struct.ipd.custom_type.v32int8.v32int8* %64, align 32, !dbg !2047
  %call38 = call addrspace(1) %struct.v8float @_ZNK3aie6detail6vectorIfLj8EEcv7v8floatEv(%"class.aie::detail::vector"* nonnull dereferenceable(32) %y) #26, !dbg !2048
  %66 = getelementptr inbounds %struct.v8float, %struct.v8float* %agg.tmp37, i32 0, i32 0, !dbg !2048
  %67 = extractvalue %struct.v8float %call38, 0, !dbg !2048
  store %struct.ipd.custom_type.v32int8.v32int8 %67, %struct.ipd.custom_type.v32int8.v32int8* %66, align 32, !dbg !2048
  %68 = load %struct.v8float, %struct.v8float* %agg.tmp33, align 32, !dbg !2049, !tbaa !1652
  %69 = load %struct.v8float, %struct.v8float* %agg.tmp35, align 32, !dbg !2049, !tbaa !1652
  %70 = load %struct.v8float, %struct.v8float* %agg.tmp37, align 32, !dbg !2049, !tbaa !1652
  %call39 = call addrspace(1) %struct.v8float @_Z5fpmac7v8floatS_S_(%struct.v8float %68, %struct.v8float %69, %struct.v8float %70) #26, !dbg !2049
  %71 = getelementptr inbounds %struct.v8float, %struct.v8float* %agg.tmp32, i32 0, i32 0, !dbg !2049
  %72 = extractvalue %struct.v8float %call39, 0, !dbg !2049
  store %struct.ipd.custom_type.v32int8.v32int8 %72, %struct.ipd.custom_type.v32int8.v32int8* %71, align 32, !dbg !2049
  %73 = load %struct.v8float, %struct.v8float* %agg.tmp32, align 32, !dbg !2049, !tbaa !1652
  call addrspace(1) void @_ZN3aie6detail6vectorIfLj8EEC2E7v8float(%"class.aie::detail::vector"* nonnull dereferenceable(32) %custom_type.tmp31, %struct.v8float %73) #26, !dbg !2049
  %74 = load %"class.aie::detail::vector", %"class.aie::detail::vector"* %custom_type.tmp31, align 32, !dbg !2049, !tbaa !1235
  store %"class.aie::detail::vector" %74, %"class.aie::detail::vector"* %y, align 32, !dbg !2049, !tbaa !1235
  %dec = add nsw i32 %i.01, -1, !dbg !2050
  call addrspace(1) void @llvm.dbg.value(metadata i32 %dec, metadata !2012, metadata !DIExpression()), !dbg !2042
  %cmp = icmp sge i32 %dec, 0, !dbg !2051
  br i1 %cmp, label %for.body, label %for.end, !dbg !2043, !llvm.loop !2052

for.end:                                          ; preds = %for.body
  %call43 = call addrspace(1) %struct.v8float @_ZNK3aie6detail6vectorIfLj8EEcv7v8floatEv(%"class.aie::detail::vector"* nonnull dereferenceable(32) %exp) #26, !dbg !2058
  %75 = getelementptr inbounds %struct.v8float, %struct.v8float* %agg.tmp42, i32 0, i32 0, !dbg !2058
  %76 = extractvalue %struct.v8float %call43, 0, !dbg !2058
  store %struct.ipd.custom_type.v32int8.v32int8 %76, %struct.ipd.custom_type.v32int8.v32int8* %75, align 32, !dbg !2058
  %call45 = call addrspace(1) %struct.v8float @_ZNK3aie6detail6vectorIfLj8EEcv7v8floatEv(%"class.aie::detail::vector"* nonnull dereferenceable(32) %y) #26, !dbg !2059
  %77 = getelementptr inbounds %struct.v8float, %struct.v8float* %agg.tmp44, i32 0, i32 0, !dbg !2059
  %78 = extractvalue %struct.v8float %call45, 0, !dbg !2059
  store %struct.ipd.custom_type.v32int8.v32int8 %78, %struct.ipd.custom_type.v32int8.v32int8* %77, align 32, !dbg !2059
  %79 = load %struct.v8float, %struct.v8float* %agg.tmp42, align 32, !dbg !2060, !tbaa !1652
  %80 = load %struct.v8float, %struct.v8float* %agg.tmp44, align 32, !dbg !2060, !tbaa !1652
  %call46 = call addrspace(1) %struct.v8float @_Z5fpadd7v8floatS_(%struct.v8float %79, %struct.v8float %80) #26, !dbg !2060
  %81 = getelementptr inbounds %struct.v8float, %struct.v8float* %agg.tmp41, i32 0, i32 0, !dbg !2060
  %82 = extractvalue %struct.v8float %call46, 0, !dbg !2060
  store %struct.ipd.custom_type.v32int8.v32int8 %82, %struct.ipd.custom_type.v32int8.v32int8* %81, align 32, !dbg !2060
  %83 = load %struct.v8float, %struct.v8float* %agg.tmp41, align 32, !dbg !2060, !tbaa !1652
  call addrspace(1) void @_ZN3aie6detail6vectorIfLj8EEC2E7v8float(%"class.aie::detail::vector"* nonnull dereferenceable(32) %custom_type.tmp40, %struct.v8float %83) #26, !dbg !2060
  %84 = load %"class.aie::detail::vector", %"class.aie::detail::vector"* %custom_type.tmp40, align 32, !dbg !2060, !tbaa !1235
  %85 = bitcast %"class.aie::detail::vector"* %y to i8*, !dbg !2061
  call addrspace(1) void @llvm.lifetime.end.p0i8(i64 32, i8* %85) #24, !dbg !2061
  %86 = bitcast %"class.aie::detail::vector"* %sig to i8*, !dbg !2061
  call addrspace(1) void @llvm.lifetime.end.p0i8(i64 32, i8* %86) #24, !dbg !2061
  %87 = bitcast %"class.aie::detail::vector.3"* %sig_int to i8*, !dbg !2061
  call addrspace(1) void @llvm.lifetime.end.p0i8(i64 32, i8* %87) #24, !dbg !2061
  %88 = bitcast %"class.aie::detail::vector"* %exp to i8*, !dbg !2061
  call addrspace(1) void @llvm.lifetime.end.p0i8(i64 32, i8* %88) #24, !dbg !2061
  %89 = bitcast %"class.aie::detail::vector.3"* %m to i8*, !dbg !2061
  call addrspace(1) void @llvm.lifetime.end.p0i8(i64 32, i8* %89) #24, !dbg !2061
  ret %"class.aie::detail::vector" %84, !dbg !2060
}

; Function Attrs: argmemonly nounwind speculatable willreturn
declare %struct.output_stream.4* @llvm.noalias.p0s_struct.output_streams.p0i8.p0p0s_struct.output_streams.i32(%struct.output_stream.4*, i8*, %struct.output_stream.4**, i32, metadata) addrspace(1) #18

; Function Attrs: argmemonly nounwind speculatable willreturn
declare %struct.output_stream.4* @llvm.noalias.p0s_struct.output_stream.4s.p0i8.p0p0s_struct.output_stream.4s.i32(%struct.output_stream.4*, i8*, %struct.output_stream.4**, i32, metadata) addrspace(1) #18

; Function Attrs: alwaysinline nounwind mustprogress
define linkonce_odr dso_local %"class.aie::detail::vector.15" @_ZNK3aie6detail6vectorIfLj8EE7extractILj4EEENS1_IfXT_EEEj(%"class.aie::detail::vector"* nonnull dereferenceable(32) %this, i32 %idx) addrspace(1) #9 comdat align 2 !dbg !2062 {
entry:
  %retval = alloca %"class.aie::detail::vector.15", align 16
  %custom_type.tmp = alloca %"class.aie::detail::vector.15", align 16
  %tmp = alloca %struct.v4float, align 16
  %tmp8 = alloca %"class.aie::detail::vector.10", align 32
  %custom_type.tmp9 = alloca %"class.aie::detail::vector.10", align 32
  %agg.tmp = alloca %struct.v8cint32, align 32
  %agg.tmp10 = alloca %struct.v8cint32, align 32
  %ref.tmp = alloca %"class.aie::detail::vector.10", align 32
  %ref.tmp11 = alloca %"class.aie::detail::vector.19", align 32
  %custom_type.tmp16 = alloca %"class.aie::detail::vector.15", align 16
  %agg.tmp17 = alloca %struct.v4float, align 16
  %ref.tmp18 = alloca %struct.v2cint32, align 16
  %agg.tmp19 = alloca %struct.v8cint32, align 32
  call addrspace(1) void @llvm.dbg.value(metadata %"class.aie::detail::vector"* %this, metadata !2141, metadata !DIExpression()), !dbg !2157
  call addrspace(1) void @llvm.dbg.value(metadata i32 %idx, metadata !2143, metadata !DIExpression()), !dbg !2157
  %cmp = icmp ult i32 %idx, 2, !dbg !2158
  %0 = call addrspace(1) i1 @llvm.is.constant.i1(i1 %cmp), !dbg !2158
  br i1 %0, label %do.body, label %if.end4, !dbg !2160

do.body:                                          ; preds = %entry
  %cmp2 = icmp ult i32 %idx, 2, !dbg !2161
  %1 = call addrspace(1) i1 @llvm.chess_manifest(i1 %cmp2), !dbg !2161
  br i1 %1, label %if.end4, label %if.then3, !dbg !2165

if.then3:                                         ; preds = %do.body
  call addrspace(1) void @llvm.chess_error(metadata !1640), !dbg !2161
  unreachable, !dbg !2161

if.end4:                                          ; preds = %do.body, %entry
  %cmp5 = icmp ult i32 %idx, 2, !dbg !2160
  call addrspace(1) void @llvm.assume(i1 %cmp5), !dbg !2160
  call addrspace(1) void @llvm.dbg.value(metadata i32 undef, metadata !2144, metadata !DIExpression()), !dbg !2157
  call addrspace(1) void @llvm.dbg.value(metadata i32 128, metadata !2144, metadata !DIExpression()), !dbg !2157
  call addrspace(1) void @llvm.dbg.declare(metadata %"class.aie::detail::vector.15"* %retval, metadata !2145, metadata !DIExpression()), !dbg !2166
  call addrspace(1) void @_ZN3aie6detail6vectorIfLj4EEC2Ev(%"class.aie::detail::vector.15"* nonnull dereferenceable(16) %custom_type.tmp) #26, !dbg !2166
  %2 = load %"class.aie::detail::vector.15", %"class.aie::detail::vector.15"* %custom_type.tmp, align 16, !dbg !2166, !tbaa !2167
  store %"class.aie::detail::vector.15" %2, %"class.aie::detail::vector.15"* %retval, align 16, !dbg !2166, !tbaa !2167
  %3 = call addrspace(1) i1 @llvm.is.constant.i32(i32 %idx), !dbg !2170
  br i1 %3, label %if.then6, label %if.else, !dbg !2171

if.then6:                                         ; preds = %if.end4
  %data = getelementptr inbounds %"class.aie::detail::vector.15", %"class.aie::detail::vector.15"* %retval, i32 0, i32 0, !dbg !2172
  %4 = bitcast %struct.v4float* %tmp to i8*, !dbg !2178
  call addrspace(1) void @llvm.lifetime.start.p0i8(i64 16, i8* %4) #24, !dbg !2178
  %data7 = getelementptr inbounds %"class.aie::detail::vector", %"class.aie::detail::vector"* %this, i32 0, i32 0, !dbg !2179
  %5 = load %struct.v8float, %struct.v8float* %data7, align 32, !dbg !2178, !tbaa !2180
  %call = call addrspace(1) %struct.v4float @_Z5ext_v7v8floati(%struct.v8float %5, i32 %idx) #28, !dbg !2178
  %6 = getelementptr inbounds %struct.v4float, %struct.v4float* %tmp, i32 0, i32 0, !dbg !2178
  %7 = extractvalue %struct.v4float %call, 0, !dbg !2178
  store %struct.ipd.custom_type.v16int8.v16int8 %7, %struct.ipd.custom_type.v16int8.v16int8* %6, align 16, !dbg !2178
  %8 = load %struct.v4float, %struct.v4float* %tmp, align 16, !dbg !2178, !tbaa !2181
  store %struct.v4float %8, %struct.v4float* %data, align 16, !dbg !2178, !tbaa !2181
  %9 = bitcast %struct.v4float* %tmp to i8*, !dbg !2178
  call addrspace(1) void @llvm.lifetime.end.p0i8(i64 16, i8* %9) #24, !dbg !2178
  br label %cleanup, !dbg !2182

if.else:                                          ; preds = %if.end4
  call addrspace(1) void @llvm.dbg.value(metadata i32 undef, metadata !2148, metadata !DIExpression()), !dbg !2183
  call addrspace(1) void @llvm.dbg.value(metadata i32 2, metadata !2148, metadata !DIExpression()), !dbg !2183
  call addrspace(1) void @llvm.dbg.value(metadata i32 undef, metadata !2151, metadata !DIExpression()), !dbg !2184
  call addrspace(1) void @llvm.dbg.value(metadata i32 8, metadata !2151, metadata !DIExpression()), !dbg !2184
  store %"class.aie::detail::vector.10" undef, %"class.aie::detail::vector.10"* %tmp8, align 32, !dbg !2185
  %10 = bitcast %"class.aie::detail::vector.10"* %tmp8 to i8*, !dbg !2185
  call addrspace(1) void @llvm.lifetime.start.p0i8(i64 64, i8* %10) #24, !dbg !2185
  call addrspace(1) void @llvm.dbg.declare(metadata %"class.aie::detail::vector.10"* %tmp8, metadata !2156, metadata !DIExpression()), !dbg !2186
  %11 = bitcast %"class.aie::detail::vector.10"* %ref.tmp to i8*, !dbg !2187
  call addrspace(1) void @llvm.lifetime.start.p0i8(i64 64, i8* %11) #24, !dbg !2187
  %12 = bitcast %"class.aie::detail::vector.19"* %ref.tmp11 to i8*, !dbg !2187
  call addrspace(1) void @llvm.lifetime.start.p0i8(i64 32, i8* %12) #24, !dbg !2187
  %call12 = call addrspace(1) %"class.aie::detail::vector.19" @_ZNK3aie6detail6vectorIfLj8EE7cast_toI6cint32EEDav(%"class.aie::detail::vector"* nonnull dereferenceable(32) %this) #26, !dbg !2187
  %13 = getelementptr inbounds %"class.aie::detail::vector.19", %"class.aie::detail::vector.19"* %ref.tmp11, i32 0, i32 0, !dbg !2187
  %14 = extractvalue %"class.aie::detail::vector.19" %call12, 0, !dbg !2187
  store %struct.v4cint32 %14, %struct.v4cint32* %13, align 32, !dbg !2187
  %call13 = call addrspace(1) %"class.aie::detail::vector.10" @_ZNK3aie6detail6vectorI6cint32Lj4EE4growILj8EEENS1_IS2_XT_EEEj(%"class.aie::detail::vector.19"* nonnull dereferenceable(32) %ref.tmp11, i32 0) #26, !dbg !2188
  %15 = getelementptr inbounds %"class.aie::detail::vector.10", %"class.aie::detail::vector.10"* %ref.tmp, i32 0, i32 0, !dbg !2188
  %16 = extractvalue %"class.aie::detail::vector.10" %call13, 0, !dbg !2188
  store %struct.v8cint32 %16, %struct.v8cint32* %15, align 32, !dbg !2188
  %call14 = call addrspace(1) %struct.v8cint32 @_ZNK3aie6detail6vectorI6cint32Lj8EEcv8v8cint32Ev(%"class.aie::detail::vector.10"* nonnull dereferenceable(64) %ref.tmp) #26, !dbg !2187
  %17 = getelementptr inbounds %struct.v8cint32, %struct.v8cint32* %agg.tmp10, i32 0, i32 0, !dbg !2187
  %18 = extractvalue %struct.v8cint32 %call14, 0, !dbg !2187
  store %struct.ipd.custom_type.v64int8.v64int8 %18, %struct.ipd.custom_type.v64int8.v64int8* %17, align 32, !dbg !2187
  %mul = mul i32 %idx, 2, !dbg !2189
  %19 = load %struct.v8cint32, %struct.v8cint32* %agg.tmp10, align 32, !dbg !2190, !tbaa !1660
  %call15 = call addrspace(1) %struct.v8cint32 @_Z8shuffle88v8cint32ij(%struct.v8cint32 %19, i32 %mul, i32 16) #26, !dbg !2190
  %20 = getelementptr inbounds %struct.v8cint32, %struct.v8cint32* %agg.tmp, i32 0, i32 0, !dbg !2190
  %21 = extractvalue %struct.v8cint32 %call15, 0, !dbg !2190
  store %struct.ipd.custom_type.v64int8.v64int8 %21, %struct.ipd.custom_type.v64int8.v64int8* %20, align 32, !dbg !2190
  %22 = load %struct.v8cint32, %struct.v8cint32* %agg.tmp, align 32, !dbg !2190, !tbaa !1660
  call addrspace(1) void @_ZN3aie6detail6vectorI6cint32Lj8EEC2E8v8cint32(%"class.aie::detail::vector.10"* nonnull dereferenceable(64) %custom_type.tmp9, %struct.v8cint32 %22) #26, !dbg !2190
  %23 = load %"class.aie::detail::vector.10", %"class.aie::detail::vector.10"* %custom_type.tmp9, align 32, !dbg !2190, !tbaa !1661
  store %"class.aie::detail::vector.10" %23, %"class.aie::detail::vector.10"* %tmp8, align 32, !dbg !2190, !tbaa !1661
  %24 = bitcast %"class.aie::detail::vector.19"* %ref.tmp11 to i8*, !dbg !2190
  call addrspace(1) void @llvm.lifetime.end.p0i8(i64 32, i8* %24) #24, !dbg !2190
  %25 = bitcast %"class.aie::detail::vector.10"* %ref.tmp to i8*, !dbg !2190
  call addrspace(1) void @llvm.lifetime.end.p0i8(i64 64, i8* %25) #24, !dbg !2190
  %26 = bitcast %struct.v2cint32* %ref.tmp18 to i8*, !dbg !2191
  call addrspace(1) void @llvm.lifetime.start.p0i8(i64 16, i8* %26) #24, !dbg !2191
  %call20 = call addrspace(1) %struct.v8cint32 @_ZNK3aie6detail6vectorI6cint32Lj8EEcv8v8cint32Ev(%"class.aie::detail::vector.10"* nonnull dereferenceable(64) %tmp8) #26, !dbg !2192
  %27 = getelementptr inbounds %struct.v8cint32, %struct.v8cint32* %agg.tmp19, i32 0, i32 0, !dbg !2192
  %28 = extractvalue %struct.v8cint32 %call20, 0, !dbg !2192
  store %struct.ipd.custom_type.v64int8.v64int8 %28, %struct.ipd.custom_type.v64int8.v64int8* %27, align 32, !dbg !2192
  %29 = load %struct.v8cint32, %struct.v8cint32* %agg.tmp19, align 32, !dbg !2191, !tbaa !1660
  %call21 = call addrspace(1) %struct.v2cint32 @_Z5ext_v8v8cint32i(%struct.v8cint32 %29, i32 0) #28, !dbg !2191
  %30 = getelementptr inbounds %struct.v2cint32, %struct.v2cint32* %ref.tmp18, i32 0, i32 0, !dbg !2191
  %31 = extractvalue %struct.v2cint32 %call21, 0, !dbg !2191
  store %struct.ipd.custom_type.v16int8.v16int8 %31, %struct.ipd.custom_type.v16int8.v16int8* %30, align 16, !dbg !2191
  %ref.tmp18.val = load %struct.v2cint32, %struct.v2cint32* %ref.tmp18, align 16, !dbg !2193, !tbaa !2181
  %call22 = call addrspace(1) %struct.ipd.custom_type.v16int8.v16int8 @_ZN3aie6detailL18vector_cast_helperIfLj4E8v2cint32EENS0_14vector_storageIT_XT0_EE4typeEOT1_(%struct.v2cint32 %ref.tmp18.val) #26, !dbg !2193
  %oldret = insertvalue %struct.v4float undef, %struct.ipd.custom_type.v16int8.v16int8 %call22, 0, !dbg !2193
  %32 = getelementptr inbounds %struct.v4float, %struct.v4float* %agg.tmp17, i32 0, i32 0, !dbg !2193
  %33 = extractvalue %struct.v4float %oldret, 0, !dbg !2193
  store %struct.ipd.custom_type.v16int8.v16int8 %33, %struct.ipd.custom_type.v16int8.v16int8* %32, align 16, !dbg !2193
  %34 = load %struct.v4float, %struct.v4float* %agg.tmp17, align 16, !dbg !2193, !tbaa !2181
  call addrspace(1) void @_ZN3aie6detail6vectorIfLj4EEC2E7v4float(%"class.aie::detail::vector.15"* nonnull dereferenceable(16) %custom_type.tmp16, %struct.v4float %34) #26, !dbg !2193
  %35 = load %"class.aie::detail::vector.15", %"class.aie::detail::vector.15"* %custom_type.tmp16, align 16, !dbg !2193, !tbaa !2167
  store %"class.aie::detail::vector.15" %35, %"class.aie::detail::vector.15"* %retval, align 16, !dbg !2193, !tbaa !2167
  %36 = bitcast %struct.v2cint32* %ref.tmp18 to i8*, !dbg !2194
  call addrspace(1) void @llvm.lifetime.end.p0i8(i64 16, i8* %36) #24, !dbg !2194
  %37 = bitcast %"class.aie::detail::vector.10"* %tmp8 to i8*, !dbg !2195
  call addrspace(1) void @llvm.lifetime.end.p0i8(i64 64, i8* %37) #24, !dbg !2195
  br label %cleanup, !dbg !2196

cleanup:                                          ; preds = %if.else, %if.then6
  %38 = load %"class.aie::detail::vector.15", %"class.aie::detail::vector.15"* %retval, align 16, !dbg !2197
  ret %"class.aie::detail::vector.15" %38, !dbg !2197
}

; Function Attrs: alwaysinline nounwind mustprogress
define linkonce_odr dso_local %struct.v4float @_ZNK3aie6detail6vectorIfLj4EEcv7v4floatEv(%"class.aie::detail::vector.15"* nonnull dereferenceable(16) %this) addrspace(1) #9 comdat align 2 !dbg !2198 {
entry:
  %retval = alloca %struct.v4float, align 16
  call addrspace(1) void @llvm.dbg.value(metadata %"class.aie::detail::vector.15"* %this, metadata !2200, metadata !DIExpression()), !dbg !2202
  %call = call addrspace(1) %struct.v4float @_ZNK3aie6detail6vectorIfLj4EE9to_nativeEv(%"class.aie::detail::vector.15"* nonnull dereferenceable(16) %this) #26, !dbg !2203
  %0 = getelementptr inbounds %struct.v4float, %struct.v4float* %retval, i32 0, i32 0, !dbg !2203
  %1 = extractvalue %struct.v4float %call, 0, !dbg !2203
  store %struct.ipd.custom_type.v16int8.v16int8 %1, %struct.ipd.custom_type.v16int8.v16int8* %0, align 16, !dbg !2203
  %2 = load %struct.v4float, %struct.v4float* %retval, align 16, !dbg !2204
  ret %struct.v4float %2, !dbg !2204
}

; Function Attrs: alwaysinline nounwind mustprogress
define linkonce_odr dso_local %struct.v8int16 @_Z10as_v8int167v4float(%struct.v4float %a.coerce) addrspace(1) #9 comdat {
entry:
  %a = alloca %struct.v4float, align 16
  %custom_type.tmp = alloca %struct.v8int16, align 16
  store %struct.v4float %a.coerce, %struct.v4float* %a, align 16
  %mw = getelementptr inbounds %struct.v4float, %struct.v4float* %a, i32 0, i32 0
  %0 = load %struct.ipd.custom_type.v16int8.v16int8, %struct.ipd.custom_type.v16int8.v16int8* %mw, align 16, !tbaa !2181
  call addrspace(1) void @_ZN7v8int16C2E17chessllvmInternal7v16int8(%struct.v8int16* nonnull dereferenceable(16) %custom_type.tmp, i32 0, %struct.ipd.custom_type.v16int8.v16int8 %0) #26
  %1 = load %struct.v8int16, %struct.v8int16* %custom_type.tmp, align 16, !tbaa !2181
  ret %struct.v8int16 %1
}

; Function Attrs: alwaysinline nounwind mustprogress
define linkonce_odr dso_local void @_Z7put_wmsi7v8int16i(i32 %idx_ms, %struct.v8int16 %a.coerce, i32 %tlast) addrspace(1) #20 comdat {
entry:
  %agg.tmp = alloca %struct.v4int32, align 16
  %call = call addrspace(1) %struct.v4int32 @_Z10as_v4int327v8int16(%struct.v8int16 %a.coerce) #26
  %0 = getelementptr inbounds %struct.v4int32, %struct.v4int32* %agg.tmp, i32 0, i32 0
  %1 = extractvalue %struct.v4int32 %call, 0
  store %struct.ipd.custom_type.v16int8.v16int8 %1, %struct.ipd.custom_type.v16int8.v16int8* %0, align 16
  %2 = load %struct.v4int32, %struct.v4int32* %agg.tmp, align 16, !tbaa !2181
  call addrspace(1) void @_Z7put_wmsi7v4int32i(i32 %idx_ms, %struct.v4int32 %2, i32 %tlast) #31
  ret void
}

; Function Attrs: alwaysinline nounwind mustprogress
define linkonce_odr dso_local %struct.v4int32 @_Z10as_v4int327v8int16(%struct.v8int16 %a.coerce) addrspace(1) #9 comdat {
entry:
  %a = alloca %struct.v8int16, align 16
  %custom_type.tmp = alloca %struct.v4int32, align 16
  store %struct.v8int16 %a.coerce, %struct.v8int16* %a, align 16
  %mw = getelementptr inbounds %struct.v8int16, %struct.v8int16* %a, i32 0, i32 0
  %0 = load %struct.ipd.custom_type.v16int8.v16int8, %struct.ipd.custom_type.v16int8.v16int8* %mw, align 16, !tbaa !2181
  call addrspace(1) void @_ZN7v4int32C2E17chessllvmInternal7v16int8(%struct.v4int32* nonnull dereferenceable(16) %custom_type.tmp, i32 0, %struct.ipd.custom_type.v16int8.v16int8 %0) #26
  %1 = load %struct.v4int32, %struct.v4int32* %custom_type.tmp, align 16, !tbaa !2181
  ret %struct.v4int32 %1
}

; Function Attrs: alwaysinline nounwind mustprogress
define linkonce_odr dso_local void @_Z7put_wmsi7v4int32i(i32 %idx_ms, %struct.v4int32 %val.coerce, i32 %tlast) addrspace(1) #21 comdat {
entry:
  %custom_type.tmp = alloca %struct.ipd.custom_type.uint1_t.uint1_t, align 4
  %custom_type.tmp2 = alloca %struct.ipd.custom_type.uint1_t.uint1_t, align 4
  %custom_type.tmp6 = alloca %struct.ipd.custom_type.uint1_t.uint1_t, align 4
  %custom_type.tmp8 = alloca %struct.ipd.custom_type.uint1_t.uint1_t, align 4
  %custom_type.tmp11 = alloca %struct.ipd.custom_type.uint1_t.uint1_t, align 4
  %custom_type.tmp13 = alloca %struct.ipd.custom_type.uint1_t.uint1_t, align 4
  %cmp = icmp eq i32 %idx_ms, 0
  %0 = call addrspace(1) i1 @llvm.chess_manifest(i1 %cmp)
  br i1 %0, label %if.then, label %if.else

if.then:                                          ; preds = %entry
  call addrspace(1) void @_ZN7uint1_tC2Ei(%struct.ipd.custom_type.uint1_t.uint1_t* nonnull dereferenceable(1) %custom_type.tmp, i32 0) #26
  %1 = load %struct.ipd.custom_type.uint1_t.uint1_t, %struct.ipd.custom_type.uint1_t.uint1_t* %custom_type.tmp, align 4, !tbaa !2205
  call addrspace(1) void @_ZN7uint1_tC2Ei(%struct.ipd.custom_type.uint1_t.uint1_t* nonnull dereferenceable(1) %custom_type.tmp2, i32 %tlast) #26
  %2 = load %struct.ipd.custom_type.uint1_t.uint1_t, %struct.ipd.custom_type.uint1_t.uint1_t* %custom_type.tmp2, align 4, !tbaa !2205
  call addrspace(1) void @_ZN12me_primitive15stream_write128EPU4AS23U16__protect_accessi7v4int327uint1_tS3_(i32 addrspace(23)* @_ZN12me_primitive3ms0E, %struct.v4int32 %val.coerce, %struct.ipd.custom_type.uint1_t.uint1_t %1, %struct.ipd.custom_type.uint1_t.uint1_t %2) #32
  br label %if.end14

if.else:                                          ; preds = %entry
  %cmp3 = icmp eq i32 %idx_ms, 1
  %3 = call addrspace(1) i1 @llvm.chess_manifest(i1 %cmp3)
  br i1 %3, label %if.then4, label %if.else9

if.then4:                                         ; preds = %if.else
  call addrspace(1) void @_ZN7uint1_tC2Ei(%struct.ipd.custom_type.uint1_t.uint1_t* nonnull dereferenceable(1) %custom_type.tmp6, i32 0) #26
  %4 = load %struct.ipd.custom_type.uint1_t.uint1_t, %struct.ipd.custom_type.uint1_t.uint1_t* %custom_type.tmp6, align 4, !tbaa !2205
  call addrspace(1) void @_ZN7uint1_tC2Ei(%struct.ipd.custom_type.uint1_t.uint1_t* nonnull dereferenceable(1) %custom_type.tmp8, i32 %tlast) #26
  %5 = load %struct.ipd.custom_type.uint1_t.uint1_t, %struct.ipd.custom_type.uint1_t.uint1_t* %custom_type.tmp8, align 4, !tbaa !2205
  call addrspace(1) void @_ZN12me_primitive15stream_write128EPU4AS24U16__protect_accessi7v4int327uint1_tS3_(i32 addrspace(24)* @_ZN12me_primitive3ms1E, %struct.v4int32 %val.coerce, %struct.ipd.custom_type.uint1_t.uint1_t %4, %struct.ipd.custom_type.uint1_t.uint1_t %5) #32
  br label %if.end14

if.else9:                                         ; preds = %if.else
  %conv = trunc i32 %idx_ms to i1
  %6 = inttoptr i1 %conv to i32 addrspace(12)*
  call addrspace(1) void @_ZN7uint1_tC2Ei(%struct.ipd.custom_type.uint1_t.uint1_t* nonnull dereferenceable(1) %custom_type.tmp11, i32 0) #26
  %7 = load %struct.ipd.custom_type.uint1_t.uint1_t, %struct.ipd.custom_type.uint1_t.uint1_t* %custom_type.tmp11, align 4, !tbaa !2205
  call addrspace(1) void @_ZN7uint1_tC2Ei(%struct.ipd.custom_type.uint1_t.uint1_t* nonnull dereferenceable(1) %custom_type.tmp13, i32 %tlast) #26
  %8 = load %struct.ipd.custom_type.uint1_t.uint1_t, %struct.ipd.custom_type.uint1_t.uint1_t* %custom_type.tmp13, align 4, !tbaa !2205
  call addrspace(1) void @_ZN12me_primitive15stream_write128EPU4AS12U16__protect_accessi7v4int327uint1_tS3_(i32 addrspace(12)* %6, %struct.v4int32 %val.coerce, %struct.ipd.custom_type.uint1_t.uint1_t %7, %struct.ipd.custom_type.uint1_t.uint1_t %8) #32
  br label %if.end14

if.end14:                                         ; preds = %if.then4, %if.else9, %if.then
  ret void
}

; Function Attrs: alwaysinline nounwind
define linkonce_odr dso_local void @_ZN7uint1_tC2Ei(%struct.ipd.custom_type.uint1_t.uint1_t* nonnull dereferenceable(1) %this, i32 %a) unnamed_addr addrspace(1) #11 comdat align 2 {
entry:
  %0 = bitcast %struct.ipd.custom_type.uint1_t.uint1_t* %this to i8*
  %bf.load = load i8, i8* %0, align 4
  %bf.clear = and i8 %bf.load, -2
  store i8 %bf.clear, i8* %0, align 4
  %1 = call addrspace(1) %struct.ipd.custom_type.uint1_t.uint1_t @llvm.chess.init.customint.s_struct.ipd.custom_type.uint1_t.uint1_ts.i32.p1f_s_struct.ipd.custom_type.uint1_t.uint1_tsi32f(%struct.ipd.custom_type.uint1_t.uint1_t undef, i32 %a, i32 1, i32 32, i1 true, i32 0, %struct.ipd.custom_type.uint1_t.uint1_t (i32) addrspace(1)* @__regcall3__chessintr_uint1_t_uint1_t___sint)
  store %struct.ipd.custom_type.uint1_t.uint1_t %1, %struct.ipd.custom_type.uint1_t.uint1_t* %this, align 4
  ret void
}

; Function Attrs: alwaysinline nounwind mustprogress
define linkonce_odr dso_local void @_ZN12me_primitive15stream_write128EPU4AS23U16__protect_accessi7v4int327uint1_tS3_(i32 addrspace(23)* %a0, %struct.v4int32 %a1.coerce, %struct.ipd.custom_type.uint1_t.uint1_t %a2.coerce, %struct.ipd.custom_type.uint1_t.uint1_t %a3.coerce) addrspace(1) #10 comdat {
entry:
  call x86_regcallcc addrspace(1) void @__regcall3__chessintr_void_stream_write128___PWMS_rsrc1__sint_v4int32_uint1_t_uint1_t(i32 addrspace(23)* "ipd_store"="0,4" @_ZN12me_primitive3ms0E, %struct.v4int32 %a1.coerce, %struct.ipd.custom_type.uint1_t.uint1_t %a2.coerce, %struct.ipd.custom_type.uint1_t.uint1_t %a3.coerce) #33
  ret void
}

; Function Attrs: alwaysinline nounwind mustprogress
define linkonce_odr dso_local void @_ZN12me_primitive15stream_write128EPU4AS24U16__protect_accessi7v4int327uint1_tS3_(i32 addrspace(24)* %a0, %struct.v4int32 %a1.coerce, %struct.ipd.custom_type.uint1_t.uint1_t %a2.coerce, %struct.ipd.custom_type.uint1_t.uint1_t %a3.coerce) addrspace(1) #10 comdat {
entry:
  call x86_regcallcc addrspace(1) void @__regcall3__chessintr_void_stream_write128___PWMS_rsrc2__sint_v4int32_uint1_t_uint1_t(i32 addrspace(24)* "ipd_store"="0,4" @_ZN12me_primitive3ms1E, %struct.v4int32 %a1.coerce, %struct.ipd.custom_type.uint1_t.uint1_t %a2.coerce, %struct.ipd.custom_type.uint1_t.uint1_t %a3.coerce) #33
  ret void
}

; Function Attrs: alwaysinline nounwind mustprogress
define linkonce_odr dso_local void @_ZN12me_primitive15stream_write128EPU4AS12U16__protect_accessi7v4int327uint1_tS3_(i32 addrspace(12)* %a0, %struct.v4int32 %a1.coerce, %struct.ipd.custom_type.uint1_t.uint1_t %a2.coerce, %struct.ipd.custom_type.uint1_t.uint1_t %a3.coerce) addrspace(1) #10 comdat {
entry:
  call x86_regcallcc addrspace(1) void @__regcall3__chessintr_void_stream_write128___PWMSMEM__sint_v4int32_uint1_t_uint1_t(i32 addrspace(12)* "ipd_store"="0,4" %a0, %struct.v4int32 %a1.coerce, %struct.ipd.custom_type.uint1_t.uint1_t %a2.coerce, %struct.ipd.custom_type.uint1_t.uint1_t %a3.coerce) #33
  ret void
}

; Function Attrs: argmemonly nounwind
declare dso_local x86_regcallcc void @__regcall3__chessintr_void_stream_write128___PWMSMEM__sint_v4int32_uint1_t_uint1_t(i32 addrspace(12)* "ipd_store"="0,4", %struct.v4int32, %struct.ipd.custom_type.uint1_t.uint1_t, %struct.ipd.custom_type.uint1_t.uint1_t) addrspace(1) #22

; Function Attrs: argmemonly nounwind
declare dso_local x86_regcallcc void @__regcall3__chessintr_void_stream_write128___PWMS_rsrc2__sint_v4int32_uint1_t_uint1_t(i32 addrspace(24)* "ipd_store"="0,4", %struct.v4int32, %struct.ipd.custom_type.uint1_t.uint1_t, %struct.ipd.custom_type.uint1_t.uint1_t) addrspace(1) #22

; Function Attrs: argmemonly nounwind
declare dso_local x86_regcallcc void @__regcall3__chessintr_void_stream_write128___PWMS_rsrc1__sint_v4int32_uint1_t_uint1_t(i32 addrspace(23)* "ipd_store"="0,4", %struct.v4int32, %struct.ipd.custom_type.uint1_t.uint1_t, %struct.ipd.custom_type.uint1_t.uint1_t) addrspace(1) #22

; Function Attrs: nounwind readnone willreturn
declare dso_local x86_regcallcc %struct.ipd.custom_type.uint1_t.uint1_t @__regcall3__chessintr_uint1_t_uint1_t___sint(i32 signext) addrspace(1) #13

; Function Attrs: nounwind readnone willreturn
declare %struct.ipd.custom_type.uint1_t.uint1_t @llvm.chess.init.customint.s_struct.ipd.custom_type.uint1_t.uint1_ts.i32.p1f_s_struct.ipd.custom_type.uint1_t.uint1_tsi32f(%struct.ipd.custom_type.uint1_t.uint1_t, i32, i32, i32, i1, i32, %struct.ipd.custom_type.uint1_t.uint1_t (i32) addrspace(1)*) addrspace(1) #14

; Function Attrs: alwaysinline nounwind
define linkonce_odr dso_local void @_ZN7v4int32C2E17chessllvmInternal7v16int8(%struct.v4int32* nonnull dereferenceable(16) %this, i32 %0, %struct.ipd.custom_type.v16int8.v16int8 %aw.coerce) unnamed_addr addrspace(1) #11 comdat align 2 !dbg !2207 {
entry:
  call addrspace(1) void @llvm.dbg.value(metadata %struct.ipd.custom_type.v16int8.v16int8 %aw.coerce, metadata !2235, metadata !DIExpression()), !dbg !2236
  call addrspace(1) void @llvm.dbg.value(metadata %struct.v4int32* %this, metadata !2232, metadata !DIExpression()), !dbg !2236
  call addrspace(1) void @llvm.dbg.value(metadata i32 0, metadata !2234, metadata !DIExpression()), !dbg !2236
  %mw = getelementptr inbounds %struct.v4int32, %struct.v4int32* %this, i32 0, i32 0, !dbg !2237
  store %struct.ipd.custom_type.v16int8.v16int8 %aw.coerce, %struct.ipd.custom_type.v16int8.v16int8* %mw, align 16, !dbg !2238, !tbaa !2181
  ret void, !dbg !2239
}

; Function Attrs: alwaysinline nounwind
define linkonce_odr dso_local void @_ZN7v8int16C2E17chessllvmInternal7v16int8(%struct.v8int16* nonnull dereferenceable(16) %this, i32 %0, %struct.ipd.custom_type.v16int8.v16int8 %aw.coerce) unnamed_addr addrspace(1) #11 comdat align 2 !dbg !2240 {
entry:
  call addrspace(1) void @llvm.dbg.value(metadata %struct.ipd.custom_type.v16int8.v16int8 %aw.coerce, metadata !2265, metadata !DIExpression()), !dbg !2266
  call addrspace(1) void @llvm.dbg.value(metadata %struct.v8int16* %this, metadata !2262, metadata !DIExpression()), !dbg !2266
  call addrspace(1) void @llvm.dbg.value(metadata i32 0, metadata !2264, metadata !DIExpression()), !dbg !2266
  %mw = getelementptr inbounds %struct.v8int16, %struct.v8int16* %this, i32 0, i32 0, !dbg !2267
  store %struct.ipd.custom_type.v16int8.v16int8 %aw.coerce, %struct.ipd.custom_type.v16int8.v16int8* %mw, align 16, !dbg !2268, !tbaa !2181
  ret void, !dbg !2269
}

; Function Attrs: alwaysinline nounwind mustprogress
define linkonce_odr dso_local %struct.v4float @_ZNK3aie6detail6vectorIfLj4EE9to_nativeEv(%"class.aie::detail::vector.15"* nonnull dereferenceable(16) %this) addrspace(1) #9 comdat align 2 !dbg !2270 {
entry:
  call addrspace(1) void @llvm.dbg.value(metadata %"class.aie::detail::vector.15"* %this, metadata !2277, metadata !DIExpression()), !dbg !2278
  %data = getelementptr inbounds %"class.aie::detail::vector.15", %"class.aie::detail::vector.15"* %this, i32 0, i32 0, !dbg !2279
  %0 = load %struct.v4float, %struct.v4float* %data, align 16, !dbg !2279, !tbaa !2181
  ret %struct.v4float %0, !dbg !2279
}

; Function Attrs: alwaysinline nounwind
define linkonce_odr dso_local void @_ZN3aie6detail6vectorIfLj4EEC2Ev(%"class.aie::detail::vector.15"* nonnull dereferenceable(16) %this) unnamed_addr addrspace(1) #11 comdat align 2 !dbg !2281 {
entry:
  call addrspace(1) void @llvm.dbg.value(metadata %"class.aie::detail::vector.15"* %this, metadata !2283, metadata !DIExpression()), !dbg !2285
  %data = getelementptr inbounds %"class.aie::detail::vector.15", %"class.aie::detail::vector.15"* %this, i32 0, i32 0, !dbg !2286
  %call = call addrspace(1) %struct.v4float @_ZN3aie6detail14vector_storageIfLj4EE5undefEv() #26, !dbg !2287
  %0 = getelementptr inbounds %struct.v4float, %struct.v4float* %data, i32 0, i32 0, !dbg !2287
  %1 = extractvalue %struct.v4float %call, 0, !dbg !2287
  store %struct.ipd.custom_type.v16int8.v16int8 %1, %struct.ipd.custom_type.v16int8.v16int8* %0, align 16, !dbg !2287
  ret void, !dbg !2288
}

; Function Attrs: alwaysinline nounwind mustprogress
define linkonce_odr dso_local %struct.v4float @_Z5ext_v7v8floati(%struct.v8float %a0.coerce, i32 %a1) addrspace(1) #10 comdat {
entry:
  %retval = alloca %struct.v4float, align 16
  %call = call x86_regcallcc addrspace(1) %struct.v4float @__regcall3__chessintr_v4float_ext_v_v8float___sint(%struct.v8float %a0.coerce, i32 signext %a1) #30
  %0 = getelementptr inbounds %struct.v4float, %struct.v4float* %retval, i32 0, i32 0
  %1 = extractvalue %struct.v4float %call, 0
  store %struct.ipd.custom_type.v16int8.v16int8 %1, %struct.ipd.custom_type.v16int8.v16int8* %0, align 16
  %2 = load %struct.v4float, %struct.v4float* %retval, align 16
  ret %struct.v4float %2
}

; Function Attrs: alwaysinline nounwind mustprogress
define linkonce_odr dso_local %"class.aie::detail::vector.19" @_ZNK3aie6detail6vectorIfLj8EE7cast_toI6cint32EEDav(%"class.aie::detail::vector"* nonnull dereferenceable(32) %this) addrspace(1) #9 comdat align 2 !dbg !2289 {
entry:
  %ret = alloca %"class.aie::detail::vector.19", align 32
  %custom_type.tmp = alloca %"class.aie::detail::vector.19", align 32
  %tmp = alloca %struct.v4cint32, align 32
  call addrspace(1) void @llvm.dbg.value(metadata %"class.aie::detail::vector"* %this, metadata !2365, metadata !DIExpression()), !dbg !2369
  call addrspace(1) void @llvm.dbg.value(metadata i32 undef, metadata !2366, metadata !DIExpression()), !dbg !2369
  call addrspace(1) void @llvm.dbg.value(metadata i32 64, metadata !2366, metadata !DIExpression()), !dbg !2369
  call addrspace(1) void @llvm.dbg.value(metadata i32 undef, metadata !2367, metadata !DIExpression()), !dbg !2369
  call addrspace(1) void @llvm.dbg.value(metadata i32 4, metadata !2367, metadata !DIExpression()), !dbg !2369
  store %"class.aie::detail::vector.19" undef, %"class.aie::detail::vector.19"* %ret, align 32, !dbg !2370
  %0 = bitcast %"class.aie::detail::vector.19"* %ret to i8*, !dbg !2370
  call addrspace(1) void @llvm.lifetime.start.p0i8(i64 32, i8* %0) #24, !dbg !2370
  call addrspace(1) void @llvm.dbg.declare(metadata %"class.aie::detail::vector.19"* %ret, metadata !2368, metadata !DIExpression()), !dbg !2371
  call addrspace(1) void @_ZN3aie6detail6vectorI6cint32Lj4EEC2Ev(%"class.aie::detail::vector.19"* nonnull dereferenceable(32) %custom_type.tmp) #26, !dbg !2371
  %1 = load %"class.aie::detail::vector.19", %"class.aie::detail::vector.19"* %custom_type.tmp, align 32, !dbg !2371, !tbaa !2372
  store %"class.aie::detail::vector.19" %1, %"class.aie::detail::vector.19"* %ret, align 32, !dbg !2371, !tbaa !2372
  %data = getelementptr inbounds %"class.aie::detail::vector.19", %"class.aie::detail::vector.19"* %ret, i32 0, i32 0, !dbg !2374
  %2 = bitcast %struct.v4cint32* %tmp to i8*, !dbg !2375
  call addrspace(1) void @llvm.lifetime.start.p0i8(i64 32, i8* %2) #24, !dbg !2375
  %data2 = getelementptr inbounds %"class.aie::detail::vector", %"class.aie::detail::vector"* %this, i32 0, i32 0, !dbg !2376
  %data2.val = load %struct.v8float, %struct.v8float* %data2, align 32, !dbg !2375, !tbaa !1652
  %call = call addrspace(1) %struct.ipd.custom_type.v32int8.v32int8 @_ZN3aie6detailL18vector_cast_helperI6cint32Lj4ERK7v8floatEENS0_14vector_storageIT_XT0_EE4typeEOT1_(%struct.v8float %data2.val) #26, !dbg !2375
  %oldret = insertvalue %struct.v4cint32 undef, %struct.ipd.custom_type.v32int8.v32int8 %call, 0, !dbg !2375
  %3 = getelementptr inbounds %struct.v4cint32, %struct.v4cint32* %tmp, i32 0, i32 0, !dbg !2375
  %4 = extractvalue %struct.v4cint32 %oldret, 0, !dbg !2375
  store %struct.ipd.custom_type.v32int8.v32int8 %4, %struct.ipd.custom_type.v32int8.v32int8* %3, align 32, !dbg !2375
  %5 = load %struct.v4cint32, %struct.v4cint32* %tmp, align 32, !dbg !2375, !tbaa !1652
  store %struct.v4cint32 %5, %struct.v4cint32* %data, align 32, !dbg !2375, !tbaa !1652
  %6 = bitcast %struct.v4cint32* %tmp to i8*, !dbg !2375
  call addrspace(1) void @llvm.lifetime.end.p0i8(i64 32, i8* %6) #24, !dbg !2375
  %7 = load %"class.aie::detail::vector.19", %"class.aie::detail::vector.19"* %ret, align 32, !dbg !2377, !tbaa !2372
  %8 = bitcast %"class.aie::detail::vector.19"* %ret to i8*, !dbg !2378
  call addrspace(1) void @llvm.lifetime.end.p0i8(i64 32, i8* %8) #24, !dbg !2378
  ret %"class.aie::detail::vector.19" %7, !dbg !2377
}

; Function Attrs: alwaysinline nounwind mustprogress
define linkonce_odr dso_local %"class.aie::detail::vector.10" @_ZNK3aie6detail6vectorI6cint32Lj4EE4growILj8EEENS1_IS2_XT_EEEj(%"class.aie::detail::vector.19"* nonnull dereferenceable(32) %this, i32 %idx) addrspace(1) #9 comdat align 2 !dbg !2379 {
entry:
  %retval = alloca %"class.aie::detail::vector.10", align 32
  %custom_type.tmp = alloca %"class.aie::detail::vector.10", align 32
  %tmp = alloca %struct.v8cint32, align 32
  call addrspace(1) void @llvm.dbg.value(metadata %"class.aie::detail::vector.19"* %this, metadata !2384, metadata !DIExpression()), !dbg !2389
  call addrspace(1) void @llvm.dbg.value(metadata i32 0, metadata !2386, metadata !DIExpression()), !dbg !2389
  call addrspace(1) void @llvm.dbg.value(metadata i32 undef, metadata !2387, metadata !DIExpression()), !dbg !2389
  call addrspace(1) void @llvm.dbg.value(metadata i32 512, metadata !2387, metadata !DIExpression()), !dbg !2389
  call addrspace(1) void @llvm.dbg.declare(metadata %"class.aie::detail::vector.10"* %retval, metadata !2388, metadata !DIExpression()), !dbg !2390
  call addrspace(1) void @_ZN3aie6detail6vectorI6cint32Lj8EEC2Ev(%"class.aie::detail::vector.10"* nonnull dereferenceable(64) %custom_type.tmp) #26, !dbg !2390
  %0 = load %"class.aie::detail::vector.10", %"class.aie::detail::vector.10"* %custom_type.tmp, align 32, !dbg !2390, !tbaa !1661
  store %"class.aie::detail::vector.10" %0, %"class.aie::detail::vector.10"* %retval, align 32, !dbg !2390, !tbaa !1661
  %data = getelementptr inbounds %"class.aie::detail::vector.10", %"class.aie::detail::vector.10"* %retval, i32 0, i32 0, !dbg !2391
  %1 = bitcast %struct.v8cint32* %tmp to i8*, !dbg !2398
  call addrspace(1) void @llvm.lifetime.start.p0i8(i64 64, i8* %1) #24, !dbg !2398
  %data2 = getelementptr inbounds %"class.aie::detail::vector.19", %"class.aie::detail::vector.19"* %this, i32 0, i32 0, !dbg !2399
  %2 = load %struct.v4cint32, %struct.v4cint32* %data2, align 32, !dbg !2398, !tbaa !2400
  %call = call addrspace(1) %struct.v8cint32 @_Z6xset_wi8v4cint32(i32 0, %struct.v4cint32 %2) #28, !dbg !2398
  %3 = getelementptr inbounds %struct.v8cint32, %struct.v8cint32* %tmp, i32 0, i32 0, !dbg !2398
  %4 = extractvalue %struct.v8cint32 %call, 0, !dbg !2398
  store %struct.ipd.custom_type.v64int8.v64int8 %4, %struct.ipd.custom_type.v64int8.v64int8* %3, align 32, !dbg !2398
  %5 = load %struct.v8cint32, %struct.v8cint32* %tmp, align 32, !dbg !2398, !tbaa !1660
  store %struct.v8cint32 %5, %struct.v8cint32* %data, align 32, !dbg !2398, !tbaa !1660
  %6 = bitcast %struct.v8cint32* %tmp to i8*, !dbg !2398
  call addrspace(1) void @llvm.lifetime.end.p0i8(i64 64, i8* %6) #24, !dbg !2398
  %7 = load %"class.aie::detail::vector.10", %"class.aie::detail::vector.10"* %retval, align 32, !dbg !2401
  ret %"class.aie::detail::vector.10" %7, !dbg !2401
}

; Function Attrs: alwaysinline nounwind mustprogress
define linkonce_odr dso_local %struct.v2cint32 @_Z5ext_v8v8cint32i(%struct.v8cint32 %a0.coerce, i32 %a1) addrspace(1) #10 comdat {
entry:
  %retval = alloca %struct.v2cint32, align 16
  %call = call x86_regcallcc addrspace(1) %struct.v2cint32 @__regcall3__chessintr_v2cint32_ext_v_v8cint32___sint(%struct.v8cint32 %a0.coerce, i32 signext 0) #30
  %0 = getelementptr inbounds %struct.v2cint32, %struct.v2cint32* %retval, i32 0, i32 0
  %1 = extractvalue %struct.v2cint32 %call, 0
  store %struct.ipd.custom_type.v16int8.v16int8 %1, %struct.ipd.custom_type.v16int8.v16int8* %0, align 16
  %2 = load %struct.v2cint32, %struct.v2cint32* %retval, align 16
  ret %struct.v2cint32 %2
}

; Function Attrs: alwaysinline nounwind mustprogress
define internal %struct.ipd.custom_type.v16int8.v16int8 @_ZN3aie6detailL18vector_cast_helperIfLj4E8v2cint32EENS0_14vector_storageIT_XT0_EE4typeEOT1_(%struct.v2cint32 %from.val) addrspace(1) #9 !dbg !2402 {
entry:
  %retval = alloca %struct.v4float, align 16
  call addrspace(1) void @llvm.dbg.value(metadata %struct.v2cint32* undef, metadata !2408, metadata !DIExpression()), !dbg !2412
  %call = call addrspace(1) %struct.v4float @_Z10as_v4float8v2cint32(%struct.v2cint32 %from.val) #26, !dbg !2413
  %0 = getelementptr inbounds %struct.v4float, %struct.v4float* %retval, i32 0, i32 0, !dbg !2413
  %1 = extractvalue %struct.v4float %call, 0, !dbg !2413
  store %struct.ipd.custom_type.v16int8.v16int8 %1, %struct.ipd.custom_type.v16int8.v16int8* %0, align 16, !dbg !2413
  %2 = load %struct.v4float, %struct.v4float* %retval, align 16, !dbg !2415
  %oldret = extractvalue %struct.v4float %2, 0, !dbg !2415
  ret %struct.ipd.custom_type.v16int8.v16int8 %oldret, !dbg !2415
}

; Function Attrs: alwaysinline nounwind
define linkonce_odr dso_local void @_ZN3aie6detail6vectorIfLj4EEC2E7v4float(%"class.aie::detail::vector.15"* nonnull dereferenceable(16) %this, %struct.v4float %v.coerce) unnamed_addr addrspace(1) #11 comdat align 2 !dbg !2416 {
entry:
  call addrspace(1) void @llvm.dbg.value(metadata %struct.v4float %v.coerce, metadata !2419, metadata !DIExpression()), !dbg !2420
  call addrspace(1) void @llvm.dbg.value(metadata %"class.aie::detail::vector.15"* %this, metadata !2418, metadata !DIExpression()), !dbg !2420
  %data = getelementptr inbounds %"class.aie::detail::vector.15", %"class.aie::detail::vector.15"* %this, i32 0, i32 0, !dbg !2421
  store %struct.v4float %v.coerce, %struct.v4float* %data, align 16, !dbg !2422, !tbaa !2181
  ret void, !dbg !2423
}

; Function Attrs: alwaysinline nounwind mustprogress
define linkonce_odr dso_local %struct.v4float @_Z10as_v4float8v2cint32(%struct.v2cint32 %a.coerce) addrspace(1) #9 comdat {
entry:
  %a = alloca %struct.v2cint32, align 16
  %custom_type.tmp = alloca %struct.v4float, align 16
  store %struct.v2cint32 %a.coerce, %struct.v2cint32* %a, align 16
  %mw = getelementptr inbounds %struct.v2cint32, %struct.v2cint32* %a, i32 0, i32 0
  %0 = load %struct.ipd.custom_type.v16int8.v16int8, %struct.ipd.custom_type.v16int8.v16int8* %mw, align 16, !tbaa !2181
  call addrspace(1) void @_ZN7v4floatC2E17chessllvmInternal7v16int8(%struct.v4float* nonnull dereferenceable(16) %custom_type.tmp, i32 0, %struct.ipd.custom_type.v16int8.v16int8 %0) #26
  %1 = load %struct.v4float, %struct.v4float* %custom_type.tmp, align 16, !tbaa !2181
  ret %struct.v4float %1
}

; Function Attrs: alwaysinline nounwind
define linkonce_odr dso_local void @_ZN7v4floatC2E17chessllvmInternal7v16int8(%struct.v4float* nonnull dereferenceable(16) %this, i32 %0, %struct.ipd.custom_type.v16int8.v16int8 %aw.coerce) unnamed_addr addrspace(1) #11 comdat align 2 !dbg !2424 {
entry:
  call addrspace(1) void @llvm.dbg.value(metadata %struct.ipd.custom_type.v16int8.v16int8 %aw.coerce, metadata !2439, metadata !DIExpression()), !dbg !2440
  call addrspace(1) void @llvm.dbg.value(metadata %struct.v4float* %this, metadata !2436, metadata !DIExpression()), !dbg !2440
  call addrspace(1) void @llvm.dbg.value(metadata i32 0, metadata !2438, metadata !DIExpression()), !dbg !2440
  %mw = getelementptr inbounds %struct.v4float, %struct.v4float* %this, i32 0, i32 0, !dbg !2441
  store %struct.ipd.custom_type.v16int8.v16int8 %aw.coerce, %struct.ipd.custom_type.v16int8.v16int8* %mw, align 16, !dbg !2442, !tbaa !2181
  ret void, !dbg !2443
}

; Function Attrs: nounwind readnone willreturn
declare dso_local x86_regcallcc %struct.v2cint32 @__regcall3__chessintr_v2cint32_ext_v_v8cint32___sint(%struct.v8cint32, i32 signext) addrspace(1) #13

; Function Attrs: alwaysinline nounwind mustprogress
define linkonce_odr dso_local %struct.v8cint32 @_Z6xset_wi8v4cint32(i32 %a0, %struct.v4cint32 %a1.coerce) addrspace(1) #10 comdat {
entry:
  %retval = alloca %struct.v8cint32, align 32
  %call = call x86_regcallcc addrspace(1) %struct.v8cint32 @__regcall3__chessintr_v8cint32_xset_w___sint_v4cint32(i32 signext 0, %struct.v4cint32 %a1.coerce) #30
  %0 = getelementptr inbounds %struct.v8cint32, %struct.v8cint32* %retval, i32 0, i32 0
  %1 = extractvalue %struct.v8cint32 %call, 0
  store %struct.ipd.custom_type.v64int8.v64int8 %1, %struct.ipd.custom_type.v64int8.v64int8* %0, align 32
  %2 = load %struct.v8cint32, %struct.v8cint32* %retval, align 32
  ret %struct.v8cint32 %2
}

; Function Attrs: nounwind readnone willreturn
declare dso_local x86_regcallcc %struct.v8cint32 @__regcall3__chessintr_v8cint32_xset_w___sint_v4cint32(i32 signext, %struct.v4cint32) addrspace(1) #13

; Function Attrs: alwaysinline nounwind
define linkonce_odr dso_local void @_ZN3aie6detail6vectorI6cint32Lj4EEC2Ev(%"class.aie::detail::vector.19"* nonnull dereferenceable(32) %this) unnamed_addr addrspace(1) #11 comdat align 2 !dbg !2444 {
entry:
  call addrspace(1) void @llvm.dbg.value(metadata %"class.aie::detail::vector.19"* %this, metadata !2446, metadata !DIExpression()), !dbg !2448
  %data = getelementptr inbounds %"class.aie::detail::vector.19", %"class.aie::detail::vector.19"* %this, i32 0, i32 0, !dbg !2449
  %call = call addrspace(1) %struct.v4cint32 @_ZN3aie6detail14vector_storageI6cint32Lj4EE5undefEv() #26, !dbg !2450
  %0 = getelementptr inbounds %struct.v4cint32, %struct.v4cint32* %data, i32 0, i32 0, !dbg !2450
  %1 = extractvalue %struct.v4cint32 %call, 0, !dbg !2450
  store %struct.ipd.custom_type.v32int8.v32int8 %1, %struct.ipd.custom_type.v32int8.v32int8* %0, align 32, !dbg !2450
  ret void, !dbg !2451
}

; Function Attrs: alwaysinline nounwind mustprogress
define internal %struct.ipd.custom_type.v32int8.v32int8 @_ZN3aie6detailL18vector_cast_helperI6cint32Lj4ERK7v8floatEENS0_14vector_storageIT_XT0_EE4typeEOT1_(%struct.v8float %from.val) addrspace(1) #9 !dbg !2452 {
entry:
  %retval = alloca %struct.v4cint32, align 32
  call addrspace(1) void @llvm.dbg.value(metadata %struct.v8float* undef, metadata !2458, metadata !DIExpression()), !dbg !2461
  %call = call addrspace(1) %struct.v4cint32 @_Z11as_v4cint327v8float(%struct.v8float %from.val) #26, !dbg !2462
  %0 = getelementptr inbounds %struct.v4cint32, %struct.v4cint32* %retval, i32 0, i32 0, !dbg !2462
  %1 = extractvalue %struct.v4cint32 %call, 0, !dbg !2462
  store %struct.ipd.custom_type.v32int8.v32int8 %1, %struct.ipd.custom_type.v32int8.v32int8* %0, align 32, !dbg !2462
  %2 = load %struct.v4cint32, %struct.v4cint32* %retval, align 32, !dbg !2464
  %oldret = extractvalue %struct.v4cint32 %2, 0, !dbg !2464
  ret %struct.ipd.custom_type.v32int8.v32int8 %oldret, !dbg !2464
}

; Function Attrs: alwaysinline nounwind mustprogress
define linkonce_odr dso_local %struct.v4cint32 @_Z11as_v4cint327v8float(%struct.v8float %a.coerce) addrspace(1) #9 comdat {
entry:
  %a = alloca %struct.v8float, align 32
  %custom_type.tmp = alloca %struct.v4cint32, align 32
  store %struct.v8float %a.coerce, %struct.v8float* %a, align 32
  %mw = getelementptr inbounds %struct.v8float, %struct.v8float* %a, i32 0, i32 0
  %0 = load %struct.ipd.custom_type.v32int8.v32int8, %struct.ipd.custom_type.v32int8.v32int8* %mw, align 32, !tbaa !1652
  call addrspace(1) void @_ZN8v4cint32C2E17chessllvmInternal7v32int8(%struct.v4cint32* nonnull dereferenceable(32) %custom_type.tmp, i32 0, %struct.ipd.custom_type.v32int8.v32int8 %0) #26
  %1 = load %struct.v4cint32, %struct.v4cint32* %custom_type.tmp, align 32, !tbaa !1652
  ret %struct.v4cint32 %1
}

; Function Attrs: alwaysinline nounwind
define linkonce_odr dso_local void @_ZN8v4cint32C2E17chessllvmInternal7v32int8(%struct.v4cint32* nonnull dereferenceable(32) %this, i32 %0, %struct.ipd.custom_type.v32int8.v32int8 %aw.coerce) unnamed_addr addrspace(1) #11 comdat align 2 !dbg !2465 {
entry:
  call addrspace(1) void @llvm.dbg.value(metadata %struct.ipd.custom_type.v32int8.v32int8 %aw.coerce, metadata !2490, metadata !DIExpression()), !dbg !2491
  call addrspace(1) void @llvm.dbg.value(metadata %struct.v4cint32* %this, metadata !2487, metadata !DIExpression()), !dbg !2491
  call addrspace(1) void @llvm.dbg.value(metadata i32 0, metadata !2489, metadata !DIExpression()), !dbg !2491
  %mw = getelementptr inbounds %struct.v4cint32, %struct.v4cint32* %this, i32 0, i32 0, !dbg !2492
  store %struct.ipd.custom_type.v32int8.v32int8 %aw.coerce, %struct.ipd.custom_type.v32int8.v32int8* %mw, align 32, !dbg !2493, !tbaa !1652
  ret void, !dbg !2494
}

; Function Attrs: alwaysinline nounwind mustprogress
define linkonce_odr dso_local %struct.v4cint32 @_ZN3aie6detail14vector_storageI6cint32Lj4EE5undefEv() addrspace(1) #9 comdat align 2 !dbg !2495 {
entry:
  %retval = alloca %struct.v4cint32, align 32
  %call = call addrspace(1) %struct.v4cint32 @_Z14undef_v4cint32v() #26, !dbg !2496
  %0 = getelementptr inbounds %struct.v4cint32, %struct.v4cint32* %retval, i32 0, i32 0, !dbg !2496
  %1 = extractvalue %struct.v4cint32 %call, 0, !dbg !2496
  store %struct.ipd.custom_type.v32int8.v32int8 %1, %struct.ipd.custom_type.v32int8.v32int8* %0, align 32, !dbg !2496
  %2 = load %struct.v4cint32, %struct.v4cint32* %retval, align 32, !dbg !2497
  ret %struct.v4cint32 %2, !dbg !2497
}

; Function Attrs: alwaysinline nounwind mustprogress
define linkonce_odr dso_local %struct.v4cint32 @_Z14undef_v4cint32v() addrspace(1) #9 comdat {
entry:
  %retval = alloca %struct.v4cint32, align 32
  %call = call x86_regcallcc addrspace(1) %struct.v4cint32 @__regcall3__chessintr_v4cint32_undef_v4cint32() #30
  %0 = getelementptr inbounds %struct.v4cint32, %struct.v4cint32* %retval, i32 0, i32 0
  %1 = extractvalue %struct.v4cint32 %call, 0
  store %struct.ipd.custom_type.v32int8.v32int8 %1, %struct.ipd.custom_type.v32int8.v32int8* %0, align 32
  %2 = load %struct.v4cint32, %struct.v4cint32* %retval, align 32
  ret %struct.v4cint32 %2
}

; Function Attrs: nounwind readnone willreturn
declare dso_local x86_regcallcc %struct.v4cint32 @__regcall3__chessintr_v4cint32_undef_v4cint32() addrspace(1) #13

; Function Attrs: nounwind readnone willreturn
declare dso_local x86_regcallcc %struct.v4float @__regcall3__chessintr_v4float_ext_v_v8float___sint(%struct.v8float, i32 signext) addrspace(1) #13

; Function Attrs: alwaysinline nounwind mustprogress
define linkonce_odr dso_local %struct.v4float @_ZN3aie6detail14vector_storageIfLj4EE5undefEv() addrspace(1) #9 comdat align 2 !dbg !2498 {
entry:
  %retval = alloca %struct.v4float, align 16
  %call = call addrspace(1) %struct.v4float @_Z13undef_v4floatv() #26, !dbg !2499
  %0 = getelementptr inbounds %struct.v4float, %struct.v4float* %retval, i32 0, i32 0, !dbg !2499
  %1 = extractvalue %struct.v4float %call, 0, !dbg !2499
  store %struct.ipd.custom_type.v16int8.v16int8 %1, %struct.ipd.custom_type.v16int8.v16int8* %0, align 16, !dbg !2499
  %2 = load %struct.v4float, %struct.v4float* %retval, align 16, !dbg !2500
  ret %struct.v4float %2, !dbg !2500
}

; Function Attrs: alwaysinline nounwind mustprogress
define linkonce_odr dso_local %struct.v4float @_Z13undef_v4floatv() addrspace(1) #9 comdat {
entry:
  %retval = alloca %struct.v4float, align 16
  %call = call x86_regcallcc addrspace(1) %struct.v4float @__regcall3__chessintr_v4float_undef_v4float() #30
  %0 = getelementptr inbounds %struct.v4float, %struct.v4float* %retval, i32 0, i32 0
  %1 = extractvalue %struct.v4float %call, 0
  store %struct.ipd.custom_type.v16int8.v16int8 %1, %struct.ipd.custom_type.v16int8.v16int8* %0, align 16
  %2 = load %struct.v4float, %struct.v4float* %retval, align 16
  ret %struct.v4float %2
}

; Function Attrs: nounwind readnone willreturn
declare dso_local x86_regcallcc %struct.v4float @__regcall3__chessintr_v4float_undef_v4float() addrspace(1) #13

; Function Attrs: alwaysinline nounwind mustprogress
define linkonce_odr dso_local %struct.v8float @_ZNK3aie6detail6vectorIfLj8EEcv7v8floatEv(%"class.aie::detail::vector"* nonnull dereferenceable(32) %this) addrspace(1) #9 comdat align 2 !dbg !2501 {
entry:
  %retval = alloca %struct.v8float, align 32
  call addrspace(1) void @llvm.dbg.value(metadata %"class.aie::detail::vector"* %this, metadata !2503, metadata !DIExpression()), !dbg !2504
  %call = call addrspace(1) %struct.v8float @_ZNK3aie6detail6vectorIfLj8EE9to_nativeEv(%"class.aie::detail::vector"* nonnull dereferenceable(32) %this) #26, !dbg !2505
  %0 = getelementptr inbounds %struct.v8float, %struct.v8float* %retval, i32 0, i32 0, !dbg !2505
  %1 = extractvalue %struct.v8float %call, 0, !dbg !2505
  store %struct.ipd.custom_type.v32int8.v32int8 %1, %struct.ipd.custom_type.v32int8.v32int8* %0, align 32, !dbg !2505
  %2 = load %struct.v8float, %struct.v8float* %retval, align 32, !dbg !2506
  ret %struct.v8float %2, !dbg !2506
}

; Function Attrs: alwaysinline nounwind mustprogress
define linkonce_odr dso_local %struct.v8int32 @_Z10as_v8int327v8float(%struct.v8float %a.coerce) addrspace(1) #9 comdat {
entry:
  %a = alloca %struct.v8float, align 32
  %custom_type.tmp = alloca %struct.v8int32, align 32
  store %struct.v8float %a.coerce, %struct.v8float* %a, align 32
  %mw = getelementptr inbounds %struct.v8float, %struct.v8float* %a, i32 0, i32 0
  %0 = load %struct.ipd.custom_type.v32int8.v32int8, %struct.ipd.custom_type.v32int8.v32int8* %mw, align 32, !tbaa !1652
  call addrspace(1) void @_ZN7v8int32C2E17chessllvmInternal7v32int8(%struct.v8int32* nonnull dereferenceable(32) %custom_type.tmp, i32 0, %struct.ipd.custom_type.v32int8.v32int8 %0) #26
  %1 = load %struct.v8int32, %struct.v8int32* %custom_type.tmp, align 32, !tbaa !1652
  ret %struct.v8int32 %1
}

; Function Attrs: alwaysinline nounwind
define linkonce_odr dso_local void @_ZN3aie6detail6vectorIiLj8EEC2E7v8int32(%"class.aie::detail::vector.3"* nonnull dereferenceable(32) %this, %struct.v8int32 %v.coerce) unnamed_addr addrspace(1) #11 comdat align 2 !dbg !2507 {
entry:
  call addrspace(1) void @llvm.dbg.value(metadata %struct.v8int32 %v.coerce, metadata !2511, metadata !DIExpression()), !dbg !2512
  call addrspace(1) void @llvm.dbg.value(metadata %"class.aie::detail::vector.3"* %this, metadata !2509, metadata !DIExpression()), !dbg !2512
  %data = getelementptr inbounds %"class.aie::detail::vector.3", %"class.aie::detail::vector.3"* %this, i32 0, i32 0, !dbg !2513
  store %struct.v8int32 %v.coerce, %struct.v8int32* %data, align 32, !dbg !2514, !tbaa !1652
  ret void, !dbg !2515
}

; Function Attrs: alwaysinline nounwind mustprogress
define linkonce_odr dso_local %"class.aie::detail::vector.3" @_ZN3aie9downshiftINS_6detail6vectorIiLj8EEEEEN22aie_dm_resource_removeIT_E4typeERKS5_j(%"class.aie::detail::vector.3"* nonnull align 32 dereferenceable(32) %v, i32 %shift) addrspace(1) #9 comdat !dbg !2516 {
entry:
  %retval = alloca %"class.aie::detail::vector.3", align 32
  call addrspace(1) void @llvm.dbg.value(metadata %"class.aie::detail::vector.3"* %v, metadata !2520, metadata !DIExpression()), !dbg !2524
  call addrspace(1) void @llvm.dbg.value(metadata i32 23, metadata !2521, metadata !DIExpression()), !dbg !2524
  call addrspace(1) void @llvm.dbg.value(metadata i32 undef, metadata !2522, metadata !DIExpression()), !dbg !2524
  call addrspace(1) void @llvm.dbg.value(metadata i32 8, metadata !2522, metadata !DIExpression()), !dbg !2524
  %cmp = icmp ule i32 23, 62, !dbg !2525
  %0 = call addrspace(1) i1 @llvm.is.constant.i1(i1 %cmp), !dbg !2525
  br i1 %0, label %do.body, label %if.end3, !dbg !2527

do.body:                                          ; preds = %entry
  %cmp1 = icmp ule i32 23, 62, !dbg !2528
  %1 = call addrspace(1) i1 @llvm.chess_manifest(i1 %cmp1), !dbg !2528
  br i1 %1, label %if.end3, label %if.then2, !dbg !2532

if.then2:                                         ; preds = %do.body
  call addrspace(1) void @llvm.chess_error(metadata !2533), !dbg !2528
  unreachable, !dbg !2528

if.end3:                                          ; preds = %do.body, %entry
  %cmp4 = icmp ule i32 23, 62, !dbg !2527
  call addrspace(1) void @llvm.assume(i1 %cmp4), !dbg !2527
  %call = call addrspace(1) %"class.aie::detail::vector.3" @_ZN3aie6detail10shift_bitsIiLj32ELj8EE3runERKNS0_6vectorIiLj8EEEjj(%"class.aie::detail::vector.3"* nonnull align 32 dereferenceable(32) %v, i32 0, i32 23) #26, !dbg !2534
  %2 = getelementptr inbounds %"class.aie::detail::vector.3", %"class.aie::detail::vector.3"* %retval, i32 0, i32 0, !dbg !2534
  %3 = extractvalue %"class.aie::detail::vector.3" %call, 0, !dbg !2534
  store %struct.v8int32 %3, %struct.v8int32* %2, align 32, !dbg !2534
  %4 = load %"class.aie::detail::vector.3", %"class.aie::detail::vector.3"* %retval, align 32, !dbg !2535
  ret %"class.aie::detail::vector.3" %4, !dbg !2535
}

; Function Attrs: alwaysinline nounwind mustprogress
define linkonce_odr dso_local %"class.aie::detail::vector.3" @_ZN3aie3subINS_6detail6vectorIiLj8EEEiEEN22aie_dm_resource_removeIT_E4typeERKS5_T0_(%"class.aie::detail::vector.3"* nonnull align 32 dereferenceable(32) %v, i32 %a) addrspace(1) #9 comdat !dbg !2536 {
entry:
  %retval = alloca %"class.aie::detail::vector.3", align 32
  %a.addr = alloca i32, align 4
  call addrspace(1) void @llvm.dbg.value(metadata %"class.aie::detail::vector.3"* %v, metadata !2540, metadata !DIExpression()), !dbg !2544
  store i32 127, i32* %a.addr, align 4, !tbaa !1117
  call addrspace(1) void @llvm.dbg.declare(metadata i32* %a.addr, metadata !2541, metadata !DIExpression()), !dbg !2545
  call addrspace(1) void @llvm.dbg.value(metadata i32 undef, metadata !2542, metadata !DIExpression()), !dbg !2544
  call addrspace(1) void @llvm.dbg.value(metadata i32 8, metadata !2542, metadata !DIExpression()), !dbg !2544
  %0 = load i32, i32* %a.addr, align 4, !dbg !2546, !tbaa !1117
  %cmp = icmp eq i32 %0, 0, !dbg !2546
  %1 = call addrspace(1) i1 @llvm.chess_manifest(i1 %cmp), !dbg !2546
  br i1 %1, label %if.then, label %if.end, !dbg !2552

if.then:                                          ; preds = %entry
  %2 = load %"class.aie::detail::vector.3", %"class.aie::detail::vector.3"* %v, align 32, !dbg !2553, !tbaa !2019
  store %"class.aie::detail::vector.3" %2, %"class.aie::detail::vector.3"* %retval, align 32, !dbg !2553, !tbaa !2019
  br label %cleanup, !dbg !2554

if.end:                                           ; preds = %entry
  %call = call addrspace(1) %"class.aie::detail::vector.3" @_ZN3aie6detail12add_sub_bitsILj32EiLj8ELNS0_15AddSubOperationE1EE3runERKNS0_6vectorIiLj8EEERKi(%"class.aie::detail::vector.3"* nonnull align 32 dereferenceable(32) %v, i32* nonnull align 4 dereferenceable(4) %a.addr) #26, !dbg !2555
  %3 = getelementptr inbounds %"class.aie::detail::vector.3", %"class.aie::detail::vector.3"* %retval, i32 0, i32 0, !dbg !2555
  %4 = extractvalue %"class.aie::detail::vector.3" %call, 0, !dbg !2555
  store %struct.v8int32 %4, %struct.v8int32* %3, align 32, !dbg !2555
  br label %cleanup, !dbg !2556

cleanup:                                          ; preds = %if.end, %if.then
  %5 = load %"class.aie::detail::vector.3", %"class.aie::detail::vector.3"* %retval, align 32, !dbg !2557
  ret %"class.aie::detail::vector.3" %5, !dbg !2557
}

; Function Attrs: alwaysinline nounwind mustprogress
define linkonce_odr dso_local %"class.aie::detail::vector" @_ZN3aie8to_floatIiLj8EEEDaRKNS_6detail6vectorIT_XT0_EEEi(%"class.aie::detail::vector.3"* nonnull align 32 dereferenceable(32) %v, i32 %shift) addrspace(1) #9 comdat !dbg !2558 {
entry:
  %retval = alloca %"class.aie::detail::vector", align 32
  call addrspace(1) void @llvm.dbg.value(metadata %"class.aie::detail::vector.3"* %v, metadata !2564, metadata !DIExpression()), !dbg !2566
  call addrspace(1) void @llvm.dbg.value(metadata i32 0, metadata !2565, metadata !DIExpression()), !dbg !2566
  %call = call addrspace(1) %"class.aie::detail::vector" @_ZN3aie6detail22elementary_vector_bitsILNS0_12ElementaryOpE7ELj32EfiLj8EE3runERKNS0_6vectorIiLj8EEEi(%"class.aie::detail::vector.3"* nonnull align 32 dereferenceable(32) %v, i32 0) #26, !dbg !2567
  %0 = getelementptr inbounds %"class.aie::detail::vector", %"class.aie::detail::vector"* %retval, i32 0, i32 0, !dbg !2567
  %1 = extractvalue %"class.aie::detail::vector" %call, 0, !dbg !2567
  store %struct.v8float %1, %struct.v8float* %0, align 32, !dbg !2567
  %2 = load %"class.aie::detail::vector", %"class.aie::detail::vector"* %retval, align 32, !dbg !2570
  ret %"class.aie::detail::vector" %2, !dbg !2570
}

; Function Attrs: alwaysinline nounwind mustprogress
define linkonce_odr dso_local %"class.aie::detail::vector.3" @_ZN3aie7bit_andIiNS_6detail6vectorIiLj8EEEEEN22aie_dm_resource_removeIT0_E4typeET_RKS5_(i32 %a, %"class.aie::detail::vector.3"* nonnull align 32 dereferenceable(32) %v) addrspace(1) #9 comdat !dbg !553 {
entry:
  %retval = alloca %"class.aie::detail::vector.3", align 32
  %a.addr = alloca i32, align 4
  store i32 8388607, i32* %a.addr, align 4, !tbaa !1117
  call addrspace(1) void @llvm.dbg.declare(metadata i32* %a.addr, metadata !767, metadata !DIExpression()), !dbg !2571
  call addrspace(1) void @llvm.dbg.value(metadata %"class.aie::detail::vector.3"* %v, metadata !768, metadata !DIExpression()), !dbg !2572
  call addrspace(1) void @llvm.dbg.value(metadata i32 undef, metadata !769, metadata !DIExpression()), !dbg !2572
  call addrspace(1) void @llvm.dbg.value(metadata i32 8, metadata !769, metadata !DIExpression()), !dbg !2572
  %0 = load i32, i32* %a.addr, align 4, !dbg !2573, !tbaa !1117
  %cmp = icmp eq i32 %0, -1, !dbg !2573
  %1 = call addrspace(1) i1 @llvm.chess_manifest(i1 %cmp), !dbg !2573
  br i1 %1, label %if.then, label %if.end, !dbg !2577

if.then:                                          ; preds = %entry
  %2 = load %"class.aie::detail::vector.3", %"class.aie::detail::vector.3"* %v, align 32, !dbg !2578, !tbaa !2019
  store %"class.aie::detail::vector.3" %2, %"class.aie::detail::vector.3"* %retval, align 32, !dbg !2578, !tbaa !2019
  br label %cleanup, !dbg !2579

if.end:                                           ; preds = %entry
  %call = call addrspace(1) %"class.aie::detail::vector.3" @_ZN3aie6detail8bit_bitsILj32EiLj8ELNS0_5BitOpE0EE3runERKiRKNS0_6vectorIiLj8EEE(i32* nonnull align 4 dereferenceable(4) %a.addr, %"class.aie::detail::vector.3"* nonnull align 32 dereferenceable(32) %v) #26, !dbg !2580
  %3 = getelementptr inbounds %"class.aie::detail::vector.3", %"class.aie::detail::vector.3"* %retval, i32 0, i32 0, !dbg !2580
  %4 = extractvalue %"class.aie::detail::vector.3" %call, 0, !dbg !2580
  store %struct.v8int32 %4, %struct.v8int32* %3, align 32, !dbg !2580
  br label %cleanup, !dbg !2581

cleanup:                                          ; preds = %if.end, %if.then
  %5 = load %"class.aie::detail::vector.3", %"class.aie::detail::vector.3"* %retval, align 32, !dbg !2582
  ret %"class.aie::detail::vector.3" %5, !dbg !2582
}

; Function Attrs: alwaysinline nounwind mustprogress
define linkonce_odr dso_local %"class.aie::detail::vector.3" @_ZN3aie6bit_orIiNS_6detail6vectorIiLj8EEEEEN22aie_dm_resource_removeIT0_E4typeET_RKS5_(i32 %a, %"class.aie::detail::vector.3"* nonnull align 32 dereferenceable(32) %v) addrspace(1) #9 comdat !dbg !2583 {
entry:
  %retval = alloca %"class.aie::detail::vector.3", align 32
  %a.addr = alloca i32, align 4
  store i32 1065353216, i32* %a.addr, align 4, !tbaa !1117
  call addrspace(1) void @llvm.dbg.declare(metadata i32* %a.addr, metadata !2585, metadata !DIExpression()), !dbg !2588
  call addrspace(1) void @llvm.dbg.value(metadata %"class.aie::detail::vector.3"* %v, metadata !2586, metadata !DIExpression()), !dbg !2589
  call addrspace(1) void @llvm.dbg.value(metadata i32 undef, metadata !2587, metadata !DIExpression()), !dbg !2589
  call addrspace(1) void @llvm.dbg.value(metadata i32 8, metadata !2587, metadata !DIExpression()), !dbg !2589
  %0 = load i32, i32* %a.addr, align 4, !dbg !2590, !tbaa !1117
  %cmp = icmp eq i32 %0, 0, !dbg !2590
  %1 = call addrspace(1) i1 @llvm.chess_manifest(i1 %cmp), !dbg !2590
  br i1 %1, label %if.then, label %if.end, !dbg !2594

if.then:                                          ; preds = %entry
  %2 = load %"class.aie::detail::vector.3", %"class.aie::detail::vector.3"* %v, align 32, !dbg !2595, !tbaa !2019
  store %"class.aie::detail::vector.3" %2, %"class.aie::detail::vector.3"* %retval, align 32, !dbg !2595, !tbaa !2019
  br label %cleanup, !dbg !2596

if.end:                                           ; preds = %entry
  %call = call addrspace(1) %"class.aie::detail::vector.3" @_ZN3aie6detail8bit_bitsILj32EiLj8ELNS0_5BitOpE2EE3runERKiRKNS0_6vectorIiLj8EEE(i32* nonnull align 4 dereferenceable(4) %a.addr, %"class.aie::detail::vector.3"* nonnull align 32 dereferenceable(32) %v) #26, !dbg !2597
  %3 = getelementptr inbounds %"class.aie::detail::vector.3", %"class.aie::detail::vector.3"* %retval, i32 0, i32 0, !dbg !2597
  %4 = extractvalue %"class.aie::detail::vector.3" %call, 0, !dbg !2597
  store %struct.v8int32 %4, %struct.v8int32* %3, align 32, !dbg !2597
  br label %cleanup, !dbg !2598

cleanup:                                          ; preds = %if.end, %if.then
  %5 = load %"class.aie::detail::vector.3", %"class.aie::detail::vector.3"* %retval, align 32, !dbg !2599
  ret %"class.aie::detail::vector.3" %5, !dbg !2599
}

; Function Attrs: alwaysinline nounwind mustprogress
define linkonce_odr dso_local %struct.v8int32 @_ZNK3aie6detail6vectorIiLj8EEcv7v8int32Ev(%"class.aie::detail::vector.3"* nonnull dereferenceable(32) %this) addrspace(1) #9 comdat align 2 !dbg !2600 {
entry:
  %retval = alloca %struct.v8int32, align 32
  call addrspace(1) void @llvm.dbg.value(metadata %"class.aie::detail::vector.3"* %this, metadata !2602, metadata !DIExpression()), !dbg !2604
  %call = call addrspace(1) %struct.v8int32 @_ZNK3aie6detail6vectorIiLj8EE9to_nativeEv(%"class.aie::detail::vector.3"* nonnull dereferenceable(32) %this) #26, !dbg !2605
  %0 = getelementptr inbounds %struct.v8int32, %struct.v8int32* %retval, i32 0, i32 0, !dbg !2605
  %1 = extractvalue %struct.v8int32 %call, 0, !dbg !2605
  store %struct.ipd.custom_type.v32int8.v32int8 %1, %struct.ipd.custom_type.v32int8.v32int8* %0, align 32, !dbg !2605
  %2 = load %struct.v8int32, %struct.v8int32* %retval, align 32, !dbg !2606
  ret %struct.v8int32 %2, !dbg !2606
}

; Function Attrs: alwaysinline nounwind mustprogress
define linkonce_odr dso_local %struct.v8float @_Z10as_v8float7v8int32(%struct.v8int32 %a.coerce) addrspace(1) #9 comdat {
entry:
  %a = alloca %struct.v8int32, align 32
  %custom_type.tmp = alloca %struct.v8float, align 32
  store %struct.v8int32 %a.coerce, %struct.v8int32* %a, align 32
  %mw = getelementptr inbounds %struct.v8int32, %struct.v8int32* %a, i32 0, i32 0
  %0 = load %struct.ipd.custom_type.v32int8.v32int8, %struct.ipd.custom_type.v32int8.v32int8* %mw, align 32, !tbaa !1652
  call addrspace(1) void @_ZN7v8floatC2E17chessllvmInternal7v32int8(%struct.v8float* nonnull dereferenceable(32) %custom_type.tmp, i32 0, %struct.ipd.custom_type.v32int8.v32int8 %0) #26
  %1 = load %struct.v8float, %struct.v8float* %custom_type.tmp, align 32, !tbaa !1652
  ret %struct.v8float %1
}

; Function Attrs: alwaysinline nounwind mustprogress
define linkonce_odr dso_local %struct.v8float @_Z5fpmac7v8floatS_S_(%struct.v8float %a0.coerce, %struct.v8float %a1.coerce, %struct.v8float %a2.coerce) addrspace(1) #9 comdat {
entry:
  %retval = alloca %struct.v8float, align 32
  %call = call x86_regcallcc addrspace(1) %struct.v8float @__regcall3__chessintr_v8float_fpmac_v8float_v8float_v8float(%struct.v8float %a0.coerce, %struct.v8float %a1.coerce, %struct.v8float %a2.coerce) #30
  %0 = getelementptr inbounds %struct.v8float, %struct.v8float* %retval, i32 0, i32 0
  %1 = extractvalue %struct.v8float %call, 0
  store %struct.ipd.custom_type.v32int8.v32int8 %1, %struct.ipd.custom_type.v32int8.v32int8* %0, align 32
  %2 = load %struct.v8float, %struct.v8float* %retval, align 32
  ret %struct.v8float %2
}

; Function Attrs: alwaysinline nounwind mustprogress
define linkonce_odr dso_local %struct.v8float @_Z5fpadd7v8floatS_(%struct.v8float %a0.coerce, %struct.v8float %a1.coerce) addrspace(1) #9 comdat {
entry:
  %retval = alloca %struct.v8float, align 32
  %call = call x86_regcallcc addrspace(1) %struct.v8float @__regcall3__chessintr_v8float_fpadd_v8float_v8float(%struct.v8float %a0.coerce, %struct.v8float %a1.coerce) #30
  %0 = getelementptr inbounds %struct.v8float, %struct.v8float* %retval, i32 0, i32 0
  %1 = extractvalue %struct.v8float %call, 0
  store %struct.ipd.custom_type.v32int8.v32int8 %1, %struct.ipd.custom_type.v32int8.v32int8* %0, align 32
  %2 = load %struct.v8float, %struct.v8float* %retval, align 32
  ret %struct.v8float %2
}

; Function Attrs: nounwind readnone willreturn
declare dso_local x86_regcallcc %struct.v8float @__regcall3__chessintr_v8float_fpadd_v8float_v8float(%struct.v8float, %struct.v8float) addrspace(1) #13

; Function Attrs: nounwind readnone willreturn
declare dso_local x86_regcallcc %struct.v8float @__regcall3__chessintr_v8float_fpmac_v8float_v8float_v8float(%struct.v8float, %struct.v8float, %struct.v8float) addrspace(1) #13

; Function Attrs: alwaysinline nounwind mustprogress
define linkonce_odr dso_local %struct.v8int32 @_ZNK3aie6detail6vectorIiLj8EE9to_nativeEv(%"class.aie::detail::vector.3"* nonnull dereferenceable(32) %this) addrspace(1) #9 comdat align 2 !dbg !2607 {
entry:
  call addrspace(1) void @llvm.dbg.value(metadata %"class.aie::detail::vector.3"* %this, metadata !2614, metadata !DIExpression()), !dbg !2615
  %data = getelementptr inbounds %"class.aie::detail::vector.3", %"class.aie::detail::vector.3"* %this, i32 0, i32 0, !dbg !2616
  %0 = load %struct.v8int32, %struct.v8int32* %data, align 32, !dbg !2616, !tbaa !1652
  ret %struct.v8int32 %0, !dbg !2616
}

; Function Attrs: alwaysinline nounwind mustprogress
define linkonce_odr dso_local %"class.aie::detail::vector.3" @_ZN3aie6detail8bit_bitsILj32EiLj8ELNS0_5BitOpE2EE3runERKiRKNS0_6vectorIiLj8EEE(i32* nonnull align 4 dereferenceable(4) %a, %"class.aie::detail::vector.3"* nonnull align 32 dereferenceable(32) %v) addrspace(1) #9 comdat align 2 !dbg !2618 {
entry:
  %retval = alloca %"class.aie::detail::vector.3", align 32
  call addrspace(1) void @llvm.dbg.value(metadata i32* %a, metadata !2640, metadata !DIExpression()), !dbg !2642
  call addrspace(1) void @llvm.dbg.value(metadata %"class.aie::detail::vector.3"* %v, metadata !2641, metadata !DIExpression()), !dbg !2642
  %0 = load i32, i32* %a, align 4, !dbg !2643, !tbaa !1117
  %call = call addrspace(1) %"class.aie::detail::vector.3" @_ZN3aie6detail13bit_bits_implILj32EiLj8ELNS0_5BitOpE2EE3runEiRKNS0_6vectorIiLj8EEE(i32 %0, %"class.aie::detail::vector.3"* nonnull align 32 dereferenceable(32) %v) #26, !dbg !2644
  %1 = getelementptr inbounds %"class.aie::detail::vector.3", %"class.aie::detail::vector.3"* %retval, i32 0, i32 0, !dbg !2644
  %2 = extractvalue %"class.aie::detail::vector.3" %call, 0, !dbg !2644
  store %struct.v8int32 %2, %struct.v8int32* %1, align 32, !dbg !2644
  %3 = load %"class.aie::detail::vector.3", %"class.aie::detail::vector.3"* %retval, align 32, !dbg !2645
  ret %"class.aie::detail::vector.3" %3, !dbg !2645
}

; Function Attrs: alwaysinline nounwind mustprogress
define linkonce_odr dso_local %"class.aie::detail::vector.3" @_ZN3aie6detail13bit_bits_implILj32EiLj8ELNS0_5BitOpE2EE3runEiRKNS0_6vectorIiLj8EEE(i32 %a, %"class.aie::detail::vector.3"* nonnull align 32 dereferenceable(32) %v) addrspace(1) #9 comdat align 2 !dbg !2646 {
entry:
  %retval = alloca %"class.aie::detail::vector.3", align 32
  %custom_type.tmp = alloca %"class.aie::detail::vector.3", align 32
  %ref.tmp = alloca i32, align 4
  %agg.tmp = alloca %"class.aie::detail::vector_elem_const_ref.11", align 4
  %ref.tmp2 = alloca %"class.aie::detail::vector_elem_ref", align 4
  call addrspace(1) void @llvm.dbg.value(metadata i32 %a, metadata !2665, metadata !DIExpression()), !dbg !2670
  call addrspace(1) void @llvm.dbg.value(metadata %"class.aie::detail::vector.3"* %v, metadata !2666, metadata !DIExpression()), !dbg !2670
  call addrspace(1) void @llvm.dbg.declare(metadata %"class.aie::detail::vector.3"* %retval, metadata !2667, metadata !DIExpression()), !dbg !2671
  call addrspace(1) void @_ZN3aie6detail6vectorIiLj8EEC2Ev(%"class.aie::detail::vector.3"* nonnull dereferenceable(32) %custom_type.tmp) #26, !dbg !2671
  %0 = load %"class.aie::detail::vector.3", %"class.aie::detail::vector.3"* %custom_type.tmp, align 32, !dbg !2671, !tbaa !2019
  store %"class.aie::detail::vector.3" %0, %"class.aie::detail::vector.3"* %retval, align 32, !dbg !2671, !tbaa !2019
  call addrspace(1) void @llvm.dbg.value(metadata i32 undef, metadata !2668, metadata !DIExpression()), !dbg !2672
  call addrspace(1) void @llvm.dbg.value(metadata i32 0, metadata !2668, metadata !DIExpression()), !dbg !2672
  br label %for.body, !dbg !2673

for.body:                                         ; preds = %for.body, %entry
  %i.01 = phi i32 [ 0, %entry ], [ %inc, %for.body ]
  call addrspace(1) void @llvm.dbg.value(metadata i32 %i.01, metadata !2668, metadata !DIExpression()), !dbg !2672
  %1 = bitcast i32* %ref.tmp to i8*, !dbg !2674
  call addrspace(1) void @llvm.lifetime.start.p0i8(i64 4, i8* %1) #24, !dbg !2674
  %call = call addrspace(1) %"class.aie::detail::vector_elem_const_ref.11" @_ZNK3aie6detail6vectorIiLj8EEixEj(%"class.aie::detail::vector.3"* nonnull dereferenceable(32) %v, i32 %i.01) #26, !dbg !2679
  %2 = getelementptr inbounds %"class.aie::detail::vector_elem_const_ref.11", %"class.aie::detail::vector_elem_const_ref.11"* %agg.tmp, i32 0, i32 0, !dbg !2679
  %3 = extractvalue %"class.aie::detail::vector_elem_const_ref.11" %call, 0, !dbg !2679
  store %"class.aie::detail::vector.3"* %3, %"class.aie::detail::vector.3"** %2, align 4, !dbg !2679
  %4 = getelementptr inbounds %"class.aie::detail::vector_elem_const_ref.11", %"class.aie::detail::vector_elem_const_ref.11"* %agg.tmp, i32 0, i32 1, !dbg !2679
  %5 = extractvalue %"class.aie::detail::vector_elem_const_ref.11" %call, 1, !dbg !2679
  store i32 %5, i32* %4, align 4, !dbg !2679
  %6 = load %"class.aie::detail::vector_elem_const_ref.11", %"class.aie::detail::vector_elem_const_ref.11"* %agg.tmp, align 4, !dbg !2680, !tbaa !2681
  %call1 = call addrspace(1) i32 @_ZN3aie6detailorIiNS0_21vector_elem_const_refIiLj8EEEEEDaT_T0_(i32 %a, %"class.aie::detail::vector_elem_const_ref.11" %6) #26, !dbg !2680
  store i32 %call1, i32* %ref.tmp, align 4, !dbg !2674, !tbaa !1117
  %7 = bitcast %"class.aie::detail::vector_elem_ref"* %ref.tmp2 to i8*, !dbg !2683
  call addrspace(1) void @llvm.lifetime.start.p0i8(i64 8, i8* %7) #24, !dbg !2683
  %call3 = call addrspace(1) %"class.aie::detail::vector_elem_ref" @_ZN3aie6detail6vectorIiLj8EEixEj(%"class.aie::detail::vector.3"* nonnull dereferenceable(32) %retval, i32 %i.01) #26, !dbg !2683
  %8 = getelementptr inbounds %"class.aie::detail::vector_elem_ref", %"class.aie::detail::vector_elem_ref"* %ref.tmp2, i32 0, i32 0, !dbg !2683
  %9 = extractvalue %"class.aie::detail::vector_elem_ref" %call3, 0, !dbg !2683
  store %"class.aie::detail::vector.3"* %9, %"class.aie::detail::vector.3"** %8, align 4, !dbg !2683
  %10 = getelementptr inbounds %"class.aie::detail::vector_elem_ref", %"class.aie::detail::vector_elem_ref"* %ref.tmp2, i32 0, i32 1, !dbg !2683
  %11 = extractvalue %"class.aie::detail::vector_elem_ref" %call3, 1, !dbg !2683
  store i32 %11, i32* %10, align 4, !dbg !2683
  %call4 = call nonnull align 4 dereferenceable(8) addrspace(1) %"class.aie::detail::vector_elem_ref"* @_ZN3aie6detail15vector_elem_refIiLj8EEaSERKi(%"class.aie::detail::vector_elem_ref"* nonnull dereferenceable(8) %ref.tmp2, i32* nonnull align 4 dereferenceable(4) %ref.tmp) #26, !dbg !2684
  %12 = bitcast %"class.aie::detail::vector_elem_ref"* %ref.tmp2 to i8*, !dbg !2683
  call addrspace(1) void @llvm.lifetime.end.p0i8(i64 8, i8* %12) #24, !dbg !2683
  %13 = bitcast i32* %ref.tmp to i8*, !dbg !2683
  call addrspace(1) void @llvm.lifetime.end.p0i8(i64 4, i8* %13) #24, !dbg !2683
  %inc = add nuw nsw i32 %i.01, 1, !dbg !2685
  call addrspace(1) void @llvm.dbg.value(metadata i32 %inc, metadata !2668, metadata !DIExpression()), !dbg !2672
  %exitcond = icmp ne i32 %inc, 8, !dbg !2686
  br i1 %exitcond, label %for.body, label %for.end, !dbg !2673, !llvm.loop !2687

for.end:                                          ; preds = %for.body
  %14 = load %"class.aie::detail::vector.3", %"class.aie::detail::vector.3"* %retval, align 32, !dbg !2692
  ret %"class.aie::detail::vector.3" %14, !dbg !2692
}

; Function Attrs: alwaysinline nounwind
define linkonce_odr dso_local void @_ZN3aie6detail6vectorIiLj8EEC2Ev(%"class.aie::detail::vector.3"* nonnull dereferenceable(32) %this) unnamed_addr addrspace(1) #11 comdat align 2 !dbg !2693 {
entry:
  call addrspace(1) void @llvm.dbg.value(metadata %"class.aie::detail::vector.3"* %this, metadata !2695, metadata !DIExpression()), !dbg !2696
  %data = getelementptr inbounds %"class.aie::detail::vector.3", %"class.aie::detail::vector.3"* %this, i32 0, i32 0, !dbg !2697
  %call = call addrspace(1) %struct.v8int32 @_ZN3aie6detail14vector_storageIiLj8EE5undefEv() #26, !dbg !2698
  %0 = getelementptr inbounds %struct.v8int32, %struct.v8int32* %data, i32 0, i32 0, !dbg !2698
  %1 = extractvalue %struct.v8int32 %call, 0, !dbg !2698
  store %struct.ipd.custom_type.v32int8.v32int8 %1, %struct.ipd.custom_type.v32int8.v32int8* %0, align 32, !dbg !2698
  ret void, !dbg !2699
}

; Function Attrs: alwaysinline nounwind mustprogress
define linkonce_odr dso_local %"class.aie::detail::vector_elem_const_ref.11" @_ZNK3aie6detail6vectorIiLj8EEixEj(%"class.aie::detail::vector.3"* nonnull dereferenceable(32) %this, i32 %idx) addrspace(1) #9 comdat align 2 !dbg !2700 {
entry:
  %retval = alloca %"class.aie::detail::vector_elem_const_ref.11", align 4
  call addrspace(1) void @llvm.dbg.value(metadata %"class.aie::detail::vector.3"* %this, metadata !2702, metadata !DIExpression()), !dbg !2704
  call addrspace(1) void @llvm.dbg.value(metadata i32 %idx, metadata !2703, metadata !DIExpression()), !dbg !2704
  %cmp = icmp ult i32 %idx, 8, !dbg !2705
  %0 = call addrspace(1) i1 @llvm.is.constant.i1(i1 %cmp), !dbg !2705
  br i1 %0, label %do.body, label %if.end4, !dbg !2707

do.body:                                          ; preds = %entry
  %cmp2 = icmp ult i32 %idx, 8, !dbg !2708
  %1 = call addrspace(1) i1 @llvm.chess_manifest(i1 %cmp2), !dbg !2708
  br i1 %1, label %if.end4, label %if.then3, !dbg !2712

if.then3:                                         ; preds = %do.body
  call addrspace(1) void @llvm.chess_error(metadata !1863), !dbg !2708
  unreachable, !dbg !2708

if.end4:                                          ; preds = %do.body, %entry
  %cmp5 = icmp ult i32 %idx, 8, !dbg !2707
  call addrspace(1) void @llvm.assume(i1 %cmp5), !dbg !2707
  %call = call addrspace(1) %"class.aie::detail::vector_elem_const_ref.11" @_ZNK3aie6detail6vectorIiLj8EE14elem_const_refEj(%"class.aie::detail::vector.3"* nonnull dereferenceable(32) %this, i32 %idx) #26, !dbg !2713
  %2 = getelementptr inbounds %"class.aie::detail::vector_elem_const_ref.11", %"class.aie::detail::vector_elem_const_ref.11"* %retval, i32 0, i32 0, !dbg !2713
  %3 = extractvalue %"class.aie::detail::vector_elem_const_ref.11" %call, 0, !dbg !2713
  store %"class.aie::detail::vector.3"* %3, %"class.aie::detail::vector.3"** %2, align 4, !dbg !2713
  %4 = getelementptr inbounds %"class.aie::detail::vector_elem_const_ref.11", %"class.aie::detail::vector_elem_const_ref.11"* %retval, i32 0, i32 1, !dbg !2713
  %5 = extractvalue %"class.aie::detail::vector_elem_const_ref.11" %call, 1, !dbg !2713
  store i32 %5, i32* %4, align 4, !dbg !2713
  %6 = load %"class.aie::detail::vector_elem_const_ref.11", %"class.aie::detail::vector_elem_const_ref.11"* %retval, align 4, !dbg !2714
  ret %"class.aie::detail::vector_elem_const_ref.11" %6, !dbg !2714
}

; Function Attrs: alwaysinline nounwind mustprogress
define linkonce_odr dso_local i32 @_ZN3aie6detailorIiNS0_21vector_elem_const_refIiLj8EEEEEDaT_T0_(i32 %v1, %"class.aie::detail::vector_elem_const_ref.11" %v2.coerce) addrspace(1) #9 comdat !dbg !2715 {
entry:
  %v2 = alloca %"class.aie::detail::vector_elem_const_ref.11", align 4
  store %"class.aie::detail::vector_elem_const_ref.11" %v2.coerce, %"class.aie::detail::vector_elem_const_ref.11"* %v2, align 4
  call addrspace(1) void @llvm.dbg.value(metadata i32 %v1, metadata !2719, metadata !DIExpression()), !dbg !2724
  call addrspace(1) void @llvm.dbg.declare(metadata %"class.aie::detail::vector_elem_const_ref.11"* %v2, metadata !2720, metadata !DIExpression()), !dbg !2725
  %call = call addrspace(1) i32 @_ZNK3aie6detail21vector_elem_const_refIiLj8EE3getEv(%"class.aie::detail::vector_elem_const_ref.11"* nonnull dereferenceable(8) %v2) #26, !dbg !2726
  %or = or i32 %v1, %call, !dbg !2730
  ret i32 %or, !dbg !2731
}

; Function Attrs: alwaysinline nounwind mustprogress
define linkonce_odr dso_local %"class.aie::detail::vector_elem_ref" @_ZN3aie6detail6vectorIiLj8EEixEj(%"class.aie::detail::vector.3"* nonnull dereferenceable(32) %this, i32 %idx) addrspace(1) #9 comdat align 2 !dbg !2732 {
entry:
  %retval = alloca %"class.aie::detail::vector_elem_ref", align 4
  call addrspace(1) void @llvm.dbg.value(metadata %"class.aie::detail::vector.3"* %this, metadata !2734, metadata !DIExpression()), !dbg !2736
  call addrspace(1) void @llvm.dbg.value(metadata i32 %idx, metadata !2735, metadata !DIExpression()), !dbg !2736
  %cmp = icmp ult i32 %idx, 8, !dbg !2737
  %0 = call addrspace(1) i1 @llvm.is.constant.i1(i1 %cmp), !dbg !2737
  br i1 %0, label %do.body, label %if.end4, !dbg !2739

do.body:                                          ; preds = %entry
  %cmp2 = icmp ult i32 %idx, 8, !dbg !2740
  %1 = call addrspace(1) i1 @llvm.chess_manifest(i1 %cmp2), !dbg !2740
  br i1 %1, label %if.end4, label %if.then3, !dbg !2744

if.then3:                                         ; preds = %do.body
  call addrspace(1) void @llvm.chess_error(metadata !1863), !dbg !2740
  unreachable, !dbg !2740

if.end4:                                          ; preds = %do.body, %entry
  %cmp5 = icmp ult i32 %idx, 8, !dbg !2739
  call addrspace(1) void @llvm.assume(i1 %cmp5), !dbg !2739
  %call = call addrspace(1) %"class.aie::detail::vector_elem_ref" @_ZN3aie6detail6vectorIiLj8EE8elem_refEj(%"class.aie::detail::vector.3"* nonnull dereferenceable(32) %this, i32 %idx) #26, !dbg !2745
  %2 = getelementptr inbounds %"class.aie::detail::vector_elem_ref", %"class.aie::detail::vector_elem_ref"* %retval, i32 0, i32 0, !dbg !2745
  %3 = extractvalue %"class.aie::detail::vector_elem_ref" %call, 0, !dbg !2745
  store %"class.aie::detail::vector.3"* %3, %"class.aie::detail::vector.3"** %2, align 4, !dbg !2745
  %4 = getelementptr inbounds %"class.aie::detail::vector_elem_ref", %"class.aie::detail::vector_elem_ref"* %retval, i32 0, i32 1, !dbg !2745
  %5 = extractvalue %"class.aie::detail::vector_elem_ref" %call, 1, !dbg !2745
  store i32 %5, i32* %4, align 4, !dbg !2745
  %6 = load %"class.aie::detail::vector_elem_ref", %"class.aie::detail::vector_elem_ref"* %retval, align 4, !dbg !2746
  ret %"class.aie::detail::vector_elem_ref" %6, !dbg !2746
}

; Function Attrs: alwaysinline nounwind mustprogress
define linkonce_odr dso_local nonnull align 4 dereferenceable(8) %"class.aie::detail::vector_elem_ref"* @_ZN3aie6detail15vector_elem_refIiLj8EEaSERKi(%"class.aie::detail::vector_elem_ref"* nonnull dereferenceable(8) %this, i32* nonnull align 4 dereferenceable(4) %v) addrspace(1) #9 comdat align 2 !dbg !2747 {
entry:
  call addrspace(1) void @llvm.dbg.value(metadata %"class.aie::detail::vector_elem_ref"* %this, metadata !2749, metadata !DIExpression()), !dbg !2752
  call addrspace(1) void @llvm.dbg.value(metadata i32* %v, metadata !2751, metadata !DIExpression()), !dbg !2752
  %parent = getelementptr inbounds %"class.aie::detail::vector_elem_ref", %"class.aie::detail::vector_elem_ref"* %this, i32 0, i32 0, !dbg !2753
  %0 = load %"class.aie::detail::vector.3"*, %"class.aie::detail::vector.3"** %parent, align 4, !dbg !2753, !tbaa !2754
  %1 = load i32, i32* %v, align 4, !dbg !2756, !tbaa !1117
  %offset = getelementptr inbounds %"class.aie::detail::vector_elem_ref", %"class.aie::detail::vector_elem_ref"* %this, i32 0, i32 1, !dbg !2757
  %2 = load i32, i32* %offset, align 4, !dbg !2757, !tbaa !2758
  call addrspace(1) void @_ZN3aie6detail6vectorIiLj8EE3setEij(%"class.aie::detail::vector.3"* nonnull dereferenceable(32) %0, i32 %1, i32 %2) #26, !dbg !2759
  ret %"class.aie::detail::vector_elem_ref"* %this, !dbg !2760
}

; Function Attrs: alwaysinline nounwind mustprogress
define linkonce_odr dso_local void @_ZN3aie6detail6vectorIiLj8EE3setEij(%"class.aie::detail::vector.3"* nonnull dereferenceable(32) %this, i32 %v, i32 %idx) addrspace(1) #9 comdat align 2 !dbg !2761 {
entry:
  %tmp = alloca %struct.v8int32, align 32
  call addrspace(1) void @llvm.dbg.value(metadata %"class.aie::detail::vector.3"* %this, metadata !2763, metadata !DIExpression()), !dbg !2766
  call addrspace(1) void @llvm.dbg.value(metadata i32 %v, metadata !2764, metadata !DIExpression()), !dbg !2766
  call addrspace(1) void @llvm.dbg.value(metadata i32 %idx, metadata !2765, metadata !DIExpression()), !dbg !2766
  %cmp = icmp ult i32 %idx, 8, !dbg !2767
  %0 = call addrspace(1) i1 @llvm.is.constant.i1(i1 %cmp), !dbg !2767
  br i1 %0, label %do.body, label %if.end4, !dbg !2769

do.body:                                          ; preds = %entry
  %cmp2 = icmp ult i32 %idx, 8, !dbg !2770
  %1 = call addrspace(1) i1 @llvm.chess_manifest(i1 %cmp2), !dbg !2770
  br i1 %1, label %if.end4, label %if.then3, !dbg !2774

if.then3:                                         ; preds = %do.body
  call addrspace(1) void @llvm.chess_error(metadata !1863), !dbg !2770
  unreachable, !dbg !2770

if.end4:                                          ; preds = %do.body, %entry
  %cmp5 = icmp ult i32 %idx, 8, !dbg !2769
  call addrspace(1) void @llvm.assume(i1 %cmp5), !dbg !2769
  %data = getelementptr inbounds %"class.aie::detail::vector.3", %"class.aie::detail::vector.3"* %this, i32 0, i32 0, !dbg !2775
  %2 = bitcast %struct.v8int32* %tmp to i8*, !dbg !2780
  call addrspace(1) void @llvm.lifetime.start.p0i8(i64 32, i8* %2) #24, !dbg !2780
  %data6 = getelementptr inbounds %"class.aie::detail::vector.3", %"class.aie::detail::vector.3"* %this, i32 0, i32 0, !dbg !2781
  %3 = load %struct.v8int32, %struct.v8int32* %data6, align 32, !dbg !2780, !tbaa !2782
  %call = call addrspace(1) %struct.v8int32 @_Z8upd_elem7v8int32ji(%struct.v8int32 %3, i32 %idx, i32 %v) #26, !dbg !2780
  %4 = getelementptr inbounds %struct.v8int32, %struct.v8int32* %tmp, i32 0, i32 0, !dbg !2780
  %5 = extractvalue %struct.v8int32 %call, 0, !dbg !2780
  store %struct.ipd.custom_type.v32int8.v32int8 %5, %struct.ipd.custom_type.v32int8.v32int8* %4, align 32, !dbg !2780
  %6 = load %struct.v8int32, %struct.v8int32* %tmp, align 32, !dbg !2780, !tbaa !1652
  store %struct.v8int32 %6, %struct.v8int32* %data, align 32, !dbg !2780, !tbaa !1652
  %7 = bitcast %struct.v8int32* %tmp to i8*, !dbg !2780
  call addrspace(1) void @llvm.lifetime.end.p0i8(i64 32, i8* %7) #24, !dbg !2780
  ret void, !dbg !2783
}

; Function Attrs: alwaysinline nounwind mustprogress
define linkonce_odr dso_local %struct.v8int32 @_Z8upd_elem7v8int32ji(%struct.v8int32 %a0.coerce, i32 %a1, i32 %a2) addrspace(1) #9 comdat {
entry:
  %retval = alloca %struct.v8int32, align 32
  %call = call x86_regcallcc addrspace(1) %struct.v8int32 @__regcall3__chessintr_v8int32_upd_elem_v8int32___uint___sint(%struct.v8int32 %a0.coerce, i32 zeroext %a1, i32 signext %a2) #30
  %0 = getelementptr inbounds %struct.v8int32, %struct.v8int32* %retval, i32 0, i32 0
  %1 = extractvalue %struct.v8int32 %call, 0
  store %struct.ipd.custom_type.v32int8.v32int8 %1, %struct.ipd.custom_type.v32int8.v32int8* %0, align 32
  %2 = load %struct.v8int32, %struct.v8int32* %retval, align 32
  ret %struct.v8int32 %2
}

; Function Attrs: nounwind readnone willreturn
declare dso_local x86_regcallcc %struct.v8int32 @__regcall3__chessintr_v8int32_upd_elem_v8int32___uint___sint(%struct.v8int32, i32 zeroext, i32 signext) addrspace(1) #13

; Function Attrs: alwaysinline nounwind mustprogress
define linkonce_odr dso_local %"class.aie::detail::vector_elem_ref" @_ZN3aie6detail6vectorIiLj8EE8elem_refEj(%"class.aie::detail::vector.3"* nonnull dereferenceable(32) %this, i32 %idx) addrspace(1) #9 comdat align 2 !dbg !2784 {
entry:
  %retval = alloca %"class.aie::detail::vector_elem_ref", align 4
  call addrspace(1) void @llvm.dbg.value(metadata %"class.aie::detail::vector.3"* %this, metadata !2786, metadata !DIExpression()), !dbg !2788
  call addrspace(1) void @llvm.dbg.value(metadata i32 %idx, metadata !2787, metadata !DIExpression()), !dbg !2788
  %cmp = icmp ult i32 %idx, 8, !dbg !2789
  %0 = call addrspace(1) i1 @llvm.is.constant.i1(i1 %cmp), !dbg !2789
  br i1 %0, label %do.body, label %if.end4, !dbg !2791

do.body:                                          ; preds = %entry
  %cmp2 = icmp ult i32 %idx, 8, !dbg !2792
  %1 = call addrspace(1) i1 @llvm.chess_manifest(i1 %cmp2), !dbg !2792
  br i1 %1, label %if.end4, label %if.then3, !dbg !2796

if.then3:                                         ; preds = %do.body
  call addrspace(1) void @llvm.chess_error(metadata !1863), !dbg !2792
  unreachable, !dbg !2792

if.end4:                                          ; preds = %do.body, %entry
  %cmp5 = icmp ult i32 %idx, 8, !dbg !2791
  call addrspace(1) void @llvm.assume(i1 %cmp5), !dbg !2791
  call addrspace(1) void @_ZN3aie6detail15vector_elem_refIiLj8EEC2ERNS0_6vectorIiLj8EEEj(%"class.aie::detail::vector_elem_ref"* nonnull dereferenceable(8) %retval, %"class.aie::detail::vector.3"* nonnull align 32 dereferenceable(32) %this, i32 %idx) #26, !dbg !2797
  %2 = load %"class.aie::detail::vector_elem_ref", %"class.aie::detail::vector_elem_ref"* %retval, align 4, !dbg !2798
  ret %"class.aie::detail::vector_elem_ref" %2, !dbg !2798
}

; Function Attrs: alwaysinline nounwind
define linkonce_odr dso_local void @_ZN3aie6detail15vector_elem_refIiLj8EEC2ERNS0_6vectorIiLj8EEEj(%"class.aie::detail::vector_elem_ref"* nonnull dereferenceable(8) %this, %"class.aie::detail::vector.3"* nonnull align 32 dereferenceable(32) %v, i32 %idx) unnamed_addr addrspace(1) #11 comdat align 2 !dbg !2799 {
entry:
  call addrspace(1) void @llvm.dbg.value(metadata %"class.aie::detail::vector_elem_ref"* %this, metadata !2801, metadata !DIExpression()), !dbg !2804
  call addrspace(1) void @llvm.dbg.value(metadata %"class.aie::detail::vector.3"* %v, metadata !2802, metadata !DIExpression()), !dbg !2804
  call addrspace(1) void @llvm.dbg.value(metadata i32 %idx, metadata !2803, metadata !DIExpression()), !dbg !2804
  %parent = getelementptr inbounds %"class.aie::detail::vector_elem_ref", %"class.aie::detail::vector_elem_ref"* %this, i32 0, i32 0, !dbg !2805
  store %"class.aie::detail::vector.3"* %v, %"class.aie::detail::vector.3"** %parent, align 4, !dbg !2805, !tbaa !1974
  %offset = getelementptr inbounds %"class.aie::detail::vector_elem_ref", %"class.aie::detail::vector_elem_ref"* %this, i32 0, i32 1, !dbg !2806
  store i32 %idx, i32* %offset, align 4, !dbg !2806, !tbaa !2758
  ret void, !dbg !2807
}

; Function Attrs: alwaysinline nounwind mustprogress
define linkonce_odr dso_local i32 @_ZNK3aie6detail21vector_elem_const_refIiLj8EE3getEv(%"class.aie::detail::vector_elem_const_ref.11"* nonnull dereferenceable(8) %this) addrspace(1) #9 comdat align 2 !dbg !2808 {
entry:
  call addrspace(1) void @llvm.dbg.value(metadata %"class.aie::detail::vector_elem_const_ref.11"* %this, metadata !2810, metadata !DIExpression()), !dbg !2812
  %parent = getelementptr inbounds %"class.aie::detail::vector_elem_const_ref.11", %"class.aie::detail::vector_elem_const_ref.11"* %this, i32 0, i32 0, !dbg !2813
  %0 = load %"class.aie::detail::vector.3"*, %"class.aie::detail::vector.3"** %parent, align 4, !dbg !2813, !tbaa !2814
  %offset = getelementptr inbounds %"class.aie::detail::vector_elem_const_ref.11", %"class.aie::detail::vector_elem_const_ref.11"* %this, i32 0, i32 1, !dbg !2815
  %1 = load i32, i32* %offset, align 4, !dbg !2815, !tbaa !2816
  %call = call addrspace(1) i32 @_ZNK3aie6detail6vectorIiLj8EE3getEj(%"class.aie::detail::vector.3"* nonnull dereferenceable(32) %0, i32 %1) #26, !dbg !2817
  ret i32 %call, !dbg !2818
}

; Function Attrs: alwaysinline nounwind mustprogress
define linkonce_odr dso_local i32 @_ZNK3aie6detail6vectorIiLj8EE3getEj(%"class.aie::detail::vector.3"* nonnull dereferenceable(32) %this, i32 %idx) addrspace(1) #9 comdat align 2 !dbg !2819 {
entry:
  call addrspace(1) void @llvm.dbg.value(metadata %"class.aie::detail::vector.3"* %this, metadata !2821, metadata !DIExpression()), !dbg !2823
  call addrspace(1) void @llvm.dbg.value(metadata i32 %idx, metadata !2822, metadata !DIExpression()), !dbg !2823
  %cmp = icmp ult i32 %idx, 8, !dbg !2824
  %0 = call addrspace(1) i1 @llvm.is.constant.i1(i1 %cmp), !dbg !2824
  br i1 %0, label %do.body, label %if.end4, !dbg !2826

do.body:                                          ; preds = %entry
  %cmp2 = icmp ult i32 %idx, 8, !dbg !2827
  %1 = call addrspace(1) i1 @llvm.chess_manifest(i1 %cmp2), !dbg !2827
  br i1 %1, label %if.end4, label %if.then3, !dbg !2831

if.then3:                                         ; preds = %do.body
  call addrspace(1) void @llvm.chess_error(metadata !1863), !dbg !2827
  unreachable, !dbg !2827

if.end4:                                          ; preds = %do.body, %entry
  %cmp5 = icmp ult i32 %idx, 8, !dbg !2826
  call addrspace(1) void @llvm.assume(i1 %cmp5), !dbg !2826
  %data = getelementptr inbounds %"class.aie::detail::vector.3", %"class.aie::detail::vector.3"* %this, i32 0, i32 0, !dbg !2832
  %2 = load %struct.v8int32, %struct.v8int32* %data, align 32, !dbg !2837, !tbaa !2782
  %call = call addrspace(1) i32 @_Z8ext_elem7v8int32j(%struct.v8int32 %2, i32 %idx) #26, !dbg !2837
  ret i32 %call, !dbg !2838
}

; Function Attrs: alwaysinline nounwind mustprogress
define linkonce_odr dso_local i32 @_Z8ext_elem7v8int32j(%struct.v8int32 %a0.coerce, i32 %a1) addrspace(1) #9 comdat {
entry:
  %call = call x86_regcallcc signext addrspace(1) i32 @__regcall3__chessintr___sint_ext_elem_v8int32___uint(%struct.v8int32 %a0.coerce, i32 zeroext %a1) #30
  ret i32 %call
}

; Function Attrs: nounwind readnone willreturn
declare dso_local x86_regcallcc signext i32 @__regcall3__chessintr___sint_ext_elem_v8int32___uint(%struct.v8int32, i32 zeroext) addrspace(1) #13

; Function Attrs: alwaysinline nounwind mustprogress
define linkonce_odr dso_local %"class.aie::detail::vector_elem_const_ref.11" @_ZNK3aie6detail6vectorIiLj8EE14elem_const_refEj(%"class.aie::detail::vector.3"* nonnull dereferenceable(32) %this, i32 %idx) addrspace(1) #9 comdat align 2 !dbg !2839 {
entry:
  %retval = alloca %"class.aie::detail::vector_elem_const_ref.11", align 4
  call addrspace(1) void @llvm.dbg.value(metadata %"class.aie::detail::vector.3"* %this, metadata !2841, metadata !DIExpression()), !dbg !2843
  call addrspace(1) void @llvm.dbg.value(metadata i32 %idx, metadata !2842, metadata !DIExpression()), !dbg !2843
  %cmp = icmp ult i32 %idx, 8, !dbg !2844
  %0 = call addrspace(1) i1 @llvm.is.constant.i1(i1 %cmp), !dbg !2844
  br i1 %0, label %do.body, label %if.end4, !dbg !2846

do.body:                                          ; preds = %entry
  %cmp2 = icmp ult i32 %idx, 8, !dbg !2847
  %1 = call addrspace(1) i1 @llvm.chess_manifest(i1 %cmp2), !dbg !2847
  br i1 %1, label %if.end4, label %if.then3, !dbg !2851

if.then3:                                         ; preds = %do.body
  call addrspace(1) void @llvm.chess_error(metadata !1863), !dbg !2847
  unreachable, !dbg !2847

if.end4:                                          ; preds = %do.body, %entry
  %cmp5 = icmp ult i32 %idx, 8, !dbg !2846
  call addrspace(1) void @llvm.assume(i1 %cmp5), !dbg !2846
  call addrspace(1) void @_ZN3aie6detail21vector_elem_const_refIiLj8EEC2ERKNS0_6vectorIiLj8EEEj(%"class.aie::detail::vector_elem_const_ref.11"* nonnull dereferenceable(8) %retval, %"class.aie::detail::vector.3"* nonnull align 32 dereferenceable(32) %this, i32 %idx) #26, !dbg !2852
  %2 = load %"class.aie::detail::vector_elem_const_ref.11", %"class.aie::detail::vector_elem_const_ref.11"* %retval, align 4, !dbg !2853
  ret %"class.aie::detail::vector_elem_const_ref.11" %2, !dbg !2853
}

; Function Attrs: alwaysinline nounwind
define linkonce_odr dso_local void @_ZN3aie6detail21vector_elem_const_refIiLj8EEC2ERKNS0_6vectorIiLj8EEEj(%"class.aie::detail::vector_elem_const_ref.11"* nonnull dereferenceable(8) %this, %"class.aie::detail::vector.3"* nonnull align 32 dereferenceable(32) %v, i32 %idx) unnamed_addr addrspace(1) #11 comdat align 2 !dbg !2854 {
entry:
  call addrspace(1) void @llvm.dbg.value(metadata %"class.aie::detail::vector_elem_const_ref.11"* %this, metadata !2856, metadata !DIExpression()), !dbg !2860
  call addrspace(1) void @llvm.dbg.value(metadata %"class.aie::detail::vector.3"* %v, metadata !2858, metadata !DIExpression()), !dbg !2860
  call addrspace(1) void @llvm.dbg.value(metadata i32 %idx, metadata !2859, metadata !DIExpression()), !dbg !2860
  %parent = getelementptr inbounds %"class.aie::detail::vector_elem_const_ref.11", %"class.aie::detail::vector_elem_const_ref.11"* %this, i32 0, i32 0, !dbg !2861
  store %"class.aie::detail::vector.3"* %v, %"class.aie::detail::vector.3"** %parent, align 4, !dbg !2861, !tbaa !1974
  %offset = getelementptr inbounds %"class.aie::detail::vector_elem_const_ref.11", %"class.aie::detail::vector_elem_const_ref.11"* %this, i32 0, i32 1, !dbg !2862
  store i32 %idx, i32* %offset, align 4, !dbg !2862, !tbaa !2816
  ret void, !dbg !2863
}

; Function Attrs: alwaysinline nounwind mustprogress
define linkonce_odr dso_local %struct.v8int32 @_ZN3aie6detail14vector_storageIiLj8EE5undefEv() addrspace(1) #9 comdat align 2 !dbg !2864 {
entry:
  %retval = alloca %struct.v8int32, align 32
  %call = call addrspace(1) %struct.v8int32 @_Z13undef_v8int32v() #26, !dbg !2865
  %0 = getelementptr inbounds %struct.v8int32, %struct.v8int32* %retval, i32 0, i32 0, !dbg !2865
  %1 = extractvalue %struct.v8int32 %call, 0, !dbg !2865
  store %struct.ipd.custom_type.v32int8.v32int8 %1, %struct.ipd.custom_type.v32int8.v32int8* %0, align 32, !dbg !2865
  %2 = load %struct.v8int32, %struct.v8int32* %retval, align 32, !dbg !2866
  ret %struct.v8int32 %2, !dbg !2866
}

; Function Attrs: alwaysinline nounwind mustprogress
define linkonce_odr dso_local %struct.v8int32 @_Z13undef_v8int32v() addrspace(1) #9 comdat {
entry:
  %retval = alloca %struct.v8int32, align 32
  %call = call x86_regcallcc addrspace(1) %struct.v8int32 @__regcall3__chessintr_v8int32_undef_v8int32() #30
  %0 = getelementptr inbounds %struct.v8int32, %struct.v8int32* %retval, i32 0, i32 0
  %1 = extractvalue %struct.v8int32 %call, 0
  store %struct.ipd.custom_type.v32int8.v32int8 %1, %struct.ipd.custom_type.v32int8.v32int8* %0, align 32
  %2 = load %struct.v8int32, %struct.v8int32* %retval, align 32
  ret %struct.v8int32 %2
}

; Function Attrs: nounwind readnone willreturn
declare dso_local x86_regcallcc %struct.v8int32 @__regcall3__chessintr_v8int32_undef_v8int32() addrspace(1) #13

; Function Attrs: alwaysinline nounwind mustprogress
define linkonce_odr dso_local %"class.aie::detail::vector.3" @_ZN3aie6detail8bit_bitsILj32EiLj8ELNS0_5BitOpE0EE3runERKiRKNS0_6vectorIiLj8EEE(i32* nonnull align 4 dereferenceable(4) %a, %"class.aie::detail::vector.3"* nonnull align 32 dereferenceable(32) %v) addrspace(1) #9 comdat align 2 !dbg !2867 {
entry:
  %retval = alloca %"class.aie::detail::vector.3", align 32
  call addrspace(1) void @llvm.dbg.value(metadata i32* %a, metadata !2888, metadata !DIExpression()), !dbg !2890
  call addrspace(1) void @llvm.dbg.value(metadata %"class.aie::detail::vector.3"* %v, metadata !2889, metadata !DIExpression()), !dbg !2890
  %0 = load i32, i32* %a, align 4, !dbg !2891, !tbaa !1117
  %call = call addrspace(1) %"class.aie::detail::vector.3" @_ZN3aie6detail13bit_bits_implILj32EiLj8ELNS0_5BitOpE0EE3runEiRKNS0_6vectorIiLj8EEE(i32 %0, %"class.aie::detail::vector.3"* nonnull align 32 dereferenceable(32) %v) #26, !dbg !2892
  %1 = getelementptr inbounds %"class.aie::detail::vector.3", %"class.aie::detail::vector.3"* %retval, i32 0, i32 0, !dbg !2892
  %2 = extractvalue %"class.aie::detail::vector.3" %call, 0, !dbg !2892
  store %struct.v8int32 %2, %struct.v8int32* %1, align 32, !dbg !2892
  %3 = load %"class.aie::detail::vector.3", %"class.aie::detail::vector.3"* %retval, align 32, !dbg !2893
  ret %"class.aie::detail::vector.3" %3, !dbg !2893
}

; Function Attrs: alwaysinline nounwind mustprogress
define linkonce_odr dso_local %"class.aie::detail::vector.3" @_ZN3aie6detail13bit_bits_implILj32EiLj8ELNS0_5BitOpE0EE3runEiRKNS0_6vectorIiLj8EEE(i32 %a, %"class.aie::detail::vector.3"* nonnull align 32 dereferenceable(32) %v) addrspace(1) #9 comdat align 2 !dbg !2894 {
entry:
  %retval = alloca %"class.aie::detail::vector.3", align 32
  %custom_type.tmp = alloca %"class.aie::detail::vector.3", align 32
  %ref.tmp = alloca i32, align 4
  %agg.tmp = alloca %"class.aie::detail::vector_elem_const_ref.11", align 4
  %ref.tmp2 = alloca %"class.aie::detail::vector_elem_ref", align 4
  call addrspace(1) void @llvm.dbg.value(metadata i32 %a, metadata !2913, metadata !DIExpression()), !dbg !2918
  call addrspace(1) void @llvm.dbg.value(metadata %"class.aie::detail::vector.3"* %v, metadata !2914, metadata !DIExpression()), !dbg !2918
  call addrspace(1) void @llvm.dbg.declare(metadata %"class.aie::detail::vector.3"* %retval, metadata !2915, metadata !DIExpression()), !dbg !2919
  call addrspace(1) void @_ZN3aie6detail6vectorIiLj8EEC2Ev(%"class.aie::detail::vector.3"* nonnull dereferenceable(32) %custom_type.tmp) #26, !dbg !2919
  %0 = load %"class.aie::detail::vector.3", %"class.aie::detail::vector.3"* %custom_type.tmp, align 32, !dbg !2919, !tbaa !2019
  store %"class.aie::detail::vector.3" %0, %"class.aie::detail::vector.3"* %retval, align 32, !dbg !2919, !tbaa !2019
  call addrspace(1) void @llvm.dbg.value(metadata i32 undef, metadata !2916, metadata !DIExpression()), !dbg !2920
  call addrspace(1) void @llvm.dbg.value(metadata i32 0, metadata !2916, metadata !DIExpression()), !dbg !2920
  br label %for.body, !dbg !2921

for.body:                                         ; preds = %for.body, %entry
  %i.01 = phi i32 [ 0, %entry ], [ %inc, %for.body ]
  call addrspace(1) void @llvm.dbg.value(metadata i32 %i.01, metadata !2916, metadata !DIExpression()), !dbg !2920
  %1 = bitcast i32* %ref.tmp to i8*, !dbg !2922
  call addrspace(1) void @llvm.lifetime.start.p0i8(i64 4, i8* %1) #24, !dbg !2922
  %call = call addrspace(1) %"class.aie::detail::vector_elem_const_ref.11" @_ZNK3aie6detail6vectorIiLj8EEixEj(%"class.aie::detail::vector.3"* nonnull dereferenceable(32) %v, i32 %i.01) #26, !dbg !2926
  %2 = getelementptr inbounds %"class.aie::detail::vector_elem_const_ref.11", %"class.aie::detail::vector_elem_const_ref.11"* %agg.tmp, i32 0, i32 0, !dbg !2926
  %3 = extractvalue %"class.aie::detail::vector_elem_const_ref.11" %call, 0, !dbg !2926
  store %"class.aie::detail::vector.3"* %3, %"class.aie::detail::vector.3"** %2, align 4, !dbg !2926
  %4 = getelementptr inbounds %"class.aie::detail::vector_elem_const_ref.11", %"class.aie::detail::vector_elem_const_ref.11"* %agg.tmp, i32 0, i32 1, !dbg !2926
  %5 = extractvalue %"class.aie::detail::vector_elem_const_ref.11" %call, 1, !dbg !2926
  store i32 %5, i32* %4, align 4, !dbg !2926
  %6 = load %"class.aie::detail::vector_elem_const_ref.11", %"class.aie::detail::vector_elem_const_ref.11"* %agg.tmp, align 4, !dbg !2927, !tbaa !2681
  %call1 = call addrspace(1) i32 @_ZN3aie6detailanIiNS0_21vector_elem_const_refIiLj8EEEEEDaT_T0_(i32 %a, %"class.aie::detail::vector_elem_const_ref.11" %6) #26, !dbg !2927
  store i32 %call1, i32* %ref.tmp, align 4, !dbg !2922, !tbaa !1117
  %7 = bitcast %"class.aie::detail::vector_elem_ref"* %ref.tmp2 to i8*, !dbg !2928
  call addrspace(1) void @llvm.lifetime.start.p0i8(i64 8, i8* %7) #24, !dbg !2928
  %call3 = call addrspace(1) %"class.aie::detail::vector_elem_ref" @_ZN3aie6detail6vectorIiLj8EEixEj(%"class.aie::detail::vector.3"* nonnull dereferenceable(32) %retval, i32 %i.01) #26, !dbg !2928
  %8 = getelementptr inbounds %"class.aie::detail::vector_elem_ref", %"class.aie::detail::vector_elem_ref"* %ref.tmp2, i32 0, i32 0, !dbg !2928
  %9 = extractvalue %"class.aie::detail::vector_elem_ref" %call3, 0, !dbg !2928
  store %"class.aie::detail::vector.3"* %9, %"class.aie::detail::vector.3"** %8, align 4, !dbg !2928
  %10 = getelementptr inbounds %"class.aie::detail::vector_elem_ref", %"class.aie::detail::vector_elem_ref"* %ref.tmp2, i32 0, i32 1, !dbg !2928
  %11 = extractvalue %"class.aie::detail::vector_elem_ref" %call3, 1, !dbg !2928
  store i32 %11, i32* %10, align 4, !dbg !2928
  %call4 = call nonnull align 4 dereferenceable(8) addrspace(1) %"class.aie::detail::vector_elem_ref"* @_ZN3aie6detail15vector_elem_refIiLj8EEaSERKi(%"class.aie::detail::vector_elem_ref"* nonnull dereferenceable(8) %ref.tmp2, i32* nonnull align 4 dereferenceable(4) %ref.tmp) #26, !dbg !2929
  %12 = bitcast %"class.aie::detail::vector_elem_ref"* %ref.tmp2 to i8*, !dbg !2928
  call addrspace(1) void @llvm.lifetime.end.p0i8(i64 8, i8* %12) #24, !dbg !2928
  %13 = bitcast i32* %ref.tmp to i8*, !dbg !2928
  call addrspace(1) void @llvm.lifetime.end.p0i8(i64 4, i8* %13) #24, !dbg !2928
  %inc = add nuw nsw i32 %i.01, 1, !dbg !2930
  call addrspace(1) void @llvm.dbg.value(metadata i32 %inc, metadata !2916, metadata !DIExpression()), !dbg !2920
  %exitcond = icmp ne i32 %inc, 8, !dbg !2931
  br i1 %exitcond, label %for.body, label %for.end, !dbg !2921, !llvm.loop !2932

for.end:                                          ; preds = %for.body
  %14 = load %"class.aie::detail::vector.3", %"class.aie::detail::vector.3"* %retval, align 32, !dbg !2934
  ret %"class.aie::detail::vector.3" %14, !dbg !2934
}

; Function Attrs: alwaysinline nounwind mustprogress
define linkonce_odr dso_local i32 @_ZN3aie6detailanIiNS0_21vector_elem_const_refIiLj8EEEEEDaT_T0_(i32 %v1, %"class.aie::detail::vector_elem_const_ref.11" %v2.coerce) addrspace(1) #9 comdat !dbg !2935 {
entry:
  %v2 = alloca %"class.aie::detail::vector_elem_const_ref.11", align 4
  store %"class.aie::detail::vector_elem_const_ref.11" %v2.coerce, %"class.aie::detail::vector_elem_const_ref.11"* %v2, align 4
  call addrspace(1) void @llvm.dbg.value(metadata i32 %v1, metadata !2937, metadata !DIExpression()), !dbg !2939
  call addrspace(1) void @llvm.dbg.declare(metadata %"class.aie::detail::vector_elem_const_ref.11"* %v2, metadata !2938, metadata !DIExpression()), !dbg !2940
  %call = call addrspace(1) i32 @_ZNK3aie6detail21vector_elem_const_refIiLj8EE3getEv(%"class.aie::detail::vector_elem_const_ref.11"* nonnull dereferenceable(8) %v2) #26, !dbg !2941
  %and = and i32 %v1, %call, !dbg !2945
  ret i32 %and, !dbg !2946
}

; Function Attrs: alwaysinline nounwind mustprogress
define linkonce_odr dso_local %"class.aie::detail::vector" @_ZN3aie6detail22elementary_vector_bitsILNS0_12ElementaryOpE7ELj32EfiLj8EE3runERKNS0_6vectorIiLj8EEEi(%"class.aie::detail::vector.3"* nonnull align 32 dereferenceable(32) %v, i32 %shift) addrspace(1) #9 comdat align 2 !dbg !2947 {
entry:
  %retval = alloca %"class.aie::detail::vector", align 32
  call addrspace(1) void @llvm.dbg.value(metadata %"class.aie::detail::vector.3"* %v, metadata !2959, metadata !DIExpression()), !dbg !2961
  call addrspace(1) void @llvm.dbg.value(metadata i32 0, metadata !2960, metadata !DIExpression()), !dbg !2961
  %call = call addrspace(1) %"class.aie::detail::vector" @_ZN3aie6detail27elementary_vector_bits_implILNS0_12ElementaryOpE7ELj32EfiLj8EE3runERKNS0_6vectorIiLj8EEEi(%"class.aie::detail::vector.3"* nonnull align 32 dereferenceable(32) %v, i32 0) #26, !dbg !2962
  %0 = getelementptr inbounds %"class.aie::detail::vector", %"class.aie::detail::vector"* %retval, i32 0, i32 0, !dbg !2962
  %1 = extractvalue %"class.aie::detail::vector" %call, 0, !dbg !2962
  store %struct.v8float %1, %struct.v8float* %0, align 32, !dbg !2962
  %2 = load %"class.aie::detail::vector", %"class.aie::detail::vector"* %retval, align 32, !dbg !2963
  ret %"class.aie::detail::vector" %2, !dbg !2963
}

; Function Attrs: alwaysinline nounwind mustprogress
define linkonce_odr dso_local %"class.aie::detail::vector" @_ZN3aie6detail27elementary_vector_bits_implILNS0_12ElementaryOpE7ELj32EfiLj8EE3runERKNS0_6vectorIiLj8EEEi(%"class.aie::detail::vector.3"* nonnull align 32 dereferenceable(32) %v, i32 %shift) addrspace(1) #9 comdat align 2 !dbg !2964 {
entry:
  %retval = alloca %"class.aie::detail::vector", align 32
  %custom_type.tmp = alloca %"class.aie::detail::vector", align 32
  %tmp = alloca %"class.aie::detail::vector", align 32
  %custom_type.tmp1 = alloca %"class.aie::detail::vector", align 32
  %agg.tmp = alloca %struct.v8float, align 32
  %agg.tmp2 = alloca %struct.v8int32, align 32
  %ref.tmp = alloca %"class.aie::detail::vector.3", align 32
  call addrspace(1) void @llvm.dbg.value(metadata %"class.aie::detail::vector.3"* %v, metadata !2975, metadata !DIExpression()), !dbg !2984
  call addrspace(1) void @llvm.dbg.value(metadata i32 0, metadata !2976, metadata !DIExpression()), !dbg !2984
  call addrspace(1) void @llvm.dbg.declare(metadata %"class.aie::detail::vector"* %retval, metadata !2977, metadata !DIExpression()), !dbg !2985
  call addrspace(1) void @_ZN3aie6detail6vectorIfLj8EEC2Ev(%"class.aie::detail::vector"* nonnull dereferenceable(32) %custom_type.tmp) #26, !dbg !2985
  %0 = load %"class.aie::detail::vector", %"class.aie::detail::vector"* %custom_type.tmp, align 32, !dbg !2985, !tbaa !1235
  store %"class.aie::detail::vector" %0, %"class.aie::detail::vector"* %retval, align 32, !dbg !2985, !tbaa !1235
  call addrspace(1) void @llvm.dbg.value(metadata i32 undef, metadata !2978, metadata !DIExpression()), !dbg !2984
  call addrspace(1) void @llvm.dbg.value(metadata i32 1, metadata !2978, metadata !DIExpression()), !dbg !2984
  call addrspace(1) void @llvm.dbg.value(metadata i32 undef, metadata !2979, metadata !DIExpression()), !dbg !2986
  call addrspace(1) void @llvm.dbg.value(metadata i32 0, metadata !2979, metadata !DIExpression()), !dbg !2986
  call addrspace(1) void @llvm.dbg.value(metadata i32 0, metadata !2979, metadata !DIExpression()), !dbg !2986
  store %"class.aie::detail::vector" undef, %"class.aie::detail::vector"* %tmp, align 32, !dbg !2987
  %1 = bitcast %"class.aie::detail::vector"* %tmp to i8*, !dbg !2987
  call addrspace(1) void @llvm.lifetime.start.p0i8(i64 32, i8* %1) #24, !dbg !2987
  call addrspace(1) void @llvm.dbg.declare(metadata %"class.aie::detail::vector"* %tmp, metadata !2981, metadata !DIExpression()), !dbg !2988
  %2 = bitcast %"class.aie::detail::vector.3"* %ref.tmp to i8*, !dbg !2989
  call addrspace(1) void @llvm.lifetime.start.p0i8(i64 32, i8* %2) #24, !dbg !2989
  %call = call addrspace(1) %"class.aie::detail::vector.3" @_ZNK3aie6detail6vectorIiLj8EE12grow_extractILj8EEENS1_IiXT_EEEj(%"class.aie::detail::vector.3"* nonnull dereferenceable(32) %v, i32 0) #26, !dbg !2990
  %3 = getelementptr inbounds %"class.aie::detail::vector.3", %"class.aie::detail::vector.3"* %ref.tmp, i32 0, i32 0, !dbg !2990
  %4 = extractvalue %"class.aie::detail::vector.3" %call, 0, !dbg !2990
  store %struct.v8int32 %4, %struct.v8int32* %3, align 32, !dbg !2990
  %call3 = call addrspace(1) %struct.v8int32 @_ZNK3aie6detail6vectorIiLj8EEcv7v8int32Ev(%"class.aie::detail::vector.3"* nonnull dereferenceable(32) %ref.tmp) #26, !dbg !2989
  %5 = getelementptr inbounds %struct.v8int32, %struct.v8int32* %agg.tmp2, i32 0, i32 0, !dbg !2989
  %6 = extractvalue %struct.v8int32 %call3, 0, !dbg !2989
  store %struct.ipd.custom_type.v32int8.v32int8 %6, %struct.ipd.custom_type.v32int8.v32int8* %5, align 32, !dbg !2989
  %7 = load %struct.v8int32, %struct.v8int32* %agg.tmp2, align 32, !dbg !2991, !tbaa !1652
  %call4 = call addrspace(1) %struct.v8float @_Z9fix2float7v8int32i(%struct.v8int32 %7, i32 0) #26, !dbg !2991
  %8 = getelementptr inbounds %struct.v8float, %struct.v8float* %agg.tmp, i32 0, i32 0, !dbg !2991
  %9 = extractvalue %struct.v8float %call4, 0, !dbg !2991
  store %struct.ipd.custom_type.v32int8.v32int8 %9, %struct.ipd.custom_type.v32int8.v32int8* %8, align 32, !dbg !2991
  %10 = load %struct.v8float, %struct.v8float* %agg.tmp, align 32, !dbg !2991, !tbaa !1652
  call addrspace(1) void @_ZN3aie6detail6vectorIfLj8EEC2E7v8float(%"class.aie::detail::vector"* nonnull dereferenceable(32) %custom_type.tmp1, %struct.v8float %10) #26, !dbg !2991
  %11 = load %"class.aie::detail::vector", %"class.aie::detail::vector"* %custom_type.tmp1, align 32, !dbg !2991, !tbaa !1235
  store %"class.aie::detail::vector" %11, %"class.aie::detail::vector"* %tmp, align 32, !dbg !2991, !tbaa !1235
  %12 = bitcast %"class.aie::detail::vector.3"* %ref.tmp to i8*, !dbg !2991
  call addrspace(1) void @llvm.lifetime.end.p0i8(i64 32, i8* %12) #24, !dbg !2991
  %call5 = call nonnull align 32 dereferenceable(32) addrspace(1) %"class.aie::detail::vector"* @_ZN3aie6detail6vectorIfLj8EE6insertILj8EEERS2_jRKNS1_IfXT_EEE(%"class.aie::detail::vector"* nonnull dereferenceable(32) %retval, i32 0, %"class.aie::detail::vector"* nonnull align 32 dereferenceable(32) %tmp) #26, !dbg !2992
  %13 = bitcast %"class.aie::detail::vector"* %tmp to i8*, !dbg !2994
  call addrspace(1) void @llvm.lifetime.end.p0i8(i64 32, i8* %13) #24, !dbg !2994
  %inc = add nuw nsw i32 0, 1, !dbg !2995
  call addrspace(1) void @llvm.dbg.value(metadata i32 %inc, metadata !2979, metadata !DIExpression()), !dbg !2986
  %14 = load %"class.aie::detail::vector", %"class.aie::detail::vector"* %retval, align 32, !dbg !2996
  ret %"class.aie::detail::vector" %14, !dbg !2996
}

; Function Attrs: alwaysinline nounwind mustprogress
define linkonce_odr dso_local %"class.aie::detail::vector.3" @_ZNK3aie6detail6vectorIiLj8EE12grow_extractILj8EEENS1_IiXT_EEEj(%"class.aie::detail::vector.3"* nonnull dereferenceable(32) %this, i32 %idx) addrspace(1) #9 comdat align 2 !dbg !2997 {
entry:
  %retval = alloca %"class.aie::detail::vector.3", align 32
  call addrspace(1) void @llvm.dbg.value(metadata %"class.aie::detail::vector.3"* %this, metadata !3002, metadata !DIExpression()), !dbg !3004
  call addrspace(1) void @llvm.dbg.value(metadata i32 %idx, metadata !3003, metadata !DIExpression()), !dbg !3004
  %call = call addrspace(1) %"class.aie::detail::vector.3" @_ZNK3aie6detail6vectorIiLj8EE7extractILj8EEENS1_IiXT_EEEj(%"class.aie::detail::vector.3"* nonnull dereferenceable(32) %this, i32 %idx) #26, !dbg !3005
  %0 = getelementptr inbounds %"class.aie::detail::vector.3", %"class.aie::detail::vector.3"* %retval, i32 0, i32 0, !dbg !3005
  %1 = extractvalue %"class.aie::detail::vector.3" %call, 0, !dbg !3005
  store %struct.v8int32 %1, %struct.v8int32* %0, align 32, !dbg !3005
  %2 = load %"class.aie::detail::vector.3", %"class.aie::detail::vector.3"* %retval, align 32, !dbg !3007
  ret %"class.aie::detail::vector.3" %2, !dbg !3007
}

; Function Attrs: alwaysinline nounwind mustprogress
define linkonce_odr dso_local %struct.v8float @_Z9fix2float7v8int32i(%struct.v8int32 %a0.coerce, i32 %a1) addrspace(1) #9 comdat {
entry:
  %retval = alloca %struct.v8float, align 32
  %call = call x86_regcallcc addrspace(1) %struct.v8float @__regcall3__chessintr_v8float_fix2float_v8int32___sint(%struct.v8int32 %a0.coerce, i32 signext 0) #30
  %0 = getelementptr inbounds %struct.v8float, %struct.v8float* %retval, i32 0, i32 0
  %1 = extractvalue %struct.v8float %call, 0
  store %struct.ipd.custom_type.v32int8.v32int8 %1, %struct.ipd.custom_type.v32int8.v32int8* %0, align 32
  %2 = load %struct.v8float, %struct.v8float* %retval, align 32
  ret %struct.v8float %2
}

; Function Attrs: alwaysinline nounwind mustprogress
define linkonce_odr dso_local nonnull align 32 dereferenceable(32) %"class.aie::detail::vector"* @_ZN3aie6detail6vectorIfLj8EE6insertILj8EEERS2_jRKNS1_IfXT_EEE(%"class.aie::detail::vector"* nonnull dereferenceable(32) %this, i32 %idx, %"class.aie::detail::vector"* nonnull align 32 dereferenceable(32) %v) addrspace(1) #9 comdat align 2 !dbg !3008 {
entry:
  call addrspace(1) void @llvm.dbg.value(metadata %"class.aie::detail::vector"* %this, metadata !3016, metadata !DIExpression()), !dbg !3020
  call addrspace(1) void @llvm.dbg.value(metadata i32 %idx, metadata !3017, metadata !DIExpression()), !dbg !3020
  call addrspace(1) void @llvm.dbg.value(metadata %"class.aie::detail::vector"* %v, metadata !3018, metadata !DIExpression()), !dbg !3020
  %cmp = icmp ult i32 %idx, 1, !dbg !3021
  %0 = call addrspace(1) i1 @llvm.is.constant.i1(i1 %cmp), !dbg !3021
  br i1 %0, label %do.body, label %if.end4, !dbg !3023

do.body:                                          ; preds = %entry
  %cmp2 = icmp ult i32 %idx, 1, !dbg !3024
  %1 = call addrspace(1) i1 @llvm.chess_manifest(i1 %cmp2), !dbg !3024
  br i1 %1, label %if.end4, label %if.then3, !dbg !3028

if.then3:                                         ; preds = %do.body
  call addrspace(1) void @llvm.chess_error(metadata !1640), !dbg !3024
  unreachable, !dbg !3024

if.end4:                                          ; preds = %do.body, %entry
  %cmp5 = icmp ult i32 %idx, 1, !dbg !3023
  call addrspace(1) void @llvm.assume(i1 %cmp5), !dbg !3023
  call addrspace(1) void @llvm.dbg.value(metadata i32 undef, metadata !3019, metadata !DIExpression()), !dbg !3020
  call addrspace(1) void @llvm.dbg.value(metadata i32 256, metadata !3019, metadata !DIExpression()), !dbg !3020
  %data = getelementptr inbounds %"class.aie::detail::vector", %"class.aie::detail::vector"* %this, i32 0, i32 0, !dbg !3029
  %data6 = getelementptr inbounds %"class.aie::detail::vector", %"class.aie::detail::vector"* %v, i32 0, i32 0, !dbg !3032
  %2 = load %struct.v8float, %struct.v8float* %data6, align 32, !dbg !3032, !tbaa !1652
  store %struct.v8float %2, %struct.v8float* %data, align 32, !dbg !3032, !tbaa !1652
  ret %"class.aie::detail::vector"* %this, !dbg !3033
}

; Function Attrs: nounwind readnone willreturn
declare dso_local x86_regcallcc %struct.v8float @__regcall3__chessintr_v8float_fix2float_v8int32___sint(%struct.v8int32, i32 signext) addrspace(1) #13

; Function Attrs: alwaysinline nounwind mustprogress
define linkonce_odr dso_local %"class.aie::detail::vector.3" @_ZNK3aie6detail6vectorIiLj8EE7extractILj8EEENS1_IiXT_EEEj(%"class.aie::detail::vector.3"* nonnull dereferenceable(32) %this, i32 %idx) addrspace(1) #9 comdat align 2 !dbg !3034 {
entry:
  call addrspace(1) void @llvm.dbg.value(metadata %"class.aie::detail::vector.3"* %this, metadata !3037, metadata !DIExpression()), !dbg !3040
  call addrspace(1) void @llvm.dbg.value(metadata i32 %idx, metadata !3038, metadata !DIExpression()), !dbg !3040
  %cmp = icmp ult i32 %idx, 1, !dbg !3041
  %0 = call addrspace(1) i1 @llvm.is.constant.i1(i1 %cmp), !dbg !3041
  br i1 %0, label %do.body, label %if.end4, !dbg !3043

do.body:                                          ; preds = %entry
  %cmp2 = icmp ult i32 %idx, 1, !dbg !3044
  %1 = call addrspace(1) i1 @llvm.chess_manifest(i1 %cmp2), !dbg !3044
  br i1 %1, label %if.end4, label %if.then3, !dbg !3048

if.then3:                                         ; preds = %do.body
  call addrspace(1) void @llvm.chess_error(metadata !1640), !dbg !3044
  unreachable, !dbg !3044

if.end4:                                          ; preds = %do.body, %entry
  %cmp5 = icmp ult i32 %idx, 1, !dbg !3043
  call addrspace(1) void @llvm.assume(i1 %cmp5), !dbg !3043
  call addrspace(1) void @llvm.dbg.value(metadata i32 undef, metadata !3039, metadata !DIExpression()), !dbg !3040
  call addrspace(1) void @llvm.dbg.value(metadata i32 256, metadata !3039, metadata !DIExpression()), !dbg !3040
  %2 = load %"class.aie::detail::vector.3", %"class.aie::detail::vector.3"* %this, align 32, !dbg !3049, !tbaa !2019
  ret %"class.aie::detail::vector.3" %2, !dbg !3049
}

; Function Attrs: alwaysinline nounwind mustprogress
define linkonce_odr dso_local %"class.aie::detail::vector.3" @_ZN3aie6detail12add_sub_bitsILj32EiLj8ELNS0_15AddSubOperationE1EE3runERKNS0_6vectorIiLj8EEERKi(%"class.aie::detail::vector.3"* nonnull align 32 dereferenceable(32) %v, i32* nonnull align 4 dereferenceable(4) %a) addrspace(1) #9 comdat align 2 !dbg !3052 {
entry:
  %retval = alloca %"class.aie::detail::vector.3", align 32
  call addrspace(1) void @llvm.dbg.value(metadata %"class.aie::detail::vector.3"* %v, metadata !3070, metadata !DIExpression()), !dbg !3072
  call addrspace(1) void @llvm.dbg.value(metadata i32* %a, metadata !3071, metadata !DIExpression()), !dbg !3072
  %call = call addrspace(1) %"class.aie::detail::vector.3" @_ZN3aie6detail17add_sub_bits_implILj32EiLj8ELNS0_15AddSubOperationE1EE3runERKNS0_6vectorIiLj8EEERKi(%"class.aie::detail::vector.3"* nonnull align 32 dereferenceable(32) %v, i32* nonnull align 4 dereferenceable(4) %a) #26, !dbg !3073
  %0 = getelementptr inbounds %"class.aie::detail::vector.3", %"class.aie::detail::vector.3"* %retval, i32 0, i32 0, !dbg !3073
  %1 = extractvalue %"class.aie::detail::vector.3" %call, 0, !dbg !3073
  store %struct.v8int32 %1, %struct.v8int32* %0, align 32, !dbg !3073
  %2 = load %"class.aie::detail::vector.3", %"class.aie::detail::vector.3"* %retval, align 32, !dbg !3074
  ret %"class.aie::detail::vector.3" %2, !dbg !3074
}

; Function Attrs: alwaysinline nounwind mustprogress
define linkonce_odr dso_local %"class.aie::detail::vector.3" @_ZN3aie6detail17add_sub_bits_implILj32EiLj8ELNS0_15AddSubOperationE1EE3runERKNS0_6vectorIiLj8EEERKi(%"class.aie::detail::vector.3"* nonnull align 32 dereferenceable(32) %v, i32* nonnull align 4 dereferenceable(4) %a) addrspace(1) #9 comdat align 2 !dbg !3075 {
entry:
  %retval = alloca %"class.aie::detail::vector.3", align 32
  %tmp = alloca %"class.aie::detail::vector.7", align 32
  %custom_type.tmp = alloca %"class.aie::detail::vector.7", align 32
  %agg.tmp = alloca %"class.aie::detail::vector_elem_const_ref", align 4
  call addrspace(1) void @llvm.dbg.value(metadata %"class.aie::detail::vector.3"* %v, metadata !3092, metadata !DIExpression()), !dbg !3216
  call addrspace(1) void @llvm.dbg.value(metadata i32* %a, metadata !3093, metadata !DIExpression()), !dbg !3216
  store %"class.aie::detail::vector.7" undef, %"class.aie::detail::vector.7"* %tmp, align 32, !dbg !3217
  %0 = bitcast %"class.aie::detail::vector.7"* %tmp to i8*, !dbg !3217
  call addrspace(1) void @llvm.lifetime.start.p0i8(i64 64, i8* %0) #24, !dbg !3217
  call addrspace(1) void @llvm.dbg.declare(metadata %"class.aie::detail::vector.7"* %tmp, metadata !3094, metadata !DIExpression()), !dbg !3218
  %1 = load i32, i32* %a, align 4, !dbg !3219, !tbaa !1117
  call addrspace(1) void @_ZN3aie6detail6vectorIiLj16EEC2IJEEEiDpOT_(%"class.aie::detail::vector.7"* nonnull dereferenceable(64) %custom_type.tmp, i32 %1) #26, !dbg !3218
  %2 = load %"class.aie::detail::vector.7", %"class.aie::detail::vector.7"* %custom_type.tmp, align 32, !dbg !3218, !tbaa !3220
  store %"class.aie::detail::vector.7" %2, %"class.aie::detail::vector.7"* %tmp, align 32, !dbg !3218, !tbaa !3220
  %call = call addrspace(1) %"class.aie::detail::vector_elem_const_ref" @_ZNK3aie6detail6vectorIiLj16EE14elem_const_refEj(%"class.aie::detail::vector.7"* nonnull dereferenceable(64) %tmp, i32 0) #26, !dbg !3222
  %3 = getelementptr inbounds %"class.aie::detail::vector_elem_const_ref", %"class.aie::detail::vector_elem_const_ref"* %agg.tmp, i32 0, i32 0, !dbg !3222
  %4 = extractvalue %"class.aie::detail::vector_elem_const_ref" %call, 0, !dbg !3222
  store %"class.aie::detail::vector.7"* %4, %"class.aie::detail::vector.7"** %3, align 4, !dbg !3222
  %5 = getelementptr inbounds %"class.aie::detail::vector_elem_const_ref", %"class.aie::detail::vector_elem_const_ref"* %agg.tmp, i32 0, i32 1, !dbg !3222
  %6 = extractvalue %"class.aie::detail::vector_elem_const_ref" %call, 1, !dbg !3222
  store i32 %6, i32* %5, align 4, !dbg !3222
  %7 = load %"class.aie::detail::vector_elem_const_ref", %"class.aie::detail::vector_elem_const_ref"* %agg.tmp, align 4, !dbg !3223, !tbaa !3224
  %call1 = call addrspace(1) %"class.aie::detail::vector.3" @_ZN3aie6detail17add_sub_bits_implILj32EiLj8ELNS0_15AddSubOperationE1EE3runILj16EEENS0_6vectorIiLj8EEERKS6_NS0_21vector_elem_const_refIiXT_EEE(%"class.aie::detail::vector.3"* nonnull align 32 dereferenceable(32) %v, %"class.aie::detail::vector_elem_const_ref" %7) #26, !dbg !3223
  %8 = getelementptr inbounds %"class.aie::detail::vector.3", %"class.aie::detail::vector.3"* %retval, i32 0, i32 0, !dbg !3223
  %9 = extractvalue %"class.aie::detail::vector.3" %call1, 0, !dbg !3223
  store %struct.v8int32 %9, %struct.v8int32* %8, align 32, !dbg !3223
  %10 = bitcast %"class.aie::detail::vector.7"* %tmp to i8*, !dbg !3226
  call addrspace(1) void @llvm.lifetime.end.p0i8(i64 64, i8* %10) #24, !dbg !3226
  %11 = load %"class.aie::detail::vector.3", %"class.aie::detail::vector.3"* %retval, align 32, !dbg !3226
  ret %"class.aie::detail::vector.3" %11, !dbg !3226
}

; Function Attrs: alwaysinline nounwind
define linkonce_odr dso_local void @_ZN3aie6detail6vectorIiLj16EEC2IJEEEiDpOT_(%"class.aie::detail::vector.7"* nonnull dereferenceable(64) %this, i32 %v) unnamed_addr addrspace(1) #11 comdat align 2 !dbg !3227 {
entry:
  %v.addr = alloca i32, align 4
  call addrspace(1) void @llvm.dbg.value(metadata %"class.aie::detail::vector.7"* %this, metadata !3232, metadata !DIExpression()), !dbg !3237
  store i32 %v, i32* %v.addr, align 4, !tbaa !1117
  call addrspace(1) void @llvm.dbg.declare(metadata i32* %v.addr, metadata !3234, metadata !DIExpression()), !dbg !3238
  %data = getelementptr inbounds %"class.aie::detail::vector.7", %"class.aie::detail::vector.7"* %this, i32 0, i32 0, !dbg !3239
  %call = call addrspace(1) %struct.v16int32 @_ZN3aie6detail14vector_storageIiLj16EE5undefEv() #26, !dbg !3240
  %0 = getelementptr inbounds %struct.v16int32, %struct.v16int32* %data, i32 0, i32 0, !dbg !3240
  %1 = extractvalue %struct.v16int32 %call, 0, !dbg !3240
  store %struct.ipd.custom_type.v64int8.v64int8 %1, %struct.ipd.custom_type.v64int8.v64int8* %0, align 32, !dbg !3240
  call addrspace(1) void @llvm.dbg.value(metadata i32 undef, metadata !3235, metadata !DIExpression()), !dbg !3241
  call addrspace(1) void @llvm.dbg.value(metadata i32 1, metadata !3235, metadata !DIExpression()), !dbg !3241
  %data2 = getelementptr inbounds %"class.aie::detail::vector.7", %"class.aie::detail::vector.7"* %this, i32 0, i32 0, !dbg !3242
  call addrspace(1) void @_ZN3aie6detail6vectorIiLj16EE23init_from_values_simpleI8v16int32JEiEEvRT_RKiDpOT0_(%"class.aie::detail::vector.7"* nonnull dereferenceable(64) %this, %struct.v16int32* nonnull align 32 dereferenceable(64) %data2, i32* nonnull align 4 dereferenceable(4) %v.addr) #26, !dbg !3246
  ret void, !dbg !3247
}

; Function Attrs: alwaysinline nounwind mustprogress
define linkonce_odr dso_local %"class.aie::detail::vector_elem_const_ref" @_ZNK3aie6detail6vectorIiLj16EE14elem_const_refEj(%"class.aie::detail::vector.7"* nonnull dereferenceable(64) %this, i32 %idx) addrspace(1) #9 comdat align 2 !dbg !3248 {
entry:
  %retval = alloca %"class.aie::detail::vector_elem_const_ref", align 4
  call addrspace(1) void @llvm.dbg.value(metadata %"class.aie::detail::vector.7"* %this, metadata !3250, metadata !DIExpression()), !dbg !3253
  call addrspace(1) void @llvm.dbg.value(metadata i32 0, metadata !3252, metadata !DIExpression()), !dbg !3253
  %cmp = icmp ult i32 0, 16, !dbg !3254
  %0 = call addrspace(1) i1 @llvm.is.constant.i1(i1 %cmp), !dbg !3254
  br i1 %0, label %do.body, label %if.end4, !dbg !3256

do.body:                                          ; preds = %entry
  %cmp2 = icmp ult i32 0, 16, !dbg !3257
  %1 = call addrspace(1) i1 @llvm.chess_manifest(i1 %cmp2), !dbg !3257
  br i1 %1, label %if.end4, label %if.then3, !dbg !3261

if.then3:                                         ; preds = %do.body
  call addrspace(1) void @llvm.chess_error(metadata !1863), !dbg !3257
  unreachable, !dbg !3257

if.end4:                                          ; preds = %do.body, %entry
  %cmp5 = icmp ult i32 0, 16, !dbg !3256
  call addrspace(1) void @llvm.assume(i1 %cmp5), !dbg !3256
  call addrspace(1) void @_ZN3aie6detail21vector_elem_const_refIiLj16EEC2ERKNS0_6vectorIiLj16EEEj(%"class.aie::detail::vector_elem_const_ref"* nonnull dereferenceable(8) %retval, %"class.aie::detail::vector.7"* nonnull align 32 dereferenceable(64) %this, i32 0) #26, !dbg !3262
  %2 = load %"class.aie::detail::vector_elem_const_ref", %"class.aie::detail::vector_elem_const_ref"* %retval, align 4, !dbg !3263
  ret %"class.aie::detail::vector_elem_const_ref" %2, !dbg !3263
}

; Function Attrs: alwaysinline nounwind mustprogress
define linkonce_odr dso_local %"class.aie::detail::vector.3" @_ZN3aie6detail17add_sub_bits_implILj32EiLj8ELNS0_15AddSubOperationE1EE3runILj16EEENS0_6vectorIiLj8EEERKS6_NS0_21vector_elem_const_refIiXT_EEE(%"class.aie::detail::vector.3"* nonnull align 32 dereferenceable(32) %v, %"class.aie::detail::vector_elem_const_ref" %a.coerce) addrspace(1) #9 comdat align 2 !dbg !3264 {
entry:
  %retval = alloca %"class.aie::detail::vector.3", align 32
  %a = alloca %"class.aie::detail::vector_elem_const_ref", align 4
  %op = alloca %class.anon, align 1
  %ret = alloca %"class.aie::detail::vector.7", align 32
  %custom_type.tmp = alloca %"class.aie::detail::vector.7", align 32
  %custom_type.tmp1 = alloca %"class.aie::detail::vector.7", align 32
  %agg.tmp = alloca %struct.v16int32, align 32
  %ref.tmp = alloca %"class.aie::detail::vector.7", align 32
  %ref.tmp3 = alloca i32, align 4
  %ref.tmp4 = alloca i32, align 4
  %ref.tmp5 = alloca i32, align 4
  %ref.tmp6 = alloca i32, align 4
  %ref.tmp7 = alloca i32, align 4
