; ModuleID = '/home/users/francesco.santambrogio/Downloads/Hpps24-fpga2aie/aie/Work/aie/25_0/src/25_0.cc'
source_filename = "/home/users/francesco.santambrogio/Downloads/Hpps24-fpga2aie/aie/Work/aie/25_0/src/25_0.cc"
target datalayout = "e-i8:8:8-i16:16:16-i32:32:32-i64:32:32-f32:32:32-f64:32:32-p:32:32:32:32:8-s0:256:256-a0:8:8-S256-n32:64-P1-p0:20:32:32:32:8-p1:20:32:32:32:8-p2:20:32:32:32:8-p3:20:32:32:32:8-p4:20:32:32:32:8-p5:20:32:32:32:8-p6:20:32:32:32:8-p7:20:32:32:32:8-p8:20:32:32:32:8-p9:1:32:32:32:32-p10:1:32:32:32:32-p11:1:32:32:32:32-p12:1:32:32:32:32-p13:1:32:32:32:32-p14:1:32:32:32:32-p15:1:32:32:32:32-p16:1:32:32:32:32-p17:1:32:32:32:32-p18:1:32:32:32:32-p19:1:32:32:32:32-p20:1:32:32:32:32-p21:1:32:32:32:32-p22:1:32:32:32:32-p23:1:32:32:32:32-p24:1:32:32:32:32"
target triple = "pdarch-unknown-unknown-elf"

%"class.aie::detail::vector" = type { %struct.v8float }
%struct.v8float = type { %struct.ipd.custom_type.v32int8.v32int8 }
%struct.ipd.custom_type.v32int8.v32int8 = type { i256 }
%class.anon = type { i8 }
%"struct.aie::detail::utils::unroll_context" = type { i8 }
%struct.input_stream.0 = type { %union.anon.1 }
%union.anon.1 = type { i32 }
%struct.input_stream.2 = type { %union.anon.3 }
%union.anon.3 = type { i32 }
%struct.output_stream.4 = type { %union.anon.5 }
%union.anon.5 = type { i32 }
%struct.ipd.custom_type.uint2_t.uint2_t.6 = type { i8 }
%"class.aie::detail::vector.16" = type { %struct.v16float }
%struct.v16float = type { %struct.ipd.custom_type.v64int8.v64int8 }
%struct.ipd.custom_type.v64int8.v64int8 = type { i512 }
%"class.aie::detail::vector_elem_const_ref.20" = type { %"class.aie::detail::vector.16"*, i32 }
%"class.aie::detail::vector.10" = type { %struct.v8cint32 }
%struct.v8cint32 = type { %struct.ipd.custom_type.v64int8.v64int8 }
%struct.v4cint32 = type { %struct.ipd.custom_type.v32int8.v32int8 }
%"class.aie::detail::vector.3" = type { %struct.v8int32 }
%struct.v8int32 = type { %struct.ipd.custom_type.v32int8.v32int8 }
%struct.v4float = type { %struct.ipd.custom_type.v16int8.v16int8 }
%struct.ipd.custom_type.v16int8.v16int8 = type { i128 }
%"class.aie::detail::vector.15" = type { %struct.v4float }
%"class.aie::detail::vector.19" = type { %struct.v4cint32 }
%struct.v2cint32 = type { %struct.ipd.custom_type.v16int8.v16int8 }
%struct.v8int16 = type { %struct.ipd.custom_type.v16int8.v16int8 }
%struct.output_stream.17 = type { %union.anon.1 }
%struct.v4int32 = type { %struct.ipd.custom_type.v16int8.v16int8 }
%struct.ipd.custom_type.uint1_t.uint1_t = type { i8 }
%"class.aie::detail::vector_elem_const_ref.11" = type { %"class.aie::detail::vector.3"*, i32 }
%"class.aie::detail::vector_elem_ref" = type { %"class.aie::detail::vector.3"*, i32 }
%"class.aie::detail::vector.7" = type { %struct.v16int32 }
%struct.v16int32 = type { %struct.ipd.custom_type.v64int8.v64int8 }
%"class.aie::detail::vector_elem_const_ref" = type { %"class.aie::detail::vector.7"*, i32 }
%class.anon.6 = type { %class.anon*, %class.anon*, %"class.aie::detail::vector.3"*, i32*, i32*, i32*, %"class.aie::detail::vector.3"* }
%struct.ipd.custom_type.v8acc48.v8acc48 = type { i384 }
%struct.ipd.custom_type.uint3_t.uint3_t = type { i8 }
%"struct.me_primitive::chessout_v8int32_lsrs_v8acc48___uchar_uint1_t_uint1_t_uint1_t_uint3_t_uint1_t" = type <{ %struct.v8int32, %struct.ipd.custom_type.uint1_t.uint1_t }>
%"struct.me_primitive::chessout_v8acc48_ups_w2a_sw_v8int32___uchar_uint1_t_uint2_t_uint1_t_uint1_t" = type <{ %struct.ipd.custom_type.v8acc48.v8acc48, %struct.ipd.custom_type.uint1_t.uint1_t }>
%"class.aie::detail::vector.12" = type { %struct.v8int16 }
%"struct.me_primitive::chessout_v4int32_stream_read128___PWSS_rsrc1__sint_uint1_t___sint" = type <{ %struct.v4int32, i32 }>
%"struct.me_primitive::chessout_v4int32_stream_read128___PWSS_rsrc2__sint_uint1_t___sint" = type <{ %struct.v4int32, i32 }>
%"struct.me_primitive::chessout_v4int32_stream_read128___PWSSMEM__sint_uint1_t___sint" = type <{ %struct.v4int32, i32 }>
%"class.aie::detail::vector.21" = type { %struct.v4int32 }
%"struct.me_primitive::chessout___sint_stream_read___PSS_rsrc1__sint_uint1_t___sint" = type { i32, i32 }
%"struct.me_primitive::chessout___sint_stream_read___PSS_rsrc2__sint_uint1_t___sint" = type { i32, i32 }
%"struct.me_primitive::chessout___sint_stream_read___PSSMEM__sint_uint1_t___sint" = type { i32, i32 }

$_ZN12input_streamIiEC2Ej = comdat any

$_ZN12input_streamIfEC2Ej = comdat any

$_ZN13output_streamIfEC2Ej = comdat any

$_Z4donev = comdat any

$_ZN12me_primitive5eventE7uint2_t = comdat any

$_ZN7uint2_tC2Ei = comdat any

$_ZN3aie9broadcastIfLj8EEENS_6detail6vectorINS_17operand_base_typeINS1_5utils10remove_allIT_E4typeEE4typeEXT0_EEES6_ = comdat any

$_ZN3aie6detail14broadcast_bitsILj32EfLj8EE3runERKf = comdat any

$_ZN3aie6detail19broadcast_bits_implILj32EfLj8EE3runERKf = comdat any

$_ZN3aie6detail6vectorIfLj8EEC2Ev = comdat any

$_ZN3aie6detail19broadcast_bits_implILj32EfLj16EE3runERKf = comdat any

$_ZNK3aie6detail6vectorIfLj16EE7extractILj8EEENS1_IfXT_EEEj = comdat any

$_Z5ext_w8v16floati = comdat any

$_ZNK3aie6detail6vectorIfLj16EE7cast_toI6cint32EEDav = comdat any

$_ZNK3aie6detail6vectorI6cint32Lj8EEcv8v8cint32Ev = comdat any

$_Z8shuffle88v8cint32ij = comdat any

$_ZN3aie6detail6vectorI6cint32Lj8EEC2E8v8cint32 = comdat any

$_Z5ext_w8v8cint32i = comdat any

$_ZN3aie6detail6vectorIfLj8EEC2E7v8float = comdat any

$_Z10as_v8float8v4cint32 = comdat any

$_ZN7v8floatC2E17chessllvmInternal7v32int8 = comdat any

$_ZNK3aie6detail6vectorI6cint32Lj8EE9to_nativeEv = comdat any

$_ZN3aie6detail6vectorI6cint32Lj8EEC2Ev = comdat any

$_Z11as_v8cint328v16float = comdat any

$_ZN8v8cint32C2E17chessllvmInternal7v64int8 = comdat any

$_ZN3aie6detail14vector_storageI6cint32Lj8EE5undefEv = comdat any

$_Z14undef_v8cint32v = comdat any

$_ZN3aie6detail6vectorIfLj16EEC2Ev = comdat any

$_ZN3aie6detail6vectorIfLj16EEC2IJEEEfDpOT_ = comdat any

$_ZNK3aie6detail6vectorIfLj16EEixEj = comdat any

$_ZN3aie6detail19broadcast_bits_implILj32EfLj16EE3runILj16EEENS0_6vectorIfLj16EEENS0_21vector_elem_const_refIfXT_EEE = comdat any

$_ZNK3aie6detail6vectorIfLj16EE4growILj16EEENS1_IfXT_EEEj = comdat any

$_ZNK3aie6detail6vectorIfLj16EEcv8v16floatEv = comdat any

$_Z11fpshuffle168v16floatijj = comdat any

$_ZN3aie6detail6vectorIfLj16EEC2E8v16float = comdat any

$_ZNK3aie6detail6vectorIfLj16EE7extractILj16EEENS1_IfXT_EEEj = comdat any

$_ZNK3aie6detail6vectorIfLj16EE9to_nativeEv = comdat any

$_ZNK3aie6detail6vectorIfLj16EE14elem_const_refEj = comdat any

$_ZN3aie6detail21vector_elem_const_refIfLj16EEC2ERKNS0_6vectorIfLj16EEEj = comdat any

$_ZN3aie6detail14vector_storageIfLj16EE5undefEv = comdat any

$_ZN3aie6detail6vectorIfLj16EE23init_from_values_simpleI8v16floatJEfEEvRT_RKfDpOT0_ = comdat any

$_Z9shft_elem8v16floatf = comdat any

$_Z14undef_v16floatv = comdat any

$_ZN3aie6detail14vector_storageIfLj8EE5undefEv = comdat any

$_Z13undef_v8floatv = comdat any

$_Z10readincr_vILj8EL22aie_stream_resource_in0EfEN3aie6detail6vectorIT1_XT_EEEP12input_streamIS4_E = comdat any

$_Z5log2vN3aie6detail6vectorIfLj8EEE = comdat any

$_Z9writeincrIL23aie_stream_resource_out0EfLj8EEvP13output_streamIT0_ERKN3aie6detail6vectorIS2_XT1_EEE = comdat any

$_ZN3aie6detail3adf17stream_out_helperILj8EfL23aie_stream_resource_out0EE9writeincrEP13output_streamIfENS0_6vectorIfLj8EEE = comdat any

$_ZNK3aie6detail6vectorIfLj8EE7extractILj4EEENS1_IfXT_EEEj = comdat any

$_ZNK3aie6detail6vectorIfLj4EEcv7v4floatEv = comdat any

$_Z10as_v8int167v4float = comdat any

$_Z7put_wmsi7v8int16i = comdat any

$_Z10as_v4int327v8int16 = comdat any

$_Z7put_wmsi7v4int32i = comdat any

$_ZN7uint1_tC2Ei = comdat any

$_ZN12me_primitive15stream_write128EPU4AS23U16__protect_accessi7v4int327uint1_tS3_ = comdat any

$_ZN12me_primitive15stream_write128EPU4AS24U16__protect_accessi7v4int327uint1_tS3_ = comdat any

$_ZN12me_primitive15stream_write128EPU4AS12U16__protect_accessi7v4int327uint1_tS3_ = comdat any

$_ZN7v4int32C2E17chessllvmInternal7v16int8 = comdat any

$_ZN7v8int16C2E17chessllvmInternal7v16int8 = comdat any

$_ZNK3aie6detail6vectorIfLj4EE9to_nativeEv = comdat any

$_ZN3aie6detail6vectorIfLj4EEC2Ev = comdat any

$_Z5ext_v7v8floati = comdat any

$_ZNK3aie6detail6vectorIfLj8EE7cast_toI6cint32EEDav = comdat any

$_ZNK3aie6detail6vectorI6cint32Lj4EE4growILj8EEENS1_IS2_XT_EEEj = comdat any

$_Z5ext_v8v8cint32i = comdat any

$_ZN3aie6detail6vectorIfLj4EEC2E7v4float = comdat any

$_Z10as_v4float8v2cint32 = comdat any

$_ZN7v4floatC2E17chessllvmInternal7v16int8 = comdat any

$_Z6xset_wi8v4cint32 = comdat any

$_ZN3aie6detail6vectorI6cint32Lj4EEC2Ev = comdat any

$_Z11as_v4cint327v8float = comdat any

$_ZN8v4cint32C2E17chessllvmInternal7v32int8 = comdat any

$_ZN3aie6detail14vector_storageI6cint32Lj4EE5undefEv = comdat any

$_Z14undef_v4cint32v = comdat any

$_ZN3aie6detail14vector_storageIfLj4EE5undefEv = comdat any

$_Z13undef_v4floatv = comdat any

$_ZNK3aie6detail6vectorIfLj8EEcv7v8floatEv = comdat any

$_Z10as_v8int327v8float = comdat any

$_ZN3aie6detail6vectorIiLj8EEC2E7v8int32 = comdat any

$_ZN3aie9downshiftINS_6detail6vectorIiLj8EEEEEN22aie_dm_resource_removeIT_E4typeERKS5_j = comdat any

$_ZN3aie3subINS_6detail6vectorIiLj8EEEiEEN22aie_dm_resource_removeIT_E4typeERKS5_T0_ = comdat any

$_ZN3aie8to_floatIiLj8EEEDaRKNS_6detail6vectorIT_XT0_EEEi = comdat any

$_ZN3aie7bit_andIiNS_6detail6vectorIiLj8EEEEEN22aie_dm_resource_removeIT0_E4typeET_RKS5_ = comdat any

$_ZN3aie6bit_orIiNS_6detail6vectorIiLj8EEEEEN22aie_dm_resource_removeIT0_E4typeET_RKS5_ = comdat any

$_ZNK3aie6detail6vectorIiLj8EEcv7v8int32Ev = comdat any

$_Z10as_v8float7v8int32 = comdat any

$_Z5fpmac7v8floatS_S_ = comdat any

$_Z5fpadd7v8floatS_ = comdat any

$_ZNK3aie6detail6vectorIiLj8EE9to_nativeEv = comdat any

$_ZN3aie6detail8bit_bitsILj32EiLj8ELNS0_5BitOpE2EE3runERKiRKNS0_6vectorIiLj8EEE = comdat any

$_ZN3aie6detail13bit_bits_implILj32EiLj8ELNS0_5BitOpE2EE3runEiRKNS0_6vectorIiLj8EEE = comdat any

$_ZN3aie6detail6vectorIiLj8EEC2Ev = comdat any

$_ZNK3aie6detail6vectorIiLj8EEixEj = comdat any

$_ZN3aie6detailorIiNS0_21vector_elem_const_refIiLj8EEEEEDaT_T0_ = comdat any

$_ZN3aie6detail6vectorIiLj8EEixEj = comdat any

$_ZN3aie6detail15vector_elem_refIiLj8EEaSERKi = comdat any

$_ZN3aie6detail6vectorIiLj8EE3setEij = comdat any

$_Z8upd_elem7v8int32ji = comdat any

$_ZN3aie6detail6vectorIiLj8EE8elem_refEj = comdat any

$_ZN3aie6detail15vector_elem_refIiLj8EEC2ERNS0_6vectorIiLj8EEEj = comdat any

$_ZNK3aie6detail21vector_elem_const_refIiLj8EE3getEv = comdat any

$_ZNK3aie6detail6vectorIiLj8EE3getEj = comdat any

$_Z8ext_elem7v8int32j = comdat any

$_ZNK3aie6detail6vectorIiLj8EE14elem_const_refEj = comdat any

$_ZN3aie6detail21vector_elem_const_refIiLj8EEC2ERKNS0_6vectorIiLj8EEEj = comdat any

$_ZN3aie6detail14vector_storageIiLj8EE5undefEv = comdat any

$_Z13undef_v8int32v = comdat any

$_ZN3aie6detail8bit_bitsILj32EiLj8ELNS0_5BitOpE0EE3runERKiRKNS0_6vectorIiLj8EEE = comdat any

$_ZN3aie6detail13bit_bits_implILj32EiLj8ELNS0_5BitOpE0EE3runEiRKNS0_6vectorIiLj8EEE = comdat any

$_ZN3aie6detailanIiNS0_21vector_elem_const_refIiLj8EEEEEDaT_T0_ = comdat any

$_ZN3aie6detail22elementary_vector_bitsILNS0_12ElementaryOpE7ELj32EfiLj8EE3runERKNS0_6vectorIiLj8EEEi = comdat any

$_ZN3aie6detail27elementary_vector_bits_implILNS0_12ElementaryOpE7ELj32EfiLj8EE3runERKNS0_6vectorIiLj8EEEi = comdat any

$_ZNK3aie6detail6vectorIiLj8EE12grow_extractILj8EEENS1_IiXT_EEEj = comdat any

$_Z9fix2float7v8int32i = comdat any

$_ZN3aie6detail6vectorIfLj8EE6insertILj8EEERS2_jRKNS1_IfXT_EEE = comdat any

$_ZNK3aie6detail6vectorIiLj8EE7extractILj8EEENS1_IiXT_EEEj = comdat any

$_ZN3aie6detail12add_sub_bitsILj32EiLj8ELNS0_15AddSubOperationE1EE3runERKNS0_6vectorIiLj8EEERKi = comdat any

$_ZN3aie6detail17add_sub_bits_implILj32EiLj8ELNS0_15AddSubOperationE1EE3runERKNS0_6vectorIiLj8EEERKi = comdat any

$_ZN3aie6detail6vectorIiLj16EEC2IJEEEiDpOT_ = comdat any

$_ZNK3aie6detail6vectorIiLj16EE14elem_const_refEj = comdat any

$_ZN3aie6detail17add_sub_bits_implILj32EiLj8ELNS0_15AddSubOperationE1EE3runILj16EEENS0_6vectorIiLj8EEERKS6_NS0_21vector_elem_const_refIiXT_EEE = comdat any

$_ZN3aie6detail6vectorIiLj16EEC2Ev = comdat any

$_ZN3aie6detail5utils14is_same_objectINS0_6vectorIiLj16EEENS3_IiLj8EEEEEbRKT_RKT0_ = comdat any

$_ZNK3aie6detail6vectorIiLj8EE4growILj16EEENS1_IiXT_EEEj = comdat any

$_ZZN3aie6detail17add_sub_bits_implILj32EiLj8ELNS0_15AddSubOperationE1EE6get_opEvENKUlDpOT_E_clIJNS0_6vectorIiLj16EEEiijRjiiEEEDaS6_ = comdat any

$_ZN3aie6detail6vectorIiLj16EEC2E8v16int32 = comdat any

$_ZNK3aie6detail6vectorIiLj16EE4growILj16EEENS1_IiXT_EEEj = comdat any

$_ZZN3aie6detail17add_sub_bits_implILj32EiLj8ELNS0_15AddSubOperationE1EE6get_opEvENKUlDpOT_E_clIJNS0_6vectorIiLj16EEEiijSA_RjiiEEEDaS6_ = comdat any

$_ZNK3aie6detail6vectorIiLj16EE7extractILj8EEENS1_IiXT_EEEj = comdat any

$_Z5ext_w8v16int32i = comdat any

$_ZNK3aie6detail6vectorIiLj16EE7cast_toI6cint32EEDav = comdat any

$_Z10as_v8int328v4cint32 = comdat any

$_ZN7v8int32C2E17chessllvmInternal7v32int8 = comdat any

$_Z11as_v8cint328v16int32 = comdat any

$_ZNK3aie6detail6vectorIiLj16EEcv8v16int32Ev = comdat any

$_Z5sub168v16int32ijjS_ijj = comdat any

$_ZNK3aie6detail6vectorIiLj16EE9to_nativeEv = comdat any

$_Z5sub168v16int32ijjijj = comdat any

$_Z6xset_wi7v8int32 = comdat any

$_ZN3aie6detail14vector_storageIiLj16EE5undefEv = comdat any

$_Z14undef_v16int32v = comdat any

$_ZN3aie6detail21vector_elem_const_refIiLj16EEC2ERKNS0_6vectorIiLj16EEEj = comdat any

$_ZN3aie6detail6vectorIiLj16EE23init_from_values_simpleI8v16int32JEiEEvRT_RKiDpOT0_ = comdat any

$_Z9shft_elem8v16int32i = comdat any

$_ZN3aie6detail10shift_bitsIiLj32ELj8EE3runERKNS0_6vectorIiLj8EEEjj = comdat any

$_ZN3aie6detail15shift_bits_implIiLj32ELj8EE3runERKNS0_6vectorIiLj8EEEjj = comdat any

$_ZN3aie6detail5utils12unroll_timesILj1EZNS0_15shift_bits_implIiLj32ELj8EE3runERKNS0_6vectorIiLj8EEEjjEUlT_E_EEvOT0_ = comdat any

$_ZNSt3__27forwardIZN3aie6detail15shift_bits_implIiLj32ELj8EE3runERKNS2_6vectorIiLj8EEEjjEUlT_E_EEOS9_RNS_16remove_referenceIS9_E4typeE = comdat any

$_ZN3aie6detail5utils10unroll_forIjLj0ELj1ELj1EZNS0_15shift_bits_implIiLj32ELj8EE3runERKNS0_6vectorIiLj8EEEjjEUlT_E_EEvOT3_ = comdat any

$_ZN3aie6detail5utils17unroll_for_helperIjLj0ELj1ELj0ELj1EE7executeIZNS0_15shift_bits_implIiLj32ELj8EE3runERKNS0_6vectorIiLj8EEEjjEUlT_E_EEvOSB_ = comdat any

$_ZZN3aie6detail15shift_bits_implIiLj32ELj8EE3runERKNS0_6vectorIiLj8EEEjjENKUlT_E_clINS0_5utils14unroll_contextIjLj0ELj1ELj0EEEEEDaS7_ = comdat any

$_ZN3aie6detail5utils17unroll_for_helperIjLj0ELj1ELj1ELj1EE7executeIZNS0_15shift_bits_implIiLj32ELj8EE3runERKNS0_6vectorIiLj8EEEjjEUlT_E_EEvOSB_ = comdat any

$_ZNK3aie6detail5utils14unroll_contextIjLj0ELj1ELj0EEcvjEv = comdat any

$_ZN3aie6detail6vectorIiLj8EE6insertILj8EEERS2_jNS1_IiXT_EE11native_typeE = comdat any

$_ZN3aie6detail6vectorIiLj8EE6insertILj8EEERS2_jRKNS1_IiXT_EEE = comdat any

$_Z4lsrs7v8acc48i = comdat any

$_ZN12me_primitive8shft_nrmEi = comdat any

$_Z12get_sat_implv = comdat any

$_Z16get_sym_sat_implv = comdat any

$_Z12get_rnd_implv = comdat any

$_ZN12me_primitive4lsrsI7uint1_tEEN13chessEnableIfIXsr17chessIsCompatibleIN15chessRemoveQualIT_E4typeES1_EE5valueE7v8int32E4typeE7v8acc48hS1_S1_S1_7uint3_tRS4_ = comdat any

$_Z16set_srs_sat_impl7uint1_t = comdat any

$_Z20chess_dont_warn_deadI7uint1_tERKT_S3_ = comdat any

$_Z3ups7v8int32i = comdat any

$_ZN12me_primitive10ups_w2a_swI7uint1_tEEN13chessEnableIfIXsr17chessIsCompatibleIN15chessRemoveQualIT_E4typeES1_EE5valueE7v8acc48E4typeE7v8int32hS1_7uint2_tS1_RS4_ = comdat any

$_Z16set_ups_sat_impl7uint1_t = comdat any

$_ZNK3aie6detail5utils14unroll_contextIjLj0ELj1ELj0EE7currentEv = comdat any

$_ZNK3aie6detail6vectorIfLj8EE9to_nativeEv = comdat any

$_ZN3aie6detail3adf16stream_in_helperILj8EfL22aie_stream_resource_in0EE8readincrEP12input_streamIfE = comdat any

$_ZN3aie6detail6vectorIsLj8EEC2E7v8int16 = comdat any

$_ZN3aie11vector_castIfNS_6detail6vectorIsLj8EEEEEDaRKT0_ = comdat any

$_ZN3aie6detail6vectorIfLj8EE6insertILj4EEERS2_jRKNS1_IfXT_EEE = comdat any

$_Z5upd_v7v8floati7v4float = comdat any

$_ZNK3aie6detail6vectorIfLj4EE4growILj16EEENS1_IfXT_EEEj = comdat any

$_ZNK3aie6detail6vectorIfLj8EE4growILj16EEENS1_IfXT_EEEj = comdat any

$_Z7select8j8v8cint32ijS_ij = comdat any

$_Z6xset_wi7v8float = comdat any

$_Z6xset_vi7v4float = comdat any

$_ZN3aie6detail11vector_castIfsLj8EEEDaRKNS0_6vectorIT0_XT1_EEE = comdat any

$_ZNK3aie6detail6vectorIsLj8EE7cast_toIfEEDav = comdat any

$_Z10as_v4float7v8int16 = comdat any

$_Z7get_wssi = comdat any

$_Z8getl_wssi = comdat any

$_Z10as_v8int167v4int32 = comdat any

$_ZN12me_primitive14stream_read128IiEEN13chessEnableIfIXsr17chessIsCompatibleIN15chessRemoveQualIT_E4typeEiEE5valueE7v4int32E4typeEPU4AS19U16__protect_accessi7uint1_tRS3_ = comdat any

$_ZN12me_primitive14stream_read128IiEEN13chessEnableIfIXsr17chessIsCompatibleIN15chessRemoveQualIT_E4typeEiEE5valueE7v4int32E4typeEPU4AS20U16__protect_accessi7uint1_tRS3_ = comdat any

$_ZN12me_primitive14stream_read128IiEEN13chessEnableIfIXsr17chessIsCompatibleIN15chessRemoveQualIT_E4typeEiEE5valueE7v4int32E4typeEPU4AS11U16__protect_accessi7uint1_tRS3_ = comdat any

$_ZN3aie5zerosIfLj8EEENS_6detail6vectorIT_XT0_EEEv = comdat any

$_Z10readincr_vILj8EL22aie_stream_resource_in0EiEN3aie6detail6vectorIT1_XT_EEEP12input_streamIS4_E = comdat any

$_Z5fpmul7v8floatS_ = comdat any

$_ZN3aie6detail3adf16stream_in_helperILj8EiL22aie_stream_resource_in0EE8readincrEP12input_streamIiE = comdat any

$_ZN3aie11vector_castIiNS_6detail6vectorIsLj8EEEEEDaRKT0_ = comdat any

$_ZN3aie6detail6vectorIiLj8EE6insertILj4EEERS2_jRKNS1_IiXT_EEE = comdat any

$_ZNK3aie6detail6vectorIiLj4EEcv7v4int32Ev = comdat any

$_Z5upd_v7v8int32i7v4int32 = comdat any

$_ZNK3aie6detail6vectorIiLj4EE4growILj16EEENS1_IiXT_EEEj = comdat any

$_Z6xset_vi7v4int32 = comdat any

$_ZNK3aie6detail6vectorIiLj4EE9to_nativeEv = comdat any

$_ZN3aie6detail11vector_castIisLj8EEEDaRKNS0_6vectorIT0_XT1_EEE = comdat any

$_ZNK3aie6detail6vectorIsLj8EE7cast_toIiEEDav = comdat any

$_ZN3aie6detail6vectorIiLj4EEC2Ev = comdat any

$_ZN3aie6detail14vector_storageIiLj4EE5undefEv = comdat any

$_Z13undef_v4int32v = comdat any

$_Z6get_ssi = comdat any

$_ZN12me_primitive11stream_readIiEEN13chessEnableIfIXsr17chessIsCompatibleIN15chessRemoveQualIT_E4typeEiEE5valueEiE4typeEPU4AS17U16__protect_accessi7uint1_tRS3_ = comdat any

$_ZN12me_primitive11stream_readIiEEN13chessEnableIfIXsr17chessIsCompatibleIN15chessRemoveQualIT_E4typeEiEE5valueEiE4typeEPU4AS18U16__protect_accessi7uint1_tRS3_ = comdat any

$_ZN12me_primitive11stream_readIiEEN13chessEnableIfIXsr17chessIsCompatibleIN15chessRemoveQualIT_E4typeEiEE5valueEiE4typeEPU3AS9U16__protect_accessi7uint1_tRS3_ = comdat any

$_ZN3aie6detail5zerosIfLj8EEENS0_6vectorIT_XT0_EEEv = comdat any

$_ZN3aie6detail11vector_castIfiLj8EEEDaRKNS0_6vectorIT0_XT1_EEE = comdat any

$_ZNK3aie6detail6vectorIiLj8EE7cast_toIfEEDav = comdat any

$_Z5fpneg7v8float = comdat any

@_ZL11sync_buffer = internal global [8 x i32] [i32 0, i32 -1, i32 0, i32 0, i32 0, i32 0, i32 0, i32 0], align 4, !dbg !0
@__chess_separator_idummy = external dso_local global i32, align 4
@llvm.global_ctors = appending global [1 x { i32, void () addrspace(1)*, i8* }] [{ i32, void () addrspace(1)*, i8* } { i32 65535, void () addrspace(1)* @_GLOBAL__sub_I_entropy_vect.cpp, i8* null }]
@_ZL1c = internal global [7 x %"class.aie::detail::vector"] zeroinitializer, align 32, !dbg !512
@_ZN12me_primitive3ms0E = external dso_local addrspace(23) global i32, align 1 #0
@_ZN12me_primitive3ms1E = external dso_local addrspace(24) global i32, align 1 #1
@__const._ZN3aie6detail17add_sub_bits_implILj32EiLj8ELNS0_15AddSubOperationE1EE3runILj16EEENS0_6vectorIiLj8EEERKS6_NS0_21vector_elem_const_refIiXT_EEE.op = private unnamed_addr constant %class.anon undef, align 1
@__const._ZN3aie6detail15shift_bits_implIiLj32ELj8EE3runERKNS0_6vectorIiLj8EEEjj.srs_op = private unnamed_addr constant %class.anon undef, align 1
@__const._ZN3aie6detail15shift_bits_implIiLj32ELj8EE3runERKNS0_6vectorIiLj8EEEjj.ups_op = private unnamed_addr constant %class.anon undef, align 1
@__const._ZN3aie6detail5utils17unroll_for_helperIjLj0ELj1ELj0ELj1EE7executeIZNS0_15shift_bits_implIiLj32ELj8EE3runERKNS0_6vectorIiLj8EEEjjEUlT_E_EEvOSB_.ctx = private unnamed_addr constant %"struct.aie::detail::utils::unroll_context" undef, align 1
@_ZN12me_primitive3ss0E = external dso_local addrspace(19) global i32, align 1 #0
@_ZN12me_primitive5wsst0E = external dso_local addrspace(14) global i32, align 1 #0
@_ZN12me_primitive3ss1E = external dso_local addrspace(20) global i32, align 1 #1
@_ZN12me_primitive5wsst1E = external dso_local addrspace(14) global i32, align 1 #1
@_ZN12me_primitive4sst0E = external dso_local addrspace(13) global i32, align 1 #0
@_ZN12me_primitive4sst1E = external dso_local addrspace(13) global i32, align 1 #1
@ZERO = external dso_local constant [8 x i32], align 32

; Function Attrs: norecurse nounwind
define dso_local i32 @main() addrspace(1) #2 !dbg !1148 {
entry:
  %retval = alloca i32, align 4
  %stream_0 = alloca %struct.input_stream.0, align 4
  %stream_1 = alloca %struct.input_stream.2, align 4
  %stream_2 = alloca %struct.output_stream.4, align 4
  %index = alloca i32, align 4
  %proc_25_0_bounds = alloca i32, align 4
  %cleanup.dest.slot = alloca i32, align 4
  store i32 0, i32* %retval, align 4, !noalias !1158
  store volatile i32 0, i32* getelementptr inbounds ([8 x i32], [8 x i32]* @_ZL11sync_buffer, i32 0, i32 0), align 4, !dbg !1163, !tbaa !1164, !noalias !1158
  store %struct.input_stream.0 undef, %struct.input_stream.0* %stream_0, align 4, !dbg !1168, !noalias !1158
  %0 = bitcast %struct.input_stream.0* %stream_0 to i8*, !dbg !1168
  call addrspace(1) void @llvm.lifetime.start.p0i8(i64 4, i8* %0) #25, !dbg !1168, !noalias !1158
  call addrspace(1) void @llvm.dbg.declare(metadata %struct.input_stream.0* %stream_0, metadata !1150, metadata !DIExpression()), !dbg !1169
  %1 = call addrspace(1) i8* @llvm.noalias.decl.p0i8.p0s_struct.input_stream.0s.i32(%struct.input_stream.0* %stream_0, i32 0, metadata !1170), !dbg !1168, !noalias !1158
  call addrspace(1) void @_ZN12input_streamIiEC2Ej(%struct.input_stream.0* nonnull dereferenceable(4) %stream_0, i32 0) #26, !dbg !1171, !noalias !1158
  store %struct.input_stream.2 undef, %struct.input_stream.2* %stream_1, align 4, !dbg !1172, !noalias !1158
  %2 = bitcast %struct.input_stream.2* %stream_1 to i8*, !dbg !1172
  call addrspace(1) void @llvm.lifetime.start.p0i8(i64 4, i8* %2) #25, !dbg !1172, !noalias !1158
  call addrspace(1) void @llvm.dbg.declare(metadata %struct.input_stream.2* %stream_1, metadata !1151, metadata !DIExpression()), !dbg !1173
  %3 = call addrspace(1) i8* @llvm.noalias.decl.p0i8.p0s_struct.input_stream.2s.i32(%struct.input_stream.2* %stream_1, i32 0, metadata !1174), !dbg !1172, !noalias !1158
  call addrspace(1) void @_ZN12input_streamIfEC2Ej(%struct.input_stream.2* nonnull dereferenceable(4) %stream_1, i32 1) #26, !dbg !1175, !noalias !1158
  store %struct.output_stream.4 undef, %struct.output_stream.4* %stream_2, align 4, !dbg !1176, !noalias !1158
  %4 = bitcast %struct.output_stream.4* %stream_2 to i8*, !dbg !1176
  call addrspace(1) void @llvm.lifetime.start.p0i8(i64 4, i8* %4) #25, !dbg !1176, !noalias !1158
  call addrspace(1) void @llvm.dbg.declare(metadata %struct.output_stream.4* %stream_2, metadata !1152, metadata !DIExpression()), !dbg !1177
  %5 = call addrspace(1) i8* @llvm.noalias.decl.p0i8.p0s_struct.output_stream.4s.i32(%struct.output_stream.4* %stream_2, i32 0, metadata !1178), !dbg !1176, !noalias !1158
  call addrspace(1) void @_ZN13output_streamIfEC2Ej(%struct.output_stream.4* nonnull dereferenceable(4) %stream_2, i32 0) #26, !dbg !1179, !noalias !1158
  store i32 undef, i32* %index, align 4, !dbg !1180, !noalias !1158
  %6 = bitcast i32* %index to i8*, !dbg !1180
  call addrspace(1) void @llvm.lifetime.start.p0i8(i64 4, i8* %6) #25, !dbg !1180, !noalias !1158
  call addrspace(1) void @llvm.dbg.declare(metadata i32* %index, metadata !1153, metadata !DIExpression()), !dbg !1181
  store i32 1, i32* %index, align 4, !dbg !1181, !tbaa !1164, !noalias !1158
  br label %while.cond, !dbg !1182

while.cond:                                       ; preds = %cleanup.cont, %entry
  br label %while.body, !dbg !1182

while.body:                                       ; preds = %while.cond
  store i32 undef, i32* %proc_25_0_bounds, align 4, !dbg !1183, !noalias !1158
  %7 = bitcast i32* %proc_25_0_bounds to i8*, !dbg !1183
  call addrspace(1) void @llvm.lifetime.start.p0i8(i64 4, i8* %7) #25, !dbg !1183, !noalias !1158
  call addrspace(1) void @llvm.dbg.declare(metadata i32* %proc_25_0_bounds, metadata !1156, metadata !DIExpression()), !dbg !1184
  %8 = load volatile i32, i32* getelementptr inbounds ([8 x i32], [8 x i32]* @_ZL11sync_buffer, i32 0, i32 1), align 4, !dbg !1185, !tbaa !1164, !noalias !1158
  store i32 %8, i32* %proc_25_0_bounds, align 4, !dbg !1184, !tbaa !1164, !noalias !1158
  br label %while.cond1, !dbg !1186

while.cond1:                                      ; preds = %if.end, %while.body
  %9 = load i32, i32* %proc_25_0_bounds, align 4, !dbg !1187, !tbaa !1164, !noalias !1158
  %tobool = icmp ne i32 %9, 0, !dbg !1187
  br i1 %tobool, label %while.body2, label %while.end, !dbg !1186

while.body2:                                      ; preds = %while.cond1
  call addrspace(1) void @_Z32entropy_vec_pass_kernel_functionP12input_streamIiEPS_IfEP13output_streamIfE(%struct.input_stream.0* %stream_0, %struct.input_stream.2* %stream_1, %struct.output_stream.4* %stream_2) #26, !dbg !1188, !noalias !1158
  %10 = load i32, i32* %index, align 4, !dbg !1190, !tbaa !1164, !noalias !1158
  %sub = sub nsw i32 1, %10, !dbg !1191
  store i32 %sub, i32* %index, align 4, !dbg !1192, !tbaa !1164, !noalias !1158
  call addrspace(1) void @llvm.chess_memory_fence(), !dbg !1193, !noalias !1158
  %11 = load i32, i32* %proc_25_0_bounds, align 4, !dbg !1194, !tbaa !1164, !noalias !1158
  %cmp = icmp sgt i32 %11, 0, !dbg !1196
  br i1 %cmp, label %if.then, label %if.end, !dbg !1197

if.then:                                          ; preds = %while.body2
  %12 = load i32, i32* %proc_25_0_bounds, align 4, !dbg !1198, !tbaa !1164, !noalias !1158
  %dec = add nsw i32 %12, -1, !dbg !1198
  store i32 %dec, i32* %proc_25_0_bounds, align 4, !dbg !1198, !tbaa !1164, !noalias !1158
  br label %if.end, !dbg !1198

if.end:                                           ; preds = %if.then, %while.body2
  br label %while.cond1, !dbg !1186, !llvm.loop !1199

while.end:                                        ; preds = %while.cond1
  call addrspace(1) void @_Z4donev() #27, !dbg !1202, !noalias !1158
  %13 = load volatile i32, i32* getelementptr inbounds ([8 x i32], [8 x i32]* @_ZL11sync_buffer, i32 0, i32 0), align 4, !dbg !1203, !tbaa !1164, !noalias !1158
  %cmp3 = icmp sgt i32 %13, 0, !dbg !1205
  br i1 %cmp3, label %if.then4, label %if.end5, !dbg !1206

if.then4:                                         ; preds = %while.end
  store i32 3, i32* %cleanup.dest.slot, align 4
  br label %cleanup, !dbg !1207

if.end5:                                          ; preds = %while.end
  store i32 0, i32* %cleanup.dest.slot, align 4, !dbg !1208, !noalias !1158
  br label %cleanup, !dbg !1208

cleanup:                                          ; preds = %if.end5, %if.then4
  %14 = bitcast i32* %proc_25_0_bounds to i8*, !dbg !1208
  call addrspace(1) void @llvm.lifetime.end.p0i8(i64 4, i8* %14) #25, !dbg !1208, !noalias !1158
  %cleanup.dest = load i32, i32* %cleanup.dest.slot, align 4
  switch i32 %cleanup.dest, label %unreachable [
    i32 0, label %cleanup.cont
    i32 3, label %while.end6
  ]

cleanup.cont:                                     ; preds = %cleanup
  br label %while.cond, !dbg !1182, !llvm.loop !1209

while.end6:                                       ; preds = %cleanup
  store i32 0, i32* %retval, align 4, !dbg !1210, !noalias !1158
  store i32 1, i32* %cleanup.dest.slot, align 4
  %15 = bitcast i32* %index to i8*, !dbg !1211
  call addrspace(1) void @llvm.lifetime.end.p0i8(i64 4, i8* %15) #25, !dbg !1211
  %16 = bitcast %struct.output_stream.4* %stream_2 to i8*, !dbg !1211
  call addrspace(1) void @llvm.lifetime.end.p0i8(i64 4, i8* %16) #25, !dbg !1211
  %17 = bitcast %struct.input_stream.2* %stream_1 to i8*, !dbg !1211
  call addrspace(1) void @llvm.lifetime.end.p0i8(i64 4, i8* %17) #25, !dbg !1211
  %18 = bitcast %struct.input_stream.0* %stream_0 to i8*, !dbg !1211
  call addrspace(1) void @llvm.lifetime.end.p0i8(i64 4, i8* %18) #25, !dbg !1211
  %19 = load i32, i32* %retval, align 4, !dbg !1211
  ret i32 %19, !dbg !1211

unreachable:                                      ; preds = %cleanup
  unreachable
}

; Function Attrs: argmemonly nofree nosync nounwind willreturn
declare void @llvm.lifetime.start.p0i8(i64 immarg, i8* nocapture) addrspace(1) #3

; Function Attrs: nofree nosync nounwind readnone speculatable willreturn
declare void @llvm.dbg.declare(metadata, metadata, metadata) addrspace(1) #4

; Function Attrs: inaccessiblememonly nounwind willreturn
declare i8* @llvm.noalias.decl.p0i8.p0s_struct.input_stream.0s.i32(%struct.input_stream.0*, i32, metadata) addrspace(1) #5

; Function Attrs: nounwind
define linkonce_odr dso_local void @_ZN12input_streamIiEC2Ej(%struct.input_stream.0* nonnull dereferenceable(4) %this, i32 %ch) unnamed_addr addrspace(1) #6 comdat align 2 !dbg !1212 {
entry:
  %this.addr = alloca %struct.input_stream.0*, align 4
  %ch.addr = alloca i32, align 4
  store %struct.input_stream.0* %this, %struct.input_stream.0** %this.addr, align 4, !tbaa !1217
  call addrspace(1) void @llvm.dbg.declare(metadata %struct.input_stream.0** %this.addr, metadata !1214, metadata !DIExpression()), !dbg !1219
  store i32 %ch, i32* %ch.addr, align 4, !tbaa !1164
  call addrspace(1) void @llvm.dbg.declare(metadata i32* %ch.addr, metadata !1216, metadata !DIExpression()), !dbg !1220
  %this1 = load %struct.input_stream.0*, %struct.input_stream.0** %this.addr, align 4
  %0 = getelementptr inbounds %struct.input_stream.0, %struct.input_stream.0* %this1, i32 0, i32 0, !dbg !1220
  %channel = bitcast %union.anon.1* %0 to i32*, !dbg !1220
  %1 = load i32, i32* %ch.addr, align 4, !dbg !1220, !tbaa !1164
  store i32 %1, i32* %channel, align 4, !dbg !1220, !tbaa !1221
  ret void, !dbg !1220
}

; Function Attrs: inaccessiblememonly nounwind willreturn
declare i8* @llvm.noalias.decl.p0i8.p0s_struct.input_stream.2s.i32(%struct.input_stream.2*, i32, metadata) addrspace(1) #5

; Function Attrs: nounwind
define linkonce_odr dso_local void @_ZN12input_streamIfEC2Ej(%struct.input_stream.2* nonnull dereferenceable(4) %this, i32 %ch) unnamed_addr addrspace(1) #6 comdat align 2 !dbg !1222 {
entry:
  %this.addr = alloca %struct.input_stream.2*, align 4
  %ch.addr = alloca i32, align 4
  store %struct.input_stream.2* %this, %struct.input_stream.2** %this.addr, align 4, !tbaa !1217
  call addrspace(1) void @llvm.dbg.declare(metadata %struct.input_stream.2** %this.addr, metadata !1224, metadata !DIExpression()), !dbg !1227
  store i32 %ch, i32* %ch.addr, align 4, !tbaa !1164
  call addrspace(1) void @llvm.dbg.declare(metadata i32* %ch.addr, metadata !1226, metadata !DIExpression()), !dbg !1228
  %this1 = load %struct.input_stream.2*, %struct.input_stream.2** %this.addr, align 4
  %0 = getelementptr inbounds %struct.input_stream.2, %struct.input_stream.2* %this1, i32 0, i32 0, !dbg !1228
  %channel = bitcast %union.anon.3* %0 to i32*, !dbg !1228
  %1 = load i32, i32* %ch.addr, align 4, !dbg !1228, !tbaa !1164
  store i32 %1, i32* %channel, align 4, !dbg !1228, !tbaa !1221
  ret void, !dbg !1228
}

; Function Attrs: inaccessiblememonly nounwind willreturn
declare i8* @llvm.noalias.decl.p0i8.p0s_struct.output_stream.4s.i32(%struct.output_stream.4*, i32, metadata) addrspace(1) #5

; Function Attrs: nounwind
define linkonce_odr dso_local void @_ZN13output_streamIfEC2Ej(%struct.output_stream.4* nonnull dereferenceable(4) %this, i32 %ch) unnamed_addr addrspace(1) #6 comdat align 2 !dbg !1229 {
entry:
  %this.addr = alloca %struct.output_stream.4*, align 4
  %ch.addr = alloca i32, align 4
  store %struct.output_stream.4* %this, %struct.output_stream.4** %this.addr, align 4, !tbaa !1217
  call addrspace(1) void @llvm.dbg.declare(metadata %struct.output_stream.4** %this.addr, metadata !1231, metadata !DIExpression()), !dbg !1234
  store i32 %ch, i32* %ch.addr, align 4, !tbaa !1164
  call addrspace(1) void @llvm.dbg.declare(metadata i32* %ch.addr, metadata !1233, metadata !DIExpression()), !dbg !1235
  %this1 = load %struct.output_stream.4*, %struct.output_stream.4** %this.addr, align 4
  %0 = getelementptr inbounds %struct.output_stream.4, %struct.output_stream.4* %this1, i32 0, i32 0, !dbg !1235
  %channel = bitcast %union.anon.5* %0 to i32*, !dbg !1235
  %1 = load i32, i32* %ch.addr, align 4, !dbg !1235, !tbaa !1164
  store i32 %1, i32* %channel, align 4, !dbg !1235, !tbaa !1221
  ret void, !dbg !1235
}

; Function Attrs: nounwind willreturn
declare void @llvm.chess_memory_fence() addrspace(1) #7

; Function Attrs: alwaysinline nounwind mustprogress
define linkonce_odr dso_local void @_Z4donev() addrspace(1) #8 comdat {
entry:
  %agg.tmp = alloca %struct.ipd.custom_type.uint2_t.uint2_t.6, align 4
  %custom_type.tmp = alloca %struct.ipd.custom_type.uint2_t.uint2_t.6, align 4
  call addrspace(1) void @llvm.chess_memory_fence()
  call addrspace(1) void @_ZL25chess_separator_scheduleri(i32 8) #26
  call addrspace(1) void @_ZN7uint2_tC2Ei(%struct.ipd.custom_type.uint2_t.uint2_t.6* nonnull dereferenceable(1) %custom_type.tmp, i32 2) #26
  %0 = load %struct.ipd.custom_type.uint2_t.uint2_t.6, %struct.ipd.custom_type.uint2_t.uint2_t.6* %custom_type.tmp, align 4, !tbaa !1236
  store %struct.ipd.custom_type.uint2_t.uint2_t.6 %0, %struct.ipd.custom_type.uint2_t.uint2_t.6* %agg.tmp, align 4, !tbaa !1236
  %1 = load %struct.ipd.custom_type.uint2_t.uint2_t.6, %struct.ipd.custom_type.uint2_t.uint2_t.6* %agg.tmp, align 4, !tbaa !1236
  call addrspace(1) void @_ZN12me_primitive5eventE7uint2_t(%struct.ipd.custom_type.uint2_t.uint2_t.6 %1) #28
  call addrspace(1) void @_ZL25chess_separator_scheduleri(i32 5) #26
  call addrspace(1) void @llvm.chess_memory_fence()
  ret void
}

; Function Attrs: argmemonly nofree nosync nounwind willreturn
declare void @llvm.lifetime.end.p0i8(i64 immarg, i8* nocapture) addrspace(1) #3

; Function Attrs: alwaysinline nounwind mustprogress
define internal void @_ZL25chess_separator_scheduleri(i32 %i) addrspace(1) #9 {
entry:
  %i.addr = alloca i32, align 4
  store i32 %i, i32* %i.addr, align 4, !tbaa !1164
  %0 = load i32, i32* %i.addr, align 4, !tbaa !1164
  store volatile i32 %0, i32* @__chess_separator_idummy, align 4, !tbaa !1238
  ret void
}

; Function Attrs: alwaysinline nounwind mustprogress
define linkonce_odr dso_local void @_ZN12me_primitive5eventE7uint2_t(%struct.ipd.custom_type.uint2_t.uint2_t.6 %a0.coerce) addrspace(1) #10 comdat {
entry:
  %a0 = alloca %struct.ipd.custom_type.uint2_t.uint2_t.6, align 4
  store %struct.ipd.custom_type.uint2_t.uint2_t.6 %a0.coerce, %struct.ipd.custom_type.uint2_t.uint2_t.6* %a0, align 4
  %0 = load %struct.ipd.custom_type.uint2_t.uint2_t.6, %struct.ipd.custom_type.uint2_t.uint2_t.6* %a0, align 4, !tbaa !1236
  call x86_regcallcc addrspace(1) void @__regcall3__chessintr_void_event_uint2_t(%struct.ipd.custom_type.uint2_t.uint2_t.6 %0) #29
  ret void
}

; Function Attrs: alwaysinline nounwind
define linkonce_odr dso_local void @_ZN7uint2_tC2Ei(%struct.ipd.custom_type.uint2_t.uint2_t.6* nonnull dereferenceable(1) %this, i32 %a) unnamed_addr addrspace(1) #11 comdat align 2 {
entry:
  %this.addr = alloca %struct.ipd.custom_type.uint2_t.uint2_t.6*, align 4
  %a.addr = alloca i32, align 4
  store %struct.ipd.custom_type.uint2_t.uint2_t.6* %this, %struct.ipd.custom_type.uint2_t.uint2_t.6** %this.addr, align 4, !tbaa !1217
  store i32 %a, i32* %a.addr, align 4, !tbaa !1164
  %this1 = load %struct.ipd.custom_type.uint2_t.uint2_t.6*, %struct.ipd.custom_type.uint2_t.uint2_t.6** %this.addr, align 4
  %0 = bitcast %struct.ipd.custom_type.uint2_t.uint2_t.6* %this1 to i8*
  %bf.load = load i8, i8* %0, align 4
  %bf.clear = and i8 %bf.load, -4
  store i8 %bf.clear, i8* %0, align 4
  %1 = load i32, i32* %a.addr, align 4, !tbaa !1164
  %2 = call addrspace(1) %struct.ipd.custom_type.uint2_t.uint2_t.6 @llvm.chess.init.customint.s_struct.ipd.custom_type.uint2_t.uint2_t.6s.i32.p1f_s_struct.ipd.custom_type.uint2_t.uint2_t.6si32f(%struct.ipd.custom_type.uint2_t.uint2_t.6 undef, i32 %1, i32 2, i32 32, i1 true, i32 0, %struct.ipd.custom_type.uint2_t.uint2_t.6 (i32) addrspace(1)* @__regcall3__chessintr_uint2_t_uint2_t___sint)
  store %struct.ipd.custom_type.uint2_t.uint2_t.6 %2, %struct.ipd.custom_type.uint2_t.uint2_t.6* %this1, align 4
  ret void
}

; Function Attrs: inaccessiblememonly nounwind
declare dso_local x86_regcallcc void @__regcall3__chessintr_void_event_uint2_t(%struct.ipd.custom_type.uint2_t.uint2_t.6) addrspace(1) #12

; Function Attrs: nounwind readnone willreturn
declare dso_local x86_regcallcc %struct.ipd.custom_type.uint2_t.uint2_t.6 @__regcall3__chessintr_uint2_t_uint2_t___sint(i32 signext) addrspace(1) #13

; Function Attrs: nounwind readnone willreturn
declare %struct.ipd.custom_type.uint2_t.uint2_t.6 @llvm.chess.init.customint.s_struct.ipd.custom_type.uint2_t.uint2_t.6s.i32.p1f_s_struct.ipd.custom_type.uint2_t.uint2_t.6si32f(%struct.ipd.custom_type.uint2_t.uint2_t.6, i32, i32, i32, i1, i32, %struct.ipd.custom_type.uint2_t.uint2_t.6 (i32) addrspace(1)*) addrspace(1) #14

; Function Attrs: nounwind
define internal void @_GLOBAL__sub_I_entropy_vect.cpp() addrspace(1) #6 !dbg !1241 {
entry:
  call addrspace(1) void @__cxx_global_var_init(), !dbg !1243
  ret void
}

; Function Attrs: nounwind
define internal void @__cxx_global_var_init() addrspace(1) #6 !dbg !1244 {
entry:
  %call = call addrspace(1) %"class.aie::detail::vector" @_ZN3aie9broadcastIfLj8EEENS_6detail6vectorINS_17operand_base_typeINS1_5utils10remove_allIT_E4typeEE4typeEXT0_EEES6_(float 0xC0083D2420000000) #26, !dbg !1245
  %0 = extractvalue %"class.aie::detail::vector" %call, 0, !dbg !1245
  store %struct.v8float %0, %struct.v8float* getelementptr inbounds ([7 x %"class.aie::detail::vector"], [7 x %"class.aie::detail::vector"]* @_ZL1c, i32 0, i32 0, i32 0), align 32, !dbg !1245
  %call1 = call addrspace(1) %"class.aie::detail::vector" @_ZN3aie9broadcastIfLj8EEENS_6detail6vectorINS_17operand_base_typeINS1_5utils10remove_allIT_E4typeEE4typeEXT0_EEES6_(float 0x4018496E00000000) #26, !dbg !1246
  %1 = extractvalue %"class.aie::detail::vector" %call1, 0, !dbg !1246
  store %struct.v8float %1, %struct.v8float* getelementptr inbounds ([7 x %"class.aie::detail::vector"], [7 x %"class.aie::detail::vector"]* @_ZL1c, i32 0, i32 1, i32 0), align 32, !dbg !1246
  %call2 = call addrspace(1) %"class.aie::detail::vector" @_ZN3aie9broadcastIfLj8EEENS_6detail6vectorINS_17operand_base_typeINS1_5utils10remove_allIT_E4typeEE4typeEXT0_EEES6_(float 0xC01517DEE0000000) #26, !dbg !1247
  %2 = extractvalue %"class.aie::detail::vector" %call2, 0, !dbg !1247
  store %struct.v8float %2, %struct.v8float* getelementptr inbounds ([7 x %"class.aie::detail::vector"], [7 x %"class.aie::detail::vector"]* @_ZL1c, i32 0, i32 2, i32 0), align 32, !dbg !1247
  %call3 = call addrspace(1) %"class.aie::detail::vector" @_ZN3aie9broadcastIfLj8EEENS_6detail6vectorINS_17operand_base_typeINS1_5utils10remove_allIT_E4typeEE4typeEXT0_EEES6_(float 0x4009CF97E0000000) #26, !dbg !1248
  %3 = extractvalue %"class.aie::detail::vector" %call3, 0, !dbg !1248
  store %struct.v8float %3, %struct.v8float* getelementptr inbounds ([7 x %"class.aie::detail::vector"], [7 x %"class.aie::detail::vector"]* @_ZL1c, i32 0, i32 3, i32 0), align 32, !dbg !1248
  %call4 = call addrspace(1) %"class.aie::detail::vector" @_ZN3aie9broadcastIfLj8EEENS_6detail6vectorINS_17operand_base_typeINS1_5utils10remove_allIT_E4typeEE4typeEXT0_EEES6_(float 0xBFF3CD7240000000) #26, !dbg !1249
  %4 = extractvalue %"class.aie::detail::vector" %call4, 0, !dbg !1249
  store %struct.v8float %4, %struct.v8float* getelementptr inbounds ([7 x %"class.aie::detail::vector"], [7 x %"class.aie::detail::vector"]* @_ZL1c, i32 0, i32 4, i32 0), align 32, !dbg !1249
  %call5 = call addrspace(1) %"class.aie::detail::vector" @_ZN3aie9broadcastIfLj8EEENS_6detail6vectorINS_17operand_base_typeINS1_5utils10remove_allIT_E4typeEE4typeEXT0_EEES6_(float 0x3FD12145E0000000) #26, !dbg !1250
  %5 = extractvalue %"class.aie::detail::vector" %call5, 0, !dbg !1250
  store %struct.v8float %5, %struct.v8float* getelementptr inbounds ([7 x %"class.aie::detail::vector"], [7 x %"class.aie::detail::vector"]* @_ZL1c, i32 0, i32 5, i32 0), align 32, !dbg !1250
  %call6 = call addrspace(1) %"class.aie::detail::vector" @_ZN3aie9broadcastIfLj8EEENS_6detail6vectorINS_17operand_base_typeINS1_5utils10remove_allIT_E4typeEE4typeEXT0_EEES6_(float 0xBF997FC680000000) #26, !dbg !1251
  %6 = extractvalue %"class.aie::detail::vector" %call6, 0, !dbg !1251
  store %struct.v8float %6, %struct.v8float* getelementptr inbounds ([7 x %"class.aie::detail::vector"], [7 x %"class.aie::detail::vector"]* @_ZL1c, i32 0, i32 6, i32 0), align 32, !dbg !1251
  %7 = call addrspace(1) {}* @llvm.invariant.start.p0i8(i64 224, i8* bitcast ([7 x %"class.aie::detail::vector"]* @_ZL1c to i8*)), !dbg !1252
  ret void, !dbg !1253
}

; Function Attrs: alwaysinline nounwind mustprogress
define linkonce_odr dso_local %"class.aie::detail::vector" @_ZN3aie9broadcastIfLj8EEENS_6detail6vectorINS_17operand_base_typeINS1_5utils10remove_allIT_E4typeEE4typeEXT0_EEES6_(float %a) addrspace(1) #9 comdat !dbg !1254 {
entry:
  %retval = alloca %"class.aie::detail::vector", align 32
  %a.addr = alloca float, align 4
  store float %a, float* %a.addr, align 4, !tbaa !1262
  call addrspace(1) void @llvm.dbg.declare(metadata float* %a.addr, metadata !1259, metadata !DIExpression()), !dbg !1264
  %call = call addrspace(1) %"class.aie::detail::vector" @_ZN3aie6detail14broadcast_bitsILj32EfLj8EE3runERKf(float* nonnull align 4 dereferenceable(4) %a.addr) #26, !dbg !1265
  %0 = getelementptr inbounds %"class.aie::detail::vector", %"class.aie::detail::vector"* %retval, i32 0, i32 0, !dbg !1265
  %1 = extractvalue %"class.aie::detail::vector" %call, 0, !dbg !1265
  store %struct.v8float %1, %struct.v8float* %0, align 32, !dbg !1265
  %2 = load %"class.aie::detail::vector", %"class.aie::detail::vector"* %retval, align 32, !dbg !1267
  ret %"class.aie::detail::vector" %2, !dbg !1267
}

; Function Attrs: argmemonly nofree nosync nounwind willreturn
declare {}* @llvm.invariant.start.p0i8(i64 immarg, i8* nocapture) addrspace(1) #3

; Function Attrs: nounwind mustprogress
define linkonce_odr dso_local %"class.aie::detail::vector" @_ZN3aie6detail14broadcast_bitsILj32EfLj8EE3runERKf(float* nonnull align 4 dereferenceable(4) %a) addrspace(1) #15 comdat align 2 !dbg !1268 {
entry:
  %retval = alloca %"class.aie::detail::vector", align 32
  %a.addr = alloca float*, align 4
  store float* %a, float** %a.addr, align 4, !tbaa !1217
  call addrspace(1) void @llvm.dbg.declare(metadata float** %a.addr, metadata !1281, metadata !DIExpression()), !dbg !1282
  %0 = load float*, float** %a.addr, align 4, !dbg !1283, !tbaa !1217
  %call = call addrspace(1) %"class.aie::detail::vector" @_ZN3aie6detail19broadcast_bits_implILj32EfLj8EE3runERKf(float* nonnull align 4 dereferenceable(4) %0) #26, !dbg !1284
  %1 = getelementptr inbounds %"class.aie::detail::vector", %"class.aie::detail::vector"* %retval, i32 0, i32 0, !dbg !1284
  %2 = extractvalue %"class.aie::detail::vector" %call, 0, !dbg !1284
  store %struct.v8float %2, %struct.v8float* %1, align 32, !dbg !1284
  %3 = load %"class.aie::detail::vector", %"class.aie::detail::vector"* %retval, align 32, !dbg !1285
  ret %"class.aie::detail::vector" %3, !dbg !1285
}

; Function Attrs: nounwind mustprogress
define linkonce_odr dso_local %"class.aie::detail::vector" @_ZN3aie6detail19broadcast_bits_implILj32EfLj8EE3runERKf(float* nonnull align 4 dereferenceable(4) %a) addrspace(1) #15 comdat align 2 !dbg !1286 {
entry:
  %retval = alloca %"class.aie::detail::vector", align 32
  %a.addr = alloca float*, align 4
  %native_broadcast_elems = alloca i32, align 4
  %custom_type.tmp = alloca %"class.aie::detail::vector", align 32
  %tmp = alloca %"class.aie::detail::vector", align 32
  %ref.tmp = alloca %"class.aie::detail::vector.16", align 32
  store float* %a, float** %a.addr, align 4, !tbaa !1217
  call addrspace(1) void @llvm.dbg.declare(metadata float** %a.addr, metadata !1295, metadata !DIExpression()), !dbg !1298
  store i32 undef, i32* %native_broadcast_elems, align 4, !dbg !1299
  %0 = bitcast i32* %native_broadcast_elems to i8*, !dbg !1299
  call addrspace(1) void @llvm.lifetime.start.p0i8(i64 4, i8* %0) #25, !dbg !1299
  call addrspace(1) void @llvm.dbg.declare(metadata i32* %native_broadcast_elems, metadata !1296, metadata !DIExpression()), !dbg !1300
  store i32 16, i32* %native_broadcast_elems, align 4, !dbg !1300, !tbaa !1164
  call addrspace(1) void @llvm.dbg.declare(metadata %"class.aie::detail::vector"* %retval, metadata !1297, metadata !DIExpression()), !dbg !1301
  call addrspace(1) void @_ZN3aie6detail6vectorIfLj8EEC2Ev(%"class.aie::detail::vector"* nonnull dereferenceable(32) %custom_type.tmp) #26, !dbg !1301
  %1 = load %"class.aie::detail::vector", %"class.aie::detail::vector"* %custom_type.tmp, align 32, !dbg !1301, !tbaa !1302
  store %"class.aie::detail::vector" %1, %"class.aie::detail::vector"* %retval, align 32, !dbg !1301, !tbaa !1302
  %2 = bitcast %"class.aie::detail::vector"* %tmp to i8*, !dbg !1305
  call addrspace(1) void @llvm.lifetime.start.p0i8(i64 32, i8* %2) #25, !dbg !1305
  %3 = bitcast %"class.aie::detail::vector.16"* %ref.tmp to i8*, !dbg !1309
  call addrspace(1) void @llvm.lifetime.start.p0i8(i64 64, i8* %3) #25, !dbg !1309
  %4 = load float*, float** %a.addr, align 4, !dbg !1310, !tbaa !1217
  %call = call addrspace(1) %"class.aie::detail::vector.16" @_ZN3aie6detail19broadcast_bits_implILj32EfLj16EE3runERKf(float* nonnull align 4 dereferenceable(4) %4) #26, !dbg !1309
  %5 = getelementptr inbounds %"class.aie::detail::vector.16", %"class.aie::detail::vector.16"* %ref.tmp, i32 0, i32 0, !dbg !1309
  %6 = extractvalue %"class.aie::detail::vector.16" %call, 0, !dbg !1309
  store %struct.v16float %6, %struct.v16float* %5, align 32, !dbg !1309
  %call1 = call addrspace(1) %"class.aie::detail::vector" @_ZNK3aie6detail6vectorIfLj16EE7extractILj8EEENS1_IfXT_EEEj(%"class.aie::detail::vector.16"* nonnull dereferenceable(64) %ref.tmp, i32 0) #26, !dbg !1305
  %7 = getelementptr inbounds %"class.aie::detail::vector", %"class.aie::detail::vector"* %tmp, i32 0, i32 0, !dbg !1305
  %8 = extractvalue %"class.aie::detail::vector" %call1, 0, !dbg !1305
  store %struct.v8float %8, %struct.v8float* %7, align 32, !dbg !1305
  %9 = load %"class.aie::detail::vector", %"class.aie::detail::vector"* %tmp, align 32, !dbg !1305, !tbaa !1302
  %10 = bitcast %"class.aie::detail::vector"* %tmp to i8*, !dbg !1305
  call addrspace(1) void @llvm.lifetime.end.p0i8(i64 32, i8* %10) #25, !dbg !1305
  %11 = bitcast %"class.aie::detail::vector.16"* %ref.tmp to i8*, !dbg !1311
  call addrspace(1) void @llvm.lifetime.end.p0i8(i64 64, i8* %11) #25, !dbg !1311
  %12 = bitcast i32* %native_broadcast_elems to i8*, !dbg !1312
  call addrspace(1) void @llvm.lifetime.end.p0i8(i64 4, i8* %12) #25, !dbg !1312
  ret %"class.aie::detail::vector" %9, !dbg !1305
}

; Function Attrs: alwaysinline nounwind
define linkonce_odr dso_local void @_ZN3aie6detail6vectorIfLj8EEC2Ev(%"class.aie::detail::vector"* nonnull dereferenceable(32) %this) unnamed_addr addrspace(1) #11 comdat align 2 !dbg !1313 {
entry:
  %this.addr = alloca %"class.aie::detail::vector"*, align 4
  store %"class.aie::detail::vector"* %this, %"class.aie::detail::vector"** %this.addr, align 4, !tbaa !1217
  call addrspace(1) void @llvm.dbg.declare(metadata %"class.aie::detail::vector"** %this.addr, metadata !1315, metadata !DIExpression()), !dbg !1317
  %this1 = load %"class.aie::detail::vector"*, %"class.aie::detail::vector"** %this.addr, align 4
  %data = getelementptr inbounds %"class.aie::detail::vector", %"class.aie::detail::vector"* %this1, i32 0, i32 0, !dbg !1318
  %call = call addrspace(1) %struct.v8float @_ZN3aie6detail14vector_storageIfLj8EE5undefEv() #26, !dbg !1319
  %0 = getelementptr inbounds %struct.v8float, %struct.v8float* %data, i32 0, i32 0, !dbg !1319
  %1 = extractvalue %struct.v8float %call, 0, !dbg !1319
  store %struct.ipd.custom_type.v32int8.v32int8 %1, %struct.ipd.custom_type.v32int8.v32int8* %0, align 32, !dbg !1319
  ret void, !dbg !1320
}

; Function Attrs: nounwind mustprogress
define linkonce_odr dso_local %"class.aie::detail::vector.16" @_ZN3aie6detail19broadcast_bits_implILj32EfLj16EE3runERKf(float* nonnull align 4 dereferenceable(4) %a) addrspace(1) #15 comdat align 2 !dbg !1321 {
entry:
  %retval = alloca %"class.aie::detail::vector.16", align 32
  %a.addr = alloca float*, align 4
  %native_broadcast_elems = alloca i32, align 4
  %custom_type.tmp = alloca %"class.aie::detail::vector.16", align 32
  %tmp = alloca %"class.aie::detail::vector.16", align 32
  %custom_type.tmp1 = alloca %"class.aie::detail::vector.16", align 32
  %tmp2 = alloca %"class.aie::detail::vector.16", align 32
  %agg.tmp = alloca %"class.aie::detail::vector_elem_const_ref.20", align 4
  store float* %a, float** %a.addr, align 4, !tbaa !1217
  call addrspace(1) void @llvm.dbg.declare(metadata float** %a.addr, metadata !1518, metadata !DIExpression()), !dbg !1527
  store i32 undef, i32* %native_broadcast_elems, align 4, !dbg !1528
  %0 = bitcast i32* %native_broadcast_elems to i8*, !dbg !1528
  call addrspace(1) void @llvm.lifetime.start.p0i8(i64 4, i8* %0) #25, !dbg !1528
  call addrspace(1) void @llvm.dbg.declare(metadata i32* %native_broadcast_elems, metadata !1519, metadata !DIExpression()), !dbg !1529
  store i32 16, i32* %native_broadcast_elems, align 4, !dbg !1529, !tbaa !1164
  call addrspace(1) void @llvm.dbg.declare(metadata %"class.aie::detail::vector.16"* %retval, metadata !1520, metadata !DIExpression()), !dbg !1530
  call addrspace(1) void @_ZN3aie6detail6vectorIfLj16EEC2Ev(%"class.aie::detail::vector.16"* nonnull dereferenceable(64) %custom_type.tmp) #26, !dbg !1530
  %1 = load %"class.aie::detail::vector.16", %"class.aie::detail::vector.16"* %custom_type.tmp, align 32, !dbg !1530, !tbaa !1531
  store %"class.aie::detail::vector.16" %1, %"class.aie::detail::vector.16"* %retval, align 32, !dbg !1530, !tbaa !1531
  store %"class.aie::detail::vector.16" undef, %"class.aie::detail::vector.16"* %tmp, align 32, !dbg !1534
  %2 = bitcast %"class.aie::detail::vector.16"* %tmp to i8*, !dbg !1534
  call addrspace(1) void @llvm.lifetime.start.p0i8(i64 64, i8* %2) #25, !dbg !1534
  call addrspace(1) void @llvm.dbg.declare(metadata %"class.aie::detail::vector.16"* %tmp, metadata !1521, metadata !DIExpression()), !dbg !1535
  %3 = load float*, float** %a.addr, align 4, !dbg !1536, !tbaa !1217
  %4 = load float, float* %3, align 4, !dbg !1536, !tbaa !1262
  call addrspace(1) void @_ZN3aie6detail6vectorIfLj16EEC2IJEEEfDpOT_(%"class.aie::detail::vector.16"* nonnull dereferenceable(64) %custom_type.tmp1, float %4) #26, !dbg !1535
  %5 = load %"class.aie::detail::vector.16", %"class.aie::detail::vector.16"* %custom_type.tmp1, align 32, !dbg !1535, !tbaa !1531
  store %"class.aie::detail::vector.16" %5, %"class.aie::detail::vector.16"* %tmp, align 32, !dbg !1535, !tbaa !1531
  %6 = bitcast %"class.aie::detail::vector.16"* %tmp2 to i8*, !dbg !1537
  call addrspace(1) void @llvm.lifetime.start.p0i8(i64 64, i8* %6) #25, !dbg !1537
  %call = call addrspace(1) %"class.aie::detail::vector_elem_const_ref.20" @_ZNK3aie6detail6vectorIfLj16EEixEj(%"class.aie::detail::vector.16"* nonnull dereferenceable(64) %tmp, i32 0) #26, !dbg !1538
  %7 = getelementptr inbounds %"class.aie::detail::vector_elem_const_ref.20", %"class.aie::detail::vector_elem_const_ref.20"* %agg.tmp, i32 0, i32 0, !dbg !1538
  %8 = extractvalue %"class.aie::detail::vector_elem_const_ref.20" %call, 0, !dbg !1538
  store %"class.aie::detail::vector.16"* %8, %"class.aie::detail::vector.16"** %7, align 4, !dbg !1538
  %9 = getelementptr inbounds %"class.aie::detail::vector_elem_const_ref.20", %"class.aie::detail::vector_elem_const_ref.20"* %agg.tmp, i32 0, i32 1, !dbg !1538
  %10 = extractvalue %"class.aie::detail::vector_elem_const_ref.20" %call, 1, !dbg !1538
  store i32 %10, i32* %9, align 4, !dbg !1538
  %11 = load %"class.aie::detail::vector_elem_const_ref.20", %"class.aie::detail::vector_elem_const_ref.20"* %agg.tmp, align 4, !dbg !1537, !tbaa !1539
  %call3 = call addrspace(1) %"class.aie::detail::vector.16" @_ZN3aie6detail19broadcast_bits_implILj32EfLj16EE3runILj16EEENS0_6vectorIfLj16EEENS0_21vector_elem_const_refIfXT_EEE(%"class.aie::detail::vector_elem_const_ref.20" %11) #26, !dbg !1537
  %12 = getelementptr inbounds %"class.aie::detail::vector.16", %"class.aie::detail::vector.16"* %tmp2, i32 0, i32 0, !dbg !1537
  %13 = extractvalue %"class.aie::detail::vector.16" %call3, 0, !dbg !1537
  store %struct.v16float %13, %struct.v16float* %12, align 32, !dbg !1537
  %14 = load %"class.aie::detail::vector.16", %"class.aie::detail::vector.16"* %tmp2, align 32, !dbg !1537, !tbaa !1531
  %15 = bitcast %"class.aie::detail::vector.16"* %tmp2 to i8*, !dbg !1537
  call addrspace(1) void @llvm.lifetime.end.p0i8(i64 64, i8* %15) #25, !dbg !1537
  %16 = bitcast %"class.aie::detail::vector.16"* %tmp to i8*, !dbg !1541
  call addrspace(1) void @llvm.lifetime.end.p0i8(i64 64, i8* %16) #25, !dbg !1541
  %17 = bitcast i32* %native_broadcast_elems to i8*, !dbg !1542
  call addrspace(1) void @llvm.lifetime.end.p0i8(i64 4, i8* %17) #25, !dbg !1542
  ret %"class.aie::detail::vector.16" %14, !dbg !1537
}

; Function Attrs: alwaysinline nounwind mustprogress
define linkonce_odr dso_local %"class.aie::detail::vector" @_ZNK3aie6detail6vectorIfLj16EE7extractILj8EEENS1_IfXT_EEEj(%"class.aie::detail::vector.16"* nonnull dereferenceable(64) %this, i32 %idx) addrspace(1) #9 comdat align 2 !dbg !1543 {
entry:
  %retval = alloca %"class.aie::detail::vector", align 32
  %this.addr = alloca %"class.aie::detail::vector.16"*, align 4
  %idx.addr = alloca i32, align 4
  %output_bits = alloca i32, align 4
  %custom_type.tmp = alloca %"class.aie::detail::vector", align 32
  %tmp = alloca %struct.v8float, align 32
  %cleanup.dest.slot = alloca i32, align 4
  %shift_subvector = alloca i32, align 4
  %tmp8 = alloca %"class.aie::detail::vector.10", align 32
  %custom_type.tmp9 = alloca %"class.aie::detail::vector.10", align 32
  %agg.tmp = alloca %struct.v8cint32, align 32
  %agg.tmp10 = alloca %struct.v8cint32, align 32
  %ref.tmp = alloca %"class.aie::detail::vector.10", align 32
  %custom_type.tmp14 = alloca %"class.aie::detail::vector", align 32
  %agg.tmp15 = alloca %struct.v8float, align 32
  %ref.tmp16 = alloca %struct.v4cint32, align 32
  %agg.tmp17 = alloca %struct.v8cint32, align 32
  store %"class.aie::detail::vector.16"* %this, %"class.aie::detail::vector.16"** %this.addr, align 4, !tbaa !1217
  call addrspace(1) void @llvm.dbg.declare(metadata %"class.aie::detail::vector.16"** %this.addr, metadata !1550, metadata !DIExpression()), !dbg !1702
  store i32 %idx, i32* %idx.addr, align 4, !tbaa !1164
  call addrspace(1) void @llvm.dbg.declare(metadata i32* %idx.addr, metadata !1552, metadata !DIExpression()), !dbg !1703
  %this1 = load %"class.aie::detail::vector.16"*, %"class.aie::detail::vector.16"** %this.addr, align 4
  %0 = load i32, i32* %idx.addr, align 4, !dbg !1704, !tbaa !1164
  %cmp = icmp ult i32 %0, 2, !dbg !1704
  %1 = call addrspace(1) i1 @llvm.is.constant.i1(i1 %cmp), !dbg !1704
  br i1 %1, label %if.then, label %if.end4, !dbg !1706

if.then:                                          ; preds = %entry
  br label %do.body, !dbg !1707

do.body:                                          ; preds = %if.then
  %2 = load i32, i32* %idx.addr, align 4, !dbg !1709, !tbaa !1164
  %cmp2 = icmp ult i32 %2, 2, !dbg !1709
  %3 = call addrspace(1) i1 @llvm.chess_manifest(i1 %cmp2), !dbg !1709
  br i1 %3, label %if.end, label %if.then3, !dbg !1712

if.then3:                                         ; preds = %do.body
  call addrspace(1) void @llvm.chess_error(metadata !1713), !dbg !1709
  br label %if.end, !dbg !1709

if.end:                                           ; preds = %if.then3, %do.body
  br label %do.end, !dbg !1712

do.end:                                           ; preds = %if.end
  br label %if.end4, !dbg !1707

if.end4:                                          ; preds = %do.end, %entry
  %4 = load i32, i32* %idx.addr, align 4, !dbg !1706, !tbaa !1164
  %cmp5 = icmp ult i32 %4, 2, !dbg !1706
  call addrspace(1) void @llvm.assume(i1 %cmp5), !dbg !1706
  store i32 undef, i32* %output_bits, align 4, !dbg !1714
  %5 = bitcast i32* %output_bits to i8*, !dbg !1714
  call addrspace(1) void @llvm.lifetime.start.p0i8(i64 4, i8* %5) #25, !dbg !1714
  call addrspace(1) void @llvm.dbg.declare(metadata i32* %output_bits, metadata !1553, metadata !DIExpression()), !dbg !1715
  store i32 256, i32* %output_bits, align 4, !dbg !1715, !tbaa !1164
  call addrspace(1) void @llvm.dbg.declare(metadata %"class.aie::detail::vector"* %retval, metadata !1554, metadata !DIExpression()), !dbg !1716
  call addrspace(1) void @_ZN3aie6detail6vectorIfLj8EEC2Ev(%"class.aie::detail::vector"* nonnull dereferenceable(32) %custom_type.tmp) #26, !dbg !1716
  %6 = load %"class.aie::detail::vector", %"class.aie::detail::vector"* %custom_type.tmp, align 32, !dbg !1716, !tbaa !1302
  store %"class.aie::detail::vector" %6, %"class.aie::detail::vector"* %retval, align 32, !dbg !1716, !tbaa !1302
  %7 = load i32, i32* %idx.addr, align 4, !dbg !1717, !tbaa !1164
  %8 = call addrspace(1) i1 @llvm.is.constant.i32(i32 %7), !dbg !1718
  br i1 %8, label %if.then6, label %if.else, !dbg !1719

if.then6:                                         ; preds = %if.end4
  %data = getelementptr inbounds %"class.aie::detail::vector", %"class.aie::detail::vector"* %retval, i32 0, i32 0, !dbg !1720
  %9 = bitcast %struct.v8float* %tmp to i8*, !dbg !1725
  call addrspace(1) void @llvm.lifetime.start.p0i8(i64 32, i8* %9) #25, !dbg !1725
  %data7 = getelementptr inbounds %"class.aie::detail::vector.16", %"class.aie::detail::vector.16"* %this1, i32 0, i32 0, !dbg !1726
  %10 = load i32, i32* %idx.addr, align 4, !dbg !1727, !tbaa !1164
  %11 = load %struct.v16float, %struct.v16float* %data7, align 32, !dbg !1725, !tbaa !1728
  %call = call addrspace(1) %struct.v8float @_Z5ext_w8v16floati(%struct.v16float %11, i32 %10) #28, !dbg !1725
  %12 = getelementptr inbounds %struct.v8float, %struct.v8float* %tmp, i32 0, i32 0, !dbg !1725
  %13 = extractvalue %struct.v8float %call, 0, !dbg !1725
  store %struct.ipd.custom_type.v32int8.v32int8 %13, %struct.ipd.custom_type.v32int8.v32int8* %12, align 32, !dbg !1725
  %14 = load %struct.v8float, %struct.v8float* %tmp, align 32, !dbg !1725, !tbaa !1729
  store %struct.v8float %14, %struct.v8float* %data, align 32, !dbg !1725, !tbaa !1729
  %15 = bitcast %struct.v8float* %tmp to i8*, !dbg !1725
  call addrspace(1) void @llvm.lifetime.end.p0i8(i64 32, i8* %15) #25, !dbg !1725
  store i32 1, i32* %cleanup.dest.slot, align 4
  br label %cleanup, !dbg !1730

if.else:                                          ; preds = %if.end4
  store i32 undef, i32* %shift_subvector, align 4, !dbg !1731
  %16 = bitcast i32* %shift_subvector to i8*, !dbg !1731
  call addrspace(1) void @llvm.lifetime.start.p0i8(i64 4, i8* %16) #25, !dbg !1731
  call addrspace(1) void @llvm.dbg.declare(metadata i32* %shift_subvector, metadata !1557, metadata !DIExpression()), !dbg !1732
  store i32 4, i32* %shift_subvector, align 4, !dbg !1732, !tbaa !1164
  store %"class.aie::detail::vector.10" undef, %"class.aie::detail::vector.10"* %tmp8, align 32, !dbg !1733
  %17 = bitcast %"class.aie::detail::vector.10"* %tmp8 to i8*, !dbg !1733
  call addrspace(1) void @llvm.lifetime.start.p0i8(i64 64, i8* %17) #25, !dbg !1733
  call addrspace(1) void @llvm.dbg.declare(metadata %"class.aie::detail::vector.10"* %tmp8, metadata !1560, metadata !DIExpression()), !dbg !1734
  %18 = bitcast %"class.aie::detail::vector.10"* %ref.tmp to i8*, !dbg !1735
  call addrspace(1) void @llvm.lifetime.start.p0i8(i64 64, i8* %18) #25, !dbg !1735
  %call11 = call addrspace(1) %"class.aie::detail::vector.10" @_ZNK3aie6detail6vectorIfLj16EE7cast_toI6cint32EEDav(%"class.aie::detail::vector.16"* nonnull dereferenceable(64) %this1) #26, !dbg !1735
  %19 = getelementptr inbounds %"class.aie::detail::vector.10", %"class.aie::detail::vector.10"* %ref.tmp, i32 0, i32 0, !dbg !1735
  %20 = extractvalue %"class.aie::detail::vector.10" %call11, 0, !dbg !1735
  store %struct.v8cint32 %20, %struct.v8cint32* %19, align 32, !dbg !1735
  %call12 = call addrspace(1) %struct.v8cint32 @_ZNK3aie6detail6vectorI6cint32Lj8EEcv8v8cint32Ev(%"class.aie::detail::vector.10"* nonnull dereferenceable(64) %ref.tmp) #26, !dbg !1735
  %21 = getelementptr inbounds %struct.v8cint32, %struct.v8cint32* %agg.tmp10, i32 0, i32 0, !dbg !1735
  %22 = extractvalue %struct.v8cint32 %call12, 0, !dbg !1735
  store %struct.ipd.custom_type.v64int8.v64int8 %22, %struct.ipd.custom_type.v64int8.v64int8* %21, align 32, !dbg !1735
  %23 = load i32, i32* %idx.addr, align 4, !dbg !1736, !tbaa !1164
  %mul = mul i32 %23, 4, !dbg !1737
  %24 = load %struct.v8cint32, %struct.v8cint32* %agg.tmp10, align 32, !dbg !1738, !tbaa !1739
  %call13 = call addrspace(1) %struct.v8cint32 @_Z8shuffle88v8cint32ij(%struct.v8cint32 %24, i32 %mul, i32 12816) #26, !dbg !1738
  %25 = getelementptr inbounds %struct.v8cint32, %struct.v8cint32* %agg.tmp, i32 0, i32 0, !dbg !1738
  %26 = extractvalue %struct.v8cint32 %call13, 0, !dbg !1738
  store %struct.ipd.custom_type.v64int8.v64int8 %26, %struct.ipd.custom_type.v64int8.v64int8* %25, align 32, !dbg !1738
  %27 = load %struct.v8cint32, %struct.v8cint32* %agg.tmp, align 32, !dbg !1738, !tbaa !1739
  call addrspace(1) void @_ZN3aie6detail6vectorI6cint32Lj8EEC2E8v8cint32(%"class.aie::detail::vector.10"* nonnull dereferenceable(64) %custom_type.tmp9, %struct.v8cint32 %27) #26, !dbg !1738
  %28 = load %"class.aie::detail::vector.10", %"class.aie::detail::vector.10"* %custom_type.tmp9, align 32, !dbg !1738, !tbaa !1740
  store %"class.aie::detail::vector.10" %28, %"class.aie::detail::vector.10"* %tmp8, align 32, !dbg !1738, !tbaa !1740
  %29 = bitcast %"class.aie::detail::vector.10"* %ref.tmp to i8*, !dbg !1738
  call addrspace(1) void @llvm.lifetime.end.p0i8(i64 64, i8* %29) #25, !dbg !1738
  %30 = bitcast %struct.v4cint32* %ref.tmp16 to i8*, !dbg !1742
  call addrspace(1) void @llvm.lifetime.start.p0i8(i64 32, i8* %30) #25, !dbg !1742
  %call18 = call addrspace(1) %struct.v8cint32 @_ZNK3aie6detail6vectorI6cint32Lj8EEcv8v8cint32Ev(%"class.aie::detail::vector.10"* nonnull dereferenceable(64) %tmp8) #26, !dbg !1743
  %31 = getelementptr inbounds %struct.v8cint32, %struct.v8cint32* %agg.tmp17, i32 0, i32 0, !dbg !1743
  %32 = extractvalue %struct.v8cint32 %call18, 0, !dbg !1743
  store %struct.ipd.custom_type.v64int8.v64int8 %32, %struct.ipd.custom_type.v64int8.v64int8* %31, align 32, !dbg !1743
  %33 = load %struct.v8cint32, %struct.v8cint32* %agg.tmp17, align 32, !dbg !1742, !tbaa !1739
  %call19 = call addrspace(1) %struct.v4cint32 @_Z5ext_w8v8cint32i(%struct.v8cint32 %33, i32 0) #28, !dbg !1742
  %34 = getelementptr inbounds %struct.v4cint32, %struct.v4cint32* %ref.tmp16, i32 0, i32 0, !dbg !1742
  %35 = extractvalue %struct.v4cint32 %call19, 0, !dbg !1742
  store %struct.ipd.custom_type.v32int8.v32int8 %35, %struct.ipd.custom_type.v32int8.v32int8* %34, align 32, !dbg !1742
  %call20 = call addrspace(1) %struct.v8float @_ZN3aie6detailL18vector_cast_helperIfLj8E8v4cint32EENS0_14vector_storageIT_XT0_EE4typeEOT1_(%struct.v4cint32* nonnull align 32 dereferenceable(32) %ref.tmp16) #26, !dbg !1744
  %36 = getelementptr inbounds %struct.v8float, %struct.v8float* %agg.tmp15, i32 0, i32 0, !dbg !1744
  %37 = extractvalue %struct.v8float %call20, 0, !dbg !1744
  store %struct.ipd.custom_type.v32int8.v32int8 %37, %struct.ipd.custom_type.v32int8.v32int8* %36, align 32, !dbg !1744
  %38 = load %struct.v8float, %struct.v8float* %agg.tmp15, align 32, !dbg !1744, !tbaa !1729
  call addrspace(1) void @_ZN3aie6detail6vectorIfLj8EEC2E7v8float(%"class.aie::detail::vector"* nonnull dereferenceable(32) %custom_type.tmp14, %struct.v8float %38) #26, !dbg !1744
  %39 = load %"class.aie::detail::vector", %"class.aie::detail::vector"* %custom_type.tmp14, align 32, !dbg !1744, !tbaa !1302
  store %"class.aie::detail::vector" %39, %"class.aie::detail::vector"* %retval, align 32, !dbg !1744, !tbaa !1302
  %40 = bitcast %struct.v4cint32* %ref.tmp16 to i8*, !dbg !1745
  call addrspace(1) void @llvm.lifetime.end.p0i8(i64 32, i8* %40) #25, !dbg !1745
  %41 = bitcast %"class.aie::detail::vector.10"* %tmp8 to i8*, !dbg !1746
  call addrspace(1) void @llvm.lifetime.end.p0i8(i64 64, i8* %41) #25, !dbg !1746
  %42 = bitcast i32* %shift_subvector to i8*, !dbg !1747
  call addrspace(1) void @llvm.lifetime.end.p0i8(i64 4, i8* %42) #25, !dbg !1747
  br label %if.end21

if.end21:                                         ; preds = %if.else
  store i32 1, i32* %cleanup.dest.slot, align 4
  br label %cleanup, !dbg !1748

cleanup:                                          ; preds = %if.end21, %if.then6
  %43 = bitcast i32* %output_bits to i8*, !dbg !1749
  call addrspace(1) void @llvm.lifetime.end.p0i8(i64 4, i8* %43) #25, !dbg !1749
  %44 = load %"class.aie::detail::vector", %"class.aie::detail::vector"* %retval, align 32, !dbg !1749
  ret %"class.aie::detail::vector" %44, !dbg !1749
}

; Function Attrs: convergent nofree nosync nounwind readnone willreturn
declare i1 @llvm.is.constant.i1(i1) addrspace(1) #16

; Function Attrs: nounwind readnone willreturn
declare i1 @llvm.chess_manifest(i1) addrspace(1) #14

; Function Attrs: noreturn nounwind
declare void @llvm.chess_error(metadata) addrspace(1) #17

; Function Attrs: nofree nosync nounwind willreturn
declare void @llvm.assume(i1 noundef) addrspace(1) #18

; Function Attrs: convergent nofree nosync nounwind readnone willreturn
declare i1 @llvm.is.constant.i32(i32) addrspace(1) #16

; Function Attrs: alwaysinline nounwind mustprogress
define linkonce_odr dso_local %struct.v8float @_Z5ext_w8v16floati(%struct.v16float %a0.coerce, i32 %a1) addrspace(1) #10 comdat {
entry:
  %retval = alloca %struct.v8float, align 32
  %a0 = alloca %struct.v16float, align 32
  %a1.addr = alloca i32, align 4
  store %struct.v16float %a0.coerce, %struct.v16float* %a0, align 32
  store i32 %a1, i32* %a1.addr, align 4, !tbaa !1164
  %0 = load i32, i32* %a1.addr, align 4, !tbaa !1164
  %1 = load %struct.v16float, %struct.v16float* %a0, align 32, !tbaa !1739
  %call = call x86_regcallcc addrspace(1) %struct.v8float @__regcall3__chessintr_v8float_ext_w_v16float___sint(%struct.v16float %1, i32 signext %0) #30
  %2 = getelementptr inbounds %struct.v8float, %struct.v8float* %retval, i32 0, i32 0
  %3 = extractvalue %struct.v8float %call, 0
  store %struct.ipd.custom_type.v32int8.v32int8 %3, %struct.ipd.custom_type.v32int8.v32int8* %2, align 32
  %4 = load %struct.v8float, %struct.v8float* %retval, align 32
  ret %struct.v8float %4
}

; Function Attrs: alwaysinline nounwind mustprogress
define linkonce_odr dso_local %"class.aie::detail::vector.10" @_ZNK3aie6detail6vectorIfLj16EE7cast_toI6cint32EEDav(%"class.aie::detail::vector.16"* nonnull dereferenceable(64) %this) addrspace(1) #9 comdat align 2 !dbg !1750 {
entry:
  %this.addr = alloca %"class.aie::detail::vector.16"*, align 4
  %DstSize = alloca i32, align 4
  %DstElems = alloca i32, align 4
  %ret = alloca %"class.aie::detail::vector.10", align 32
  %custom_type.tmp = alloca %"class.aie::detail::vector.10", align 32
  %tmp = alloca %struct.v8cint32, align 32
  store %"class.aie::detail::vector.16"* %this, %"class.aie::detail::vector.16"** %this.addr, align 4, !tbaa !1217
  call addrspace(1) void @llvm.dbg.declare(metadata %"class.aie::detail::vector.16"** %this.addr, metadata !1760, metadata !DIExpression()), !dbg !1764
  %this1 = load %"class.aie::detail::vector.16"*, %"class.aie::detail::vector.16"** %this.addr, align 4
  store i32 undef, i32* %DstSize, align 4, !dbg !1765
  %0 = bitcast i32* %DstSize to i8*, !dbg !1765
  call addrspace(1) void @llvm.lifetime.start.p0i8(i64 4, i8* %0) #25, !dbg !1765
  call addrspace(1) void @llvm.dbg.declare(metadata i32* %DstSize, metadata !1761, metadata !DIExpression()), !dbg !1766
  store i32 64, i32* %DstSize, align 4, !dbg !1766, !tbaa !1164
  store i32 undef, i32* %DstElems, align 4, !dbg !1767
  %1 = bitcast i32* %DstElems to i8*, !dbg !1767
  call addrspace(1) void @llvm.lifetime.start.p0i8(i64 4, i8* %1) #25, !dbg !1767
  call addrspace(1) void @llvm.dbg.declare(metadata i32* %DstElems, metadata !1762, metadata !DIExpression()), !dbg !1768
  store i32 8, i32* %DstElems, align 4, !dbg !1768, !tbaa !1164
  store %"class.aie::detail::vector.10" undef, %"class.aie::detail::vector.10"* %ret, align 32, !dbg !1769
  %2 = bitcast %"class.aie::detail::vector.10"* %ret to i8*, !dbg !1769
  call addrspace(1) void @llvm.lifetime.start.p0i8(i64 64, i8* %2) #25, !dbg !1769
  call addrspace(1) void @llvm.dbg.declare(metadata %"class.aie::detail::vector.10"* %ret, metadata !1763, metadata !DIExpression()), !dbg !1770
  call addrspace(1) void @_ZN3aie6detail6vectorI6cint32Lj8EEC2Ev(%"class.aie::detail::vector.10"* nonnull dereferenceable(64) %custom_type.tmp) #26, !dbg !1770
  %3 = load %"class.aie::detail::vector.10", %"class.aie::detail::vector.10"* %custom_type.tmp, align 32, !dbg !1770, !tbaa !1740
  store %"class.aie::detail::vector.10" %3, %"class.aie::detail::vector.10"* %ret, align 32, !dbg !1770, !tbaa !1740
  %data = getelementptr inbounds %"class.aie::detail::vector.10", %"class.aie::detail::vector.10"* %ret, i32 0, i32 0, !dbg !1771
  %4 = bitcast %struct.v8cint32* %tmp to i8*, !dbg !1772
  call addrspace(1) void @llvm.lifetime.start.p0i8(i64 64, i8* %4) #25, !dbg !1772
  %data2 = getelementptr inbounds %"class.aie::detail::vector.16", %"class.aie::detail::vector.16"* %this1, i32 0, i32 0, !dbg !1773
  %call = call addrspace(1) %struct.v8cint32 @_ZN3aie6detailL18vector_cast_helperI6cint32Lj8ERK8v16floatEENS0_14vector_storageIT_XT0_EE4typeEOT1_(%struct.v16float* nonnull align 32 dereferenceable(64) %data2) #26, !dbg !1772
  %5 = getelementptr inbounds %struct.v8cint32, %struct.v8cint32* %tmp, i32 0, i32 0, !dbg !1772
  %6 = extractvalue %struct.v8cint32 %call, 0, !dbg !1772
  store %struct.ipd.custom_type.v64int8.v64int8 %6, %struct.ipd.custom_type.v64int8.v64int8* %5, align 32, !dbg !1772
  %7 = load %struct.v8cint32, %struct.v8cint32* %tmp, align 32, !dbg !1772, !tbaa !1739
  store %struct.v8cint32 %7, %struct.v8cint32* %data, align 32, !dbg !1772, !tbaa !1739
  %8 = bitcast %struct.v8cint32* %tmp to i8*, !dbg !1772
  call addrspace(1) void @llvm.lifetime.end.p0i8(i64 64, i8* %8) #25, !dbg !1772
  %9 = load %"class.aie::detail::vector.10", %"class.aie::detail::vector.10"* %ret, align 32, !dbg !1774, !tbaa !1740
  %10 = bitcast %"class.aie::detail::vector.10"* %ret to i8*, !dbg !1775
  call addrspace(1) void @llvm.lifetime.end.p0i8(i64 64, i8* %10) #25, !dbg !1775
  %11 = bitcast i32* %DstElems to i8*, !dbg !1775
  call addrspace(1) void @llvm.lifetime.end.p0i8(i64 4, i8* %11) #25, !dbg !1775
  %12 = bitcast i32* %DstSize to i8*, !dbg !1775
  call addrspace(1) void @llvm.lifetime.end.p0i8(i64 4, i8* %12) #25, !dbg !1775
  ret %"class.aie::detail::vector.10" %9, !dbg !1774
}

; Function Attrs: alwaysinline nounwind mustprogress
define linkonce_odr dso_local %struct.v8cint32 @_ZNK3aie6detail6vectorI6cint32Lj8EEcv8v8cint32Ev(%"class.aie::detail::vector.10"* nonnull dereferenceable(64) %this) addrspace(1) #9 comdat align 2 !dbg !1776 {
entry:
  %retval = alloca %struct.v8cint32, align 32
  %this.addr = alloca %"class.aie::detail::vector.10"*, align 4
  store %"class.aie::detail::vector.10"* %this, %"class.aie::detail::vector.10"** %this.addr, align 4, !tbaa !1217
  call addrspace(1) void @llvm.dbg.declare(metadata %"class.aie::detail::vector.10"** %this.addr, metadata !1778, metadata !DIExpression()), !dbg !1780
  %this1 = load %"class.aie::detail::vector.10"*, %"class.aie::detail::vector.10"** %this.addr, align 4
  %call = call addrspace(1) %struct.v8cint32 @_ZNK3aie6detail6vectorI6cint32Lj8EE9to_nativeEv(%"class.aie::detail::vector.10"* nonnull dereferenceable(64) %this1) #26, !dbg !1781
  %0 = getelementptr inbounds %struct.v8cint32, %struct.v8cint32* %retval, i32 0, i32 0, !dbg !1781
  %1 = extractvalue %struct.v8cint32 %call, 0, !dbg !1781
  store %struct.ipd.custom_type.v64int8.v64int8 %1, %struct.ipd.custom_type.v64int8.v64int8* %0, align 32, !dbg !1781
  %2 = load %struct.v8cint32, %struct.v8cint32* %retval, align 32, !dbg !1782
  ret %struct.v8cint32 %2, !dbg !1782
}

; Function Attrs: alwaysinline nounwind mustprogress
define linkonce_odr dso_local %struct.v8cint32 @_Z8shuffle88v8cint32ij(%struct.v8cint32 %a0.coerce, i32 %a1, i32 %a2) addrspace(1) #9 comdat {
entry:
  %retval = alloca %struct.v8cint32, align 32
  %a0 = alloca %struct.v8cint32, align 32
  %a1.addr = alloca i32, align 4
  %a2.addr = alloca i32, align 4
  store %struct.v8cint32 %a0.coerce, %struct.v8cint32* %a0, align 32
  store i32 %a1, i32* %a1.addr, align 4, !tbaa !1164
  store i32 %a2, i32* %a2.addr, align 4, !tbaa !1164
  %0 = load i32, i32* %a1.addr, align 4, !tbaa !1164
  %1 = load i32, i32* %a2.addr, align 4, !tbaa !1164
  %2 = load %struct.v8cint32, %struct.v8cint32* %a0, align 32, !tbaa !1739
  %call = call x86_regcallcc addrspace(1) %struct.v8cint32 @__regcall3__chessintr_v8cint32_shuffle8_v8cint32___sint___uint(%struct.v8cint32 %2, i32 signext %0, i32 zeroext %1) #30
  %3 = getelementptr inbounds %struct.v8cint32, %struct.v8cint32* %retval, i32 0, i32 0
  %4 = extractvalue %struct.v8cint32 %call, 0
  store %struct.ipd.custom_type.v64int8.v64int8 %4, %struct.ipd.custom_type.v64int8.v64int8* %3, align 32
  %5 = load %struct.v8cint32, %struct.v8cint32* %retval, align 32
  ret %struct.v8cint32 %5
}

; Function Attrs: alwaysinline nounwind
define linkonce_odr dso_local void @_ZN3aie6detail6vectorI6cint32Lj8EEC2E8v8cint32(%"class.aie::detail::vector.10"* nonnull dereferenceable(64) %this, %struct.v8cint32 %v.coerce) unnamed_addr addrspace(1) #11 comdat align 2 !dbg !1783 {
entry:
  %v = alloca %struct.v8cint32, align 32
  %this.addr = alloca %"class.aie::detail::vector.10"*, align 4
  store %struct.v8cint32 %v.coerce, %struct.v8cint32* %v, align 32
  store %"class.aie::detail::vector.10"* %this, %"class.aie::detail::vector.10"** %this.addr, align 4, !tbaa !1217
  call addrspace(1) void @llvm.dbg.declare(metadata %"class.aie::detail::vector.10"** %this.addr, metadata !1785, metadata !DIExpression()), !dbg !1788
  call addrspace(1) void @llvm.dbg.declare(metadata %struct.v8cint32* %v, metadata !1787, metadata !DIExpression()), !dbg !1789
  %this1 = load %"class.aie::detail::vector.10"*, %"class.aie::detail::vector.10"** %this.addr, align 4
  %data = getelementptr inbounds %"class.aie::detail::vector.10", %"class.aie::detail::vector.10"* %this1, i32 0, i32 0, !dbg !1790
  %0 = load %struct.v8cint32, %struct.v8cint32* %v, align 32, !dbg !1791, !tbaa !1739
  store %struct.v8cint32 %0, %struct.v8cint32* %data, align 32, !dbg !1791, !tbaa !1739
  ret void, !dbg !1792
}

; Function Attrs: alwaysinline nounwind mustprogress
define linkonce_odr dso_local %struct.v4cint32 @_Z5ext_w8v8cint32i(%struct.v8cint32 %a0.coerce, i32 %a1) addrspace(1) #10 comdat {
entry:
  %retval = alloca %struct.v4cint32, align 32
  %a0 = alloca %struct.v8cint32, align 32
  %a1.addr = alloca i32, align 4
  store %struct.v8cint32 %a0.coerce, %struct.v8cint32* %a0, align 32
  store i32 %a1, i32* %a1.addr, align 4, !tbaa !1164
  %0 = load i32, i32* %a1.addr, align 4, !tbaa !1164
  %1 = load %struct.v8cint32, %struct.v8cint32* %a0, align 32, !tbaa !1739
  %call = call x86_regcallcc addrspace(1) %struct.v4cint32 @__regcall3__chessintr_v4cint32_ext_w_v8cint32___sint(%struct.v8cint32 %1, i32 signext %0) #30
  %2 = getelementptr inbounds %struct.v4cint32, %struct.v4cint32* %retval, i32 0, i32 0
  %3 = extractvalue %struct.v4cint32 %call, 0
  store %struct.ipd.custom_type.v32int8.v32int8 %3, %struct.ipd.custom_type.v32int8.v32int8* %2, align 32
  %4 = load %struct.v4cint32, %struct.v4cint32* %retval, align 32
  ret %struct.v4cint32 %4
}

; Function Attrs: nounwind mustprogress
define internal %struct.v8float @_ZN3aie6detailL18vector_cast_helperIfLj8E8v4cint32EENS0_14vector_storageIT_XT0_EE4typeEOT1_(%struct.v4cint32* nonnull align 32 dereferenceable(32) %from) addrspace(1) #15 !dbg !1793 {
entry:
  %retval = alloca %struct.v8float, align 32
  %from.addr = alloca %struct.v4cint32*, align 4
  store %struct.v4cint32* %from, %struct.v4cint32** %from.addr, align 4, !tbaa !1217
  call addrspace(1) void @llvm.dbg.declare(metadata %struct.v4cint32** %from.addr, metadata !1799, metadata !DIExpression()), !dbg !1804
  %0 = load %struct.v4cint32*, %struct.v4cint32** %from.addr, align 4, !dbg !1805, !tbaa !1217
  %1 = load %struct.v4cint32, %struct.v4cint32* %0, align 32, !dbg !1807, !tbaa !1729
  %call = call addrspace(1) %struct.v8float @_Z10as_v8float8v4cint32(%struct.v4cint32 %1) #26, !dbg !1807
  %2 = getelementptr inbounds %struct.v8float, %struct.v8float* %retval, i32 0, i32 0, !dbg !1807
  %3 = extractvalue %struct.v8float %call, 0, !dbg !1807
  store %struct.ipd.custom_type.v32int8.v32int8 %3, %struct.ipd.custom_type.v32int8.v32int8* %2, align 32, !dbg !1807
  %4 = load %struct.v8float, %struct.v8float* %retval, align 32, !dbg !1808
  ret %struct.v8float %4, !dbg !1808
}

; Function Attrs: alwaysinline nounwind
define linkonce_odr dso_local void @_ZN3aie6detail6vectorIfLj8EEC2E7v8float(%"class.aie::detail::vector"* nonnull dereferenceable(32) %this, %struct.v8float %v.coerce) unnamed_addr addrspace(1) #11 comdat align 2 !dbg !1809 {
entry:
  %v = alloca %struct.v8float, align 32
  %this.addr = alloca %"class.aie::detail::vector"*, align 4
  store %struct.v8float %v.coerce, %struct.v8float* %v, align 32
  store %"class.aie::detail::vector"* %this, %"class.aie::detail::vector"** %this.addr, align 4, !tbaa !1217
  call addrspace(1) void @llvm.dbg.declare(metadata %"class.aie::detail::vector"** %this.addr, metadata !1811, metadata !DIExpression()), !dbg !1813
  call addrspace(1) void @llvm.dbg.declare(metadata %struct.v8float* %v, metadata !1812, metadata !DIExpression()), !dbg !1814
  %this1 = load %"class.aie::detail::vector"*, %"class.aie::detail::vector"** %this.addr, align 4
  %data = getelementptr inbounds %"class.aie::detail::vector", %"class.aie::detail::vector"* %this1, i32 0, i32 0, !dbg !1815
  %0 = load %struct.v8float, %struct.v8float* %v, align 32, !dbg !1816, !tbaa !1729
  store %struct.v8float %0, %struct.v8float* %data, align 32, !dbg !1816, !tbaa !1729
  ret void, !dbg !1817
}

; Function Attrs: alwaysinline nounwind mustprogress
define linkonce_odr dso_local %struct.v8float @_Z10as_v8float8v4cint32(%struct.v4cint32 %a.coerce) addrspace(1) #9 comdat {
entry:
  %a = alloca %struct.v4cint32, align 32
  %custom_type.tmp = alloca %struct.v8float, align 32
  store %struct.v4cint32 %a.coerce, %struct.v4cint32* %a, align 32
  %mw = getelementptr inbounds %struct.v4cint32, %struct.v4cint32* %a, i32 0, i32 0
  %0 = load %struct.ipd.custom_type.v32int8.v32int8, %struct.ipd.custom_type.v32int8.v32int8* %mw, align 32, !tbaa !1729
  call addrspace(1) void @_ZN7v8floatC2E17chessllvmInternal7v32int8(%struct.v8float* nonnull dereferenceable(32) %custom_type.tmp, i32 0, %struct.ipd.custom_type.v32int8.v32int8 %0) #26
  %1 = load %struct.v8float, %struct.v8float* %custom_type.tmp, align 32, !tbaa !1729
  ret %struct.v8float %1
}

; Function Attrs: nounwind
define linkonce_odr dso_local void @_ZN7v8floatC2E17chessllvmInternal7v32int8(%struct.v8float* nonnull dereferenceable(32) %this, i32 %0, %struct.ipd.custom_type.v32int8.v32int8 %aw.coerce) unnamed_addr addrspace(1) #6 comdat align 2 !dbg !1818 {
entry:
  %aw = alloca %struct.ipd.custom_type.v32int8.v32int8, align 32
  %this.addr = alloca %struct.v8float*, align 4
  %.addr = alloca i32, align 4
  store %struct.ipd.custom_type.v32int8.v32int8 %aw.coerce, %struct.ipd.custom_type.v32int8.v32int8* %aw, align 32
  store %struct.v8float* %this, %struct.v8float** %this.addr, align 4, !tbaa !1217
  call addrspace(1) void @llvm.dbg.declare(metadata %struct.v8float** %this.addr, metadata !1832, metadata !DIExpression()), !dbg !1836
  store i32 %0, i32* %.addr, align 4, !tbaa !1837
  call addrspace(1) void @llvm.dbg.declare(metadata i32* %.addr, metadata !1834, metadata !DIExpression()), !dbg !1839
  call addrspace(1) void @llvm.dbg.declare(metadata %struct.ipd.custom_type.v32int8.v32int8* %aw, metadata !1835, metadata !DIExpression()), !dbg !1840
  %this1 = load %struct.v8float*, %struct.v8float** %this.addr, align 4
  %mw = getelementptr inbounds %struct.v8float, %struct.v8float* %this1, i32 0, i32 0, !dbg !1841
  %1 = load %struct.ipd.custom_type.v32int8.v32int8, %struct.ipd.custom_type.v32int8.v32int8* %aw, align 32, !dbg !1842, !tbaa !1729
  store %struct.ipd.custom_type.v32int8.v32int8 %1, %struct.ipd.custom_type.v32int8.v32int8* %mw, align 32, !dbg !1842, !tbaa !1729
  ret void, !dbg !1843
}

; Function Attrs: nounwind readnone willreturn
declare dso_local x86_regcallcc %struct.v4cint32 @__regcall3__chessintr_v4cint32_ext_w_v8cint32___sint(%struct.v8cint32, i32 signext) addrspace(1) #13

; Function Attrs: nounwind readnone willreturn
declare dso_local x86_regcallcc %struct.v8cint32 @__regcall3__chessintr_v8cint32_shuffle8_v8cint32___sint___uint(%struct.v8cint32, i32 signext, i32 zeroext) addrspace(1) #13

; Function Attrs: alwaysinline nounwind mustprogress
define linkonce_odr dso_local %struct.v8cint32 @_ZNK3aie6detail6vectorI6cint32Lj8EE9to_nativeEv(%"class.aie::detail::vector.10"* nonnull dereferenceable(64) %this) addrspace(1) #9 comdat align 2 !dbg !1844 {
entry:
  %this.addr = alloca %"class.aie::detail::vector.10"*, align 4
  store %"class.aie::detail::vector.10"* %this, %"class.aie::detail::vector.10"** %this.addr, align 4, !tbaa !1217
  call addrspace(1) void @llvm.dbg.declare(metadata %"class.aie::detail::vector.10"** %this.addr, metadata !1851, metadata !DIExpression()), !dbg !1852
  %this1 = load %"class.aie::detail::vector.10"*, %"class.aie::detail::vector.10"** %this.addr, align 4
  %data = getelementptr inbounds %"class.aie::detail::vector.10", %"class.aie::detail::vector.10"* %this1, i32 0, i32 0, !dbg !1853
  %0 = load %struct.v8cint32, %struct.v8cint32* %data, align 32, !dbg !1853, !tbaa !1739
  ret %struct.v8cint32 %0, !dbg !1853
}

; Function Attrs: alwaysinline nounwind
define linkonce_odr dso_local void @_ZN3aie6detail6vectorI6cint32Lj8EEC2Ev(%"class.aie::detail::vector.10"* nonnull dereferenceable(64) %this) unnamed_addr addrspace(1) #11 comdat align 2 !dbg !1855 {
entry:
  %this.addr = alloca %"class.aie::detail::vector.10"*, align 4
  store %"class.aie::detail::vector.10"* %this, %"class.aie::detail::vector.10"** %this.addr, align 4, !tbaa !1217
  call addrspace(1) void @llvm.dbg.declare(metadata %"class.aie::detail::vector.10"** %this.addr, metadata !1857, metadata !DIExpression()), !dbg !1858
  %this1 = load %"class.aie::detail::vector.10"*, %"class.aie::detail::vector.10"** %this.addr, align 4
  %data = getelementptr inbounds %"class.aie::detail::vector.10", %"class.aie::detail::vector.10"* %this1, i32 0, i32 0, !dbg !1859
  %call = call addrspace(1) %struct.v8cint32 @_ZN3aie6detail14vector_storageI6cint32Lj8EE5undefEv() #26, !dbg !1860
  %0 = getelementptr inbounds %struct.v8cint32, %struct.v8cint32* %data, i32 0, i32 0, !dbg !1860
  %1 = extractvalue %struct.v8cint32 %call, 0, !dbg !1860
  store %struct.ipd.custom_type.v64int8.v64int8 %1, %struct.ipd.custom_type.v64int8.v64int8* %0, align 32, !dbg !1860
  ret void, !dbg !1861
}

; Function Attrs: nounwind mustprogress
define internal %struct.v8cint32 @_ZN3aie6detailL18vector_cast_helperI6cint32Lj8ERK8v16floatEENS0_14vector_storageIT_XT0_EE4typeEOT1_(%struct.v16float* nonnull align 32 dereferenceable(64) %from) addrspace(1) #15 !dbg !1862 {
entry:
  %retval = alloca %struct.v8cint32, align 32
  %from.addr = alloca %struct.v16float*, align 4
  store %struct.v16float* %from, %struct.v16float** %from.addr, align 4, !tbaa !1217
  call addrspace(1) void @llvm.dbg.declare(metadata %struct.v16float** %from.addr, metadata !1868, metadata !DIExpression()), !dbg !1871
  %0 = load %struct.v16float*, %struct.v16float** %from.addr, align 4, !dbg !1872, !tbaa !1217
  %1 = load %struct.v16float, %struct.v16float* %0, align 32, !dbg !1874, !tbaa !1739
  %call = call addrspace(1) %struct.v8cint32 @_Z11as_v8cint328v16float(%struct.v16float %1) #26, !dbg !1874
  %2 = getelementptr inbounds %struct.v8cint32, %struct.v8cint32* %retval, i32 0, i32 0, !dbg !1874
  %3 = extractvalue %struct.v8cint32 %call, 0, !dbg !1874
  store %struct.ipd.custom_type.v64int8.v64int8 %3, %struct.ipd.custom_type.v64int8.v64int8* %2, align 32, !dbg !1874
  %4 = load %struct.v8cint32, %struct.v8cint32* %retval, align 32, !dbg !1875
  ret %struct.v8cint32 %4, !dbg !1875
}

; Function Attrs: alwaysinline nounwind mustprogress
define linkonce_odr dso_local %struct.v8cint32 @_Z11as_v8cint328v16float(%struct.v16float %a.coerce) addrspace(1) #9 comdat {
entry:
  %a = alloca %struct.v16float, align 32
  %custom_type.tmp = alloca %struct.v8cint32, align 32
  store %struct.v16float %a.coerce, %struct.v16float* %a, align 32
  %mw = getelementptr inbounds %struct.v16float, %struct.v16float* %a, i32 0, i32 0
  %0 = load %struct.ipd.custom_type.v64int8.v64int8, %struct.ipd.custom_type.v64int8.v64int8* %mw, align 32, !tbaa !1739
  call addrspace(1) void @_ZN8v8cint32C2E17chessllvmInternal7v64int8(%struct.v8cint32* nonnull dereferenceable(64) %custom_type.tmp, i32 0, %struct.ipd.custom_type.v64int8.v64int8 %0) #26
  %1 = load %struct.v8cint32, %struct.v8cint32* %custom_type.tmp, align 32, !tbaa !1739
  ret %struct.v8cint32 %1
}

; Function Attrs: nounwind
define linkonce_odr dso_local void @_ZN8v8cint32C2E17chessllvmInternal7v64int8(%struct.v8cint32* nonnull dereferenceable(64) %this, i32 %0, %struct.ipd.custom_type.v64int8.v64int8 %aw.coerce) unnamed_addr addrspace(1) #6 comdat align 2 !dbg !1876 {
entry:
  %aw = alloca %struct.ipd.custom_type.v64int8.v64int8, align 32
  %this.addr = alloca %struct.v8cint32*, align 4
  %.addr = alloca i32, align 4
  store %struct.ipd.custom_type.v64int8.v64int8 %aw.coerce, %struct.ipd.custom_type.v64int8.v64int8* %aw, align 32
  store %struct.v8cint32* %this, %struct.v8cint32** %this.addr, align 4, !tbaa !1217
  call addrspace(1) void @llvm.dbg.declare(metadata %struct.v8cint32** %this.addr, metadata !1900, metadata !DIExpression()), !dbg !1904
  store i32 %0, i32* %.addr, align 4, !tbaa !1837
  call addrspace(1) void @llvm.dbg.declare(metadata i32* %.addr, metadata !1902, metadata !DIExpression()), !dbg !1905
  call addrspace(1) void @llvm.dbg.declare(metadata %struct.ipd.custom_type.v64int8.v64int8* %aw, metadata !1903, metadata !DIExpression()), !dbg !1906
  %this1 = load %struct.v8cint32*, %struct.v8cint32** %this.addr, align 4
  %mw = getelementptr inbounds %struct.v8cint32, %struct.v8cint32* %this1, i32 0, i32 0, !dbg !1907
  %1 = load %struct.ipd.custom_type.v64int8.v64int8, %struct.ipd.custom_type.v64int8.v64int8* %aw, align 32, !dbg !1908, !tbaa !1739
  store %struct.ipd.custom_type.v64int8.v64int8 %1, %struct.ipd.custom_type.v64int8.v64int8* %mw, align 32, !dbg !1908, !tbaa !1739
  ret void, !dbg !1909
}

; Function Attrs: nounwind mustprogress
define linkonce_odr dso_local %struct.v8cint32 @_ZN3aie6detail14vector_storageI6cint32Lj8EE5undefEv() addrspace(1) #15 comdat align 2 !dbg !1910 {
entry:
  %retval = alloca %struct.v8cint32, align 32
  %call = call addrspace(1) %struct.v8cint32 @_Z14undef_v8cint32v() #26, !dbg !1911
  %0 = getelementptr inbounds %struct.v8cint32, %struct.v8cint32* %retval, i32 0, i32 0, !dbg !1911
  %1 = extractvalue %struct.v8cint32 %call, 0, !dbg !1911
  store %struct.ipd.custom_type.v64int8.v64int8 %1, %struct.ipd.custom_type.v64int8.v64int8* %0, align 32, !dbg !1911
  %2 = load %struct.v8cint32, %struct.v8cint32* %retval, align 32, !dbg !1912
  ret %struct.v8cint32 %2, !dbg !1912
}

; Function Attrs: alwaysinline nounwind mustprogress
define linkonce_odr dso_local %struct.v8cint32 @_Z14undef_v8cint32v() addrspace(1) #9 comdat {
entry:
  %retval = alloca %struct.v8cint32, align 32
  %call = call x86_regcallcc addrspace(1) %struct.v8cint32 @__regcall3__chessintr_v8cint32_undef_v8cint32() #30
  %0 = getelementptr inbounds %struct.v8cint32, %struct.v8cint32* %retval, i32 0, i32 0
  %1 = extractvalue %struct.v8cint32 %call, 0
  store %struct.ipd.custom_type.v64int8.v64int8 %1, %struct.ipd.custom_type.v64int8.v64int8* %0, align 32
  %2 = load %struct.v8cint32, %struct.v8cint32* %retval, align 32
  ret %struct.v8cint32 %2
}

; Function Attrs: nounwind readnone willreturn
declare dso_local x86_regcallcc %struct.v8cint32 @__regcall3__chessintr_v8cint32_undef_v8cint32() addrspace(1) #13

; Function Attrs: nounwind readnone willreturn
declare dso_local x86_regcallcc %struct.v8float @__regcall3__chessintr_v8float_ext_w_v16float___sint(%struct.v16float, i32 signext) addrspace(1) #13

; Function Attrs: alwaysinline nounwind
define linkonce_odr dso_local void @_ZN3aie6detail6vectorIfLj16EEC2Ev(%"class.aie::detail::vector.16"* nonnull dereferenceable(64) %this) unnamed_addr addrspace(1) #11 comdat align 2 !dbg !1913 {
entry:
  %this.addr = alloca %"class.aie::detail::vector.16"*, align 4
  store %"class.aie::detail::vector.16"* %this, %"class.aie::detail::vector.16"** %this.addr, align 4, !tbaa !1217
  call addrspace(1) void @llvm.dbg.declare(metadata %"class.aie::detail::vector.16"** %this.addr, metadata !1915, metadata !DIExpression()), !dbg !1917
  %this1 = load %"class.aie::detail::vector.16"*, %"class.aie::detail::vector.16"** %this.addr, align 4
  %data = getelementptr inbounds %"class.aie::detail::vector.16", %"class.aie::detail::vector.16"* %this1, i32 0, i32 0, !dbg !1918
  %call = call addrspace(1) %struct.v16float @_ZN3aie6detail14vector_storageIfLj16EE5undefEv() #26, !dbg !1919
  %0 = getelementptr inbounds %struct.v16float, %struct.v16float* %data, i32 0, i32 0, !dbg !1919
  %1 = extractvalue %struct.v16float %call, 0, !dbg !1919
  store %struct.ipd.custom_type.v64int8.v64int8 %1, %struct.ipd.custom_type.v64int8.v64int8* %0, align 32, !dbg !1919
  ret void, !dbg !1920
}

; Function Attrs: alwaysinline nounwind
define linkonce_odr dso_local void @_ZN3aie6detail6vectorIfLj16EEC2IJEEEfDpOT_(%"class.aie::detail::vector.16"* nonnull dereferenceable(64) %this, float %v) unnamed_addr addrspace(1) #11 comdat align 2 !dbg !1921 {
entry:
  %this.addr = alloca %"class.aie::detail::vector.16"*, align 4
  %v.addr = alloca float, align 4
  %num_params = alloca i32, align 4
  store %"class.aie::detail::vector.16"* %this, %"class.aie::detail::vector.16"** %this.addr, align 4, !tbaa !1217
  call addrspace(1) void @llvm.dbg.declare(metadata %"class.aie::detail::vector.16"** %this.addr, metadata !1928, metadata !DIExpression()), !dbg !1933
  store float %v, float* %v.addr, align 4, !tbaa !1262
  call addrspace(1) void @llvm.dbg.declare(metadata float* %v.addr, metadata !1929, metadata !DIExpression()), !dbg !1934
  %this1 = load %"class.aie::detail::vector.16"*, %"class.aie::detail::vector.16"** %this.addr, align 4
  %data = getelementptr inbounds %"class.aie::detail::vector.16", %"class.aie::detail::vector.16"* %this1, i32 0, i32 0, !dbg !1935
  %call = call addrspace(1) %struct.v16float @_ZN3aie6detail14vector_storageIfLj16EE5undefEv() #26, !dbg !1936
  %0 = getelementptr inbounds %struct.v16float, %struct.v16float* %data, i32 0, i32 0, !dbg !1936
  %1 = extractvalue %struct.v16float %call, 0, !dbg !1936
  store %struct.ipd.custom_type.v64int8.v64int8 %1, %struct.ipd.custom_type.v64int8.v64int8* %0, align 32, !dbg !1936
  store i32 undef, i32* %num_params, align 4, !dbg !1937
  %2 = bitcast i32* %num_params to i8*, !dbg !1937
  call addrspace(1) void @llvm.lifetime.start.p0i8(i64 4, i8* %2) #25, !dbg !1937
  call addrspace(1) void @llvm.dbg.declare(metadata i32* %num_params, metadata !1930, metadata !DIExpression()), !dbg !1938
  store i32 1, i32* %num_params, align 4, !dbg !1938, !tbaa !1164
  %data2 = getelementptr inbounds %"class.aie::detail::vector.16", %"class.aie::detail::vector.16"* %this1, i32 0, i32 0, !dbg !1939
  call addrspace(1) void @_ZN3aie6detail6vectorIfLj16EE23init_from_values_simpleI8v16floatJEfEEvRT_RKfDpOT0_(%"class.aie::detail::vector.16"* nonnull dereferenceable(64) %this1, %struct.v16float* nonnull align 32 dereferenceable(64) %data2, float* nonnull align 4 dereferenceable(4) %v.addr) #26, !dbg !1943
  %3 = bitcast i32* %num_params to i8*, !dbg !1944
  call addrspace(1) void @llvm.lifetime.end.p0i8(i64 4, i8* %3) #25, !dbg !1944
  ret void, !dbg !1944
}

; Function Attrs: alwaysinline nounwind mustprogress
define linkonce_odr dso_local %"class.aie::detail::vector_elem_const_ref.20" @_ZNK3aie6detail6vectorIfLj16EEixEj(%"class.aie::detail::vector.16"* nonnull dereferenceable(64) %this, i32 %idx) addrspace(1) #9 comdat align 2 !dbg !1945 {
entry:
  %retval = alloca %"class.aie::detail::vector_elem_const_ref.20", align 4
  %this.addr = alloca %"class.aie::detail::vector.16"*, align 4
  %idx.addr = alloca i32, align 4
  store %"class.aie::detail::vector.16"* %this, %"class.aie::detail::vector.16"** %this.addr, align 4, !tbaa !1217
  call addrspace(1) void @llvm.dbg.declare(metadata %"class.aie::detail::vector.16"** %this.addr, metadata !1947, metadata !DIExpression()), !dbg !1949
  store i32 %idx, i32* %idx.addr, align 4, !tbaa !1164
  call addrspace(1) void @llvm.dbg.declare(metadata i32* %idx.addr, metadata !1948, metadata !DIExpression()), !dbg !1950
  %this1 = load %"class.aie::detail::vector.16"*, %"class.aie::detail::vector.16"** %this.addr, align 4
  %0 = load i32, i32* %idx.addr, align 4, !dbg !1951, !tbaa !1164
  %cmp = icmp ult i32 %0, 16, !dbg !1951
  %1 = call addrspace(1) i1 @llvm.is.constant.i1(i1 %cmp), !dbg !1951
  br i1 %1, label %if.then, label %if.end4, !dbg !1953

if.then:                                          ; preds = %entry
  br label %do.body, !dbg !1954

do.body:                                          ; preds = %if.then
  %2 = load i32, i32* %idx.addr, align 4, !dbg !1956, !tbaa !1164
  %cmp2 = icmp ult i32 %2, 16, !dbg !1956
  %3 = call addrspace(1) i1 @llvm.chess_manifest(i1 %cmp2), !dbg !1956
  br i1 %3, label %if.end, label %if.then3, !dbg !1959

if.then3:                                         ; preds = %do.body
  call addrspace(1) void @llvm.chess_error(metadata !1960), !dbg !1956
  br label %if.end, !dbg !1956

if.end:                                           ; preds = %if.then3, %do.body
  br label %do.end, !dbg !1959

do.end:                                           ; preds = %if.end
  br label %if.end4, !dbg !1954

if.end4:                                          ; preds = %do.end, %entry
  %4 = load i32, i32* %idx.addr, align 4, !dbg !1953, !tbaa !1164
  %cmp5 = icmp ult i32 %4, 16, !dbg !1953
  call addrspace(1) void @llvm.assume(i1 %cmp5), !dbg !1953
  %5 = load i32, i32* %idx.addr, align 4, !dbg !1961, !tbaa !1164
  %call = call addrspace(1) %"class.aie::detail::vector_elem_const_ref.20" @_ZNK3aie6detail6vectorIfLj16EE14elem_const_refEj(%"class.aie::detail::vector.16"* nonnull dereferenceable(64) %this1, i32 %5) #26, !dbg !1962
  %6 = getelementptr inbounds %"class.aie::detail::vector_elem_const_ref.20", %"class.aie::detail::vector_elem_const_ref.20"* %retval, i32 0, i32 0, !dbg !1962
  %7 = extractvalue %"class.aie::detail::vector_elem_const_ref.20" %call, 0, !dbg !1962
  store %"class.aie::detail::vector.16"* %7, %"class.aie::detail::vector.16"** %6, align 4, !dbg !1962
  %8 = getelementptr inbounds %"class.aie::detail::vector_elem_const_ref.20", %"class.aie::detail::vector_elem_const_ref.20"* %retval, i32 0, i32 1, !dbg !1962
  %9 = extractvalue %"class.aie::detail::vector_elem_const_ref.20" %call, 1, !dbg !1962
  store i32 %9, i32* %8, align 4, !dbg !1962
  %10 = load %"class.aie::detail::vector_elem_const_ref.20", %"class.aie::detail::vector_elem_const_ref.20"* %retval, align 4, !dbg !1963
  ret %"class.aie::detail::vector_elem_const_ref.20" %10, !dbg !1963
}

; Function Attrs: nounwind mustprogress
define linkonce_odr dso_local %"class.aie::detail::vector.16" @_ZN3aie6detail19broadcast_bits_implILj32EfLj16EE3runILj16EEENS0_6vectorIfLj16EEENS0_21vector_elem_const_refIfXT_EEE(%"class.aie::detail::vector_elem_const_ref.20" %a.coerce) addrspace(1) #15 comdat align 2 !dbg !1964 {
entry:
  %retval = alloca %"class.aie::detail::vector.16", align 32
  %a = alloca %"class.aie::detail::vector_elem_const_ref.20", align 4
  %tmp = alloca %"class.aie::detail::vector.16", align 32
  %custom_type.tmp = alloca %"class.aie::detail::vector.16", align 32
  %custom_type.tmp1 = alloca %"class.aie::detail::vector.16", align 32
  %agg.tmp = alloca %struct.v16float, align 32
  %agg.tmp2 = alloca %struct.v16float, align 32
  %ref.tmp = alloca %"class.aie::detail::vector.16", align 32
  store %"class.aie::detail::vector_elem_const_ref.20" %a.coerce, %"class.aie::detail::vector_elem_const_ref.20"* %a, align 4
  call addrspace(1) void @llvm.dbg.declare(metadata %"class.aie::detail::vector_elem_const_ref.20"* %a, metadata !1971, metadata !DIExpression()), !dbg !1975
  store %"class.aie::detail::vector.16" undef, %"class.aie::detail::vector.16"* %tmp, align 32, !dbg !1976
  %0 = bitcast %"class.aie::detail::vector.16"* %tmp to i8*, !dbg !1976
  call addrspace(1) void @llvm.lifetime.start.p0i8(i64 64, i8* %0) #25, !dbg !1976
  call addrspace(1) void @llvm.dbg.declare(metadata %"class.aie::detail::vector.16"* %tmp, metadata !1972, metadata !DIExpression()), !dbg !1977
  call addrspace(1) void @_ZN3aie6detail6vectorIfLj16EEC2Ev(%"class.aie::detail::vector.16"* nonnull dereferenceable(64) %custom_type.tmp) #26, !dbg !1977
  %1 = load %"class.aie::detail::vector.16", %"class.aie::detail::vector.16"* %custom_type.tmp, align 32, !dbg !1977, !tbaa !1531
  store %"class.aie::detail::vector.16" %1, %"class.aie::detail::vector.16"* %tmp, align 32, !dbg !1977, !tbaa !1531
  %2 = bitcast %"class.aie::detail::vector.16"* %ref.tmp to i8*, !dbg !1978
  call addrspace(1) void @llvm.lifetime.start.p0i8(i64 64, i8* %2) #25, !dbg !1978
  %parent = getelementptr inbounds %"class.aie::detail::vector_elem_const_ref.20", %"class.aie::detail::vector_elem_const_ref.20"* %a, i32 0, i32 0, !dbg !1980
  %3 = load %"class.aie::detail::vector.16"*, %"class.aie::detail::vector.16"** %parent, align 4, !dbg !1980, !tbaa !1981
  %call = call addrspace(1) %"class.aie::detail::vector.16" @_ZNK3aie6detail6vectorIfLj16EE4growILj16EEENS1_IfXT_EEEj(%"class.aie::detail::vector.16"* nonnull dereferenceable(64) %3, i32 0) #26, !dbg !1982
  %4 = getelementptr inbounds %"class.aie::detail::vector.16", %"class.aie::detail::vector.16"* %ref.tmp, i32 0, i32 0, !dbg !1982
  %5 = extractvalue %"class.aie::detail::vector.16" %call, 0, !dbg !1982
  store %struct.v16float %5, %struct.v16float* %4, align 32, !dbg !1982
  %call3 = call addrspace(1) %struct.v16float @_ZNK3aie6detail6vectorIfLj16EEcv8v16floatEv(%"class.aie::detail::vector.16"* nonnull dereferenceable(64) %ref.tmp) #26, !dbg !1978
  %6 = getelementptr inbounds %struct.v16float, %struct.v16float* %agg.tmp2, i32 0, i32 0, !dbg !1978
  %7 = extractvalue %struct.v16float %call3, 0, !dbg !1978
  store %struct.ipd.custom_type.v64int8.v64int8 %7, %struct.ipd.custom_type.v64int8.v64int8* %6, align 32, !dbg !1978
  %offset = getelementptr inbounds %"class.aie::detail::vector_elem_const_ref.20", %"class.aie::detail::vector_elem_const_ref.20"* %a, i32 0, i32 1, !dbg !1983
  %8 = load i32, i32* %offset, align 4, !dbg !1983, !tbaa !1984
  %9 = load %struct.v16float, %struct.v16float* %agg.tmp2, align 32, !dbg !1985, !tbaa !1739
  %call4 = call addrspace(1) %struct.v16float @_Z11fpshuffle168v16floatijj(%struct.v16float %9, i32 %8, i32 0, i32 0) #26, !dbg !1985
  %10 = getelementptr inbounds %struct.v16float, %struct.v16float* %agg.tmp, i32 0, i32 0, !dbg !1985
  %11 = extractvalue %struct.v16float %call4, 0, !dbg !1985
  store %struct.ipd.custom_type.v64int8.v64int8 %11, %struct.ipd.custom_type.v64int8.v64int8* %10, align 32, !dbg !1985
  %12 = load %struct.v16float, %struct.v16float* %agg.tmp, align 32, !dbg !1985, !tbaa !1739
  call addrspace(1) void @_ZN3aie6detail6vectorIfLj16EEC2E8v16float(%"class.aie::detail::vector.16"* nonnull dereferenceable(64) %custom_type.tmp1, %struct.v16float %12) #26, !dbg !1985
  %13 = load %"class.aie::detail::vector.16", %"class.aie::detail::vector.16"* %custom_type.tmp1, align 32, !dbg !1985, !tbaa !1531
  store %"class.aie::detail::vector.16" %13, %"class.aie::detail::vector.16"* %tmp, align 32, !dbg !1985, !tbaa !1531
  %14 = bitcast %"class.aie::detail::vector.16"* %ref.tmp to i8*, !dbg !1986
  call addrspace(1) void @llvm.lifetime.end.p0i8(i64 64, i8* %14) #25, !dbg !1986
  %call5 = call addrspace(1) %"class.aie::detail::vector.16" @_ZNK3aie6detail6vectorIfLj16EE7extractILj16EEENS1_IfXT_EEEj(%"class.aie::detail::vector.16"* nonnull dereferenceable(64) %tmp, i32 0) #26, !dbg !1987
  %15 = getelementptr inbounds %"class.aie::detail::vector.16", %"class.aie::detail::vector.16"* %retval, i32 0, i32 0, !dbg !1987
  %16 = extractvalue %"class.aie::detail::vector.16" %call5, 0, !dbg !1987
  store %struct.v16float %16, %struct.v16float* %15, align 32, !dbg !1987
  %17 = bitcast %"class.aie::detail::vector.16"* %tmp to i8*, !dbg !1988
  call addrspace(1) void @llvm.lifetime.end.p0i8(i64 64, i8* %17) #25, !dbg !1988
  %18 = load %"class.aie::detail::vector.16", %"class.aie::detail::vector.16"* %retval, align 32, !dbg !1989
  ret %"class.aie::detail::vector.16" %18, !dbg !1989
}

; Function Attrs: alwaysinline nounwind mustprogress
define linkonce_odr dso_local %"class.aie::detail::vector.16" @_ZNK3aie6detail6vectorIfLj16EE4growILj16EEENS1_IfXT_EEEj(%"class.aie::detail::vector.16"* nonnull dereferenceable(64) %this, i32 %idx) addrspace(1) #9 comdat align 2 !dbg !1990 {
entry:
  %retval = alloca %"class.aie::detail::vector.16", align 32
  %this.addr = alloca %"class.aie::detail::vector.16"*, align 4
  %idx.addr = alloca i32, align 4
  %output_bits = alloca i32, align 4
  %custom_type.tmp = alloca %"class.aie::detail::vector.16", align 32
  store %"class.aie::detail::vector.16"* %this, %"class.aie::detail::vector.16"** %this.addr, align 4, !tbaa !1217
  call addrspace(1) void @llvm.dbg.declare(metadata %"class.aie::detail::vector.16"** %this.addr, metadata !1997, metadata !DIExpression()), !dbg !2001
  store i32 %idx, i32* %idx.addr, align 4, !tbaa !1164
  call addrspace(1) void @llvm.dbg.declare(metadata i32* %idx.addr, metadata !1998, metadata !DIExpression()), !dbg !2002
  %this1 = load %"class.aie::detail::vector.16"*, %"class.aie::detail::vector.16"** %this.addr, align 4
  store i32 undef, i32* %output_bits, align 4, !dbg !2003
  %0 = bitcast i32* %output_bits to i8*, !dbg !2003
  call addrspace(1) void @llvm.lifetime.start.p0i8(i64 4, i8* %0) #25, !dbg !2003
  call addrspace(1) void @llvm.dbg.declare(metadata i32* %output_bits, metadata !1999, metadata !DIExpression()), !dbg !2004
  store i32 512, i32* %output_bits, align 4, !dbg !2004, !tbaa !1164
  call addrspace(1) void @llvm.dbg.declare(metadata %"class.aie::detail::vector.16"* %retval, metadata !2000, metadata !DIExpression()), !dbg !2005
  call addrspace(1) void @_ZN3aie6detail6vectorIfLj16EEC2Ev(%"class.aie::detail::vector.16"* nonnull dereferenceable(64) %custom_type.tmp) #26, !dbg !2005
  %1 = load %"class.aie::detail::vector.16", %"class.aie::detail::vector.16"* %custom_type.tmp, align 32, !dbg !2005, !tbaa !1531
  store %"class.aie::detail::vector.16" %1, %"class.aie::detail::vector.16"* %retval, align 32, !dbg !2005, !tbaa !1531
  %data = getelementptr inbounds %"class.aie::detail::vector.16", %"class.aie::detail::vector.16"* %retval, i32 0, i32 0, !dbg !2006
  %data2 = getelementptr inbounds %"class.aie::detail::vector.16", %"class.aie::detail::vector.16"* %this1, i32 0, i32 0, !dbg !2009
  %2 = load %struct.v16float, %struct.v16float* %data2, align 32, !dbg !2009, !tbaa !1739
  store %struct.v16float %2, %struct.v16float* %data, align 32, !dbg !2009, !tbaa !1739
  %3 = bitcast i32* %output_bits to i8*, !dbg !2010
  call addrspace(1) void @llvm.lifetime.end.p0i8(i64 4, i8* %3) #25, !dbg !2010
  %4 = load %"class.aie::detail::vector.16", %"class.aie::detail::vector.16"* %retval, align 32, !dbg !2010
  ret %"class.aie::detail::vector.16" %4, !dbg !2010
}

; Function Attrs: alwaysinline nounwind mustprogress
define linkonce_odr dso_local %struct.v16float @_ZNK3aie6detail6vectorIfLj16EEcv8v16floatEv(%"class.aie::detail::vector.16"* nonnull dereferenceable(64) %this) addrspace(1) #9 comdat align 2 !dbg !2011 {
entry:
  %retval = alloca %struct.v16float, align 32
  %this.addr = alloca %"class.aie::detail::vector.16"*, align 4
  store %"class.aie::detail::vector.16"* %this, %"class.aie::detail::vector.16"** %this.addr, align 4, !tbaa !1217
  call addrspace(1) void @llvm.dbg.declare(metadata %"class.aie::detail::vector.16"** %this.addr, metadata !2013, metadata !DIExpression()), !dbg !2014
  %this1 = load %"class.aie::detail::vector.16"*, %"class.aie::detail::vector.16"** %this.addr, align 4
  %call = call addrspace(1) %struct.v16float @_ZNK3aie6detail6vectorIfLj16EE9to_nativeEv(%"class.aie::detail::vector.16"* nonnull dereferenceable(64) %this1) #26, !dbg !2015
  %0 = getelementptr inbounds %struct.v16float, %struct.v16float* %retval, i32 0, i32 0, !dbg !2015
  %1 = extractvalue %struct.v16float %call, 0, !dbg !2015
  store %struct.ipd.custom_type.v64int8.v64int8 %1, %struct.ipd.custom_type.v64int8.v64int8* %0, align 32, !dbg !2015
  %2 = load %struct.v16float, %struct.v16float* %retval, align 32, !dbg !2016
  ret %struct.v16float %2, !dbg !2016
}

; Function Attrs: alwaysinline nounwind mustprogress
define linkonce_odr dso_local %struct.v16float @_Z11fpshuffle168v16floatijj(%struct.v16float %a0.coerce, i32 %a1, i32 %a2, i32 %a3) addrspace(1) #9 comdat {
entry:
  %retval = alloca %struct.v16float, align 32
  %a0 = alloca %struct.v16float, align 32
  %a1.addr = alloca i32, align 4
  %a2.addr = alloca i32, align 4
  %a3.addr = alloca i32, align 4
  store %struct.v16float %a0.coerce, %struct.v16float* %a0, align 32
  store i32 %a1, i32* %a1.addr, align 4, !tbaa !1164
  store i32 %a2, i32* %a2.addr, align 4, !tbaa !1164
  store i32 %a3, i32* %a3.addr, align 4, !tbaa !1164
  %0 = load i32, i32* %a1.addr, align 4, !tbaa !1164
  %1 = load i32, i32* %a2.addr, align 4, !tbaa !1164
  %2 = load i32, i32* %a3.addr, align 4, !tbaa !1164
  %3 = load %struct.v16float, %struct.v16float* %a0, align 32, !tbaa !1739
  %call = call x86_regcallcc addrspace(1) %struct.v16float @__regcall3__chessintr_v16float_fpshuffle16_v16float___sint___uint___uint(%struct.v16float %3, i32 signext %0, i32 zeroext %1, i32 zeroext %2) #30
  %4 = getelementptr inbounds %struct.v16float, %struct.v16float* %retval, i32 0, i32 0
  %5 = extractvalue %struct.v16float %call, 0
  store %struct.ipd.custom_type.v64int8.v64int8 %5, %struct.ipd.custom_type.v64int8.v64int8* %4, align 32
  %6 = load %struct.v16float, %struct.v16float* %retval, align 32
  ret %struct.v16float %6
}

; Function Attrs: alwaysinline nounwind
define linkonce_odr dso_local void @_ZN3aie6detail6vectorIfLj16EEC2E8v16float(%"class.aie::detail::vector.16"* nonnull dereferenceable(64) %this, %struct.v16float %v.coerce) unnamed_addr addrspace(1) #11 comdat align 2 !dbg !2017 {
entry:
  %v = alloca %struct.v16float, align 32
  %this.addr = alloca %"class.aie::detail::vector.16"*, align 4
  store %struct.v16float %v.coerce, %struct.v16float* %v, align 32
  store %"class.aie::detail::vector.16"* %this, %"class.aie::detail::vector.16"** %this.addr, align 4, !tbaa !1217
  call addrspace(1) void @llvm.dbg.declare(metadata %"class.aie::detail::vector.16"** %this.addr, metadata !2019, metadata !DIExpression()), !dbg !2021
  call addrspace(1) void @llvm.dbg.declare(metadata %struct.v16float* %v, metadata !2020, metadata !DIExpression()), !dbg !2022
  %this1 = load %"class.aie::detail::vector.16"*, %"class.aie::detail::vector.16"** %this.addr, align 4
  %data = getelementptr inbounds %"class.aie::detail::vector.16", %"class.aie::detail::vector.16"* %this1, i32 0, i32 0, !dbg !2023
  %0 = load %struct.v16float, %struct.v16float* %v, align 32, !dbg !2024, !tbaa !1739
  store %struct.v16float %0, %struct.v16float* %data, align 32, !dbg !2024, !tbaa !1739
  ret void, !dbg !2025
}

; Function Attrs: alwaysinline nounwind mustprogress
define linkonce_odr dso_local %"class.aie::detail::vector.16" @_ZNK3aie6detail6vectorIfLj16EE7extractILj16EEENS1_IfXT_EEEj(%"class.aie::detail::vector.16"* nonnull dereferenceable(64) %this, i32 %idx) addrspace(1) #9 comdat align 2 !dbg !2026 {
entry:
  %this.addr = alloca %"class.aie::detail::vector.16"*, align 4
  %idx.addr = alloca i32, align 4
  %output_bits = alloca i32, align 4
  store %"class.aie::detail::vector.16"* %this, %"class.aie::detail::vector.16"** %this.addr, align 4, !tbaa !1217
  call addrspace(1) void @llvm.dbg.declare(metadata %"class.aie::detail::vector.16"** %this.addr, metadata !2029, metadata !DIExpression()), !dbg !2032
  store i32 %idx, i32* %idx.addr, align 4, !tbaa !1164
  call addrspace(1) void @llvm.dbg.declare(metadata i32* %idx.addr, metadata !2030, metadata !DIExpression()), !dbg !2033
  %this1 = load %"class.aie::detail::vector.16"*, %"class.aie::detail::vector.16"** %this.addr, align 4
  %0 = load i32, i32* %idx.addr, align 4, !dbg !2034, !tbaa !1164
  %cmp = icmp ult i32 %0, 1, !dbg !2034
  %1 = call addrspace(1) i1 @llvm.is.constant.i1(i1 %cmp), !dbg !2034
  br i1 %1, label %if.then, label %if.end4, !dbg !2036

if.then:                                          ; preds = %entry
  br label %do.body, !dbg !2037

do.body:                                          ; preds = %if.then
  %2 = load i32, i32* %idx.addr, align 4, !dbg !2039, !tbaa !1164
  %cmp2 = icmp ult i32 %2, 1, !dbg !2039
  %3 = call addrspace(1) i1 @llvm.chess_manifest(i1 %cmp2), !dbg !2039
  br i1 %3, label %if.end, label %if.then3, !dbg !2042

if.then3:                                         ; preds = %do.body
  call addrspace(1) void @llvm.chess_error(metadata !1713), !dbg !2039
  br label %if.end, !dbg !2039

if.end:                                           ; preds = %if.then3, %do.body
  br label %do.end, !dbg !2042

do.end:                                           ; preds = %if.end
  br label %if.end4, !dbg !2037

if.end4:                                          ; preds = %do.end, %entry
  %4 = load i32, i32* %idx.addr, align 4, !dbg !2036, !tbaa !1164
  %cmp5 = icmp ult i32 %4, 1, !dbg !2036
  call addrspace(1) void @llvm.assume(i1 %cmp5), !dbg !2036
  store i32 undef, i32* %output_bits, align 4, !dbg !2043
  %5 = bitcast i32* %output_bits to i8*, !dbg !2043
  call addrspace(1) void @llvm.lifetime.start.p0i8(i64 4, i8* %5) #25, !dbg !2043
  call addrspace(1) void @llvm.dbg.declare(metadata i32* %output_bits, metadata !2031, metadata !DIExpression()), !dbg !2044
  store i32 512, i32* %output_bits, align 4, !dbg !2044, !tbaa !1164
  %6 = load %"class.aie::detail::vector.16", %"class.aie::detail::vector.16"* %this1, align 32, !dbg !2045, !tbaa !1531
  %7 = bitcast i32* %output_bits to i8*, !dbg !2048
  call addrspace(1) void @llvm.lifetime.end.p0i8(i64 4, i8* %7) #25, !dbg !2048
  ret %"class.aie::detail::vector.16" %6, !dbg !2045
}

; Function Attrs: nounwind readnone willreturn
declare dso_local x86_regcallcc %struct.v16float @__regcall3__chessintr_v16float_fpshuffle16_v16float___sint___uint___uint(%struct.v16float, i32 signext, i32 zeroext, i32 zeroext) addrspace(1) #13

; Function Attrs: alwaysinline nounwind mustprogress
define linkonce_odr dso_local %struct.v16float @_ZNK3aie6detail6vectorIfLj16EE9to_nativeEv(%"class.aie::detail::vector.16"* nonnull dereferenceable(64) %this) addrspace(1) #9 comdat align 2 !dbg !2049 {
entry:
  %this.addr = alloca %"class.aie::detail::vector.16"*, align 4
  store %"class.aie::detail::vector.16"* %this, %"class.aie::detail::vector.16"** %this.addr, align 4, !tbaa !1217
  call addrspace(1) void @llvm.dbg.declare(metadata %"class.aie::detail::vector.16"** %this.addr, metadata !2054, metadata !DIExpression()), !dbg !2055
  %this1 = load %"class.aie::detail::vector.16"*, %"class.aie::detail::vector.16"** %this.addr, align 4
  %data = getelementptr inbounds %"class.aie::detail::vector.16", %"class.aie::detail::vector.16"* %this1, i32 0, i32 0, !dbg !2056
  %0 = load %struct.v16float, %struct.v16float* %data, align 32, !dbg !2056, !tbaa !1739
  ret %struct.v16float %0, !dbg !2056
}

; Function Attrs: alwaysinline nounwind mustprogress
define linkonce_odr dso_local %"class.aie::detail::vector_elem_const_ref.20" @_ZNK3aie6detail6vectorIfLj16EE14elem_const_refEj(%"class.aie::detail::vector.16"* nonnull dereferenceable(64) %this, i32 %idx) addrspace(1) #9 comdat align 2 !dbg !2058 {
entry:
  %retval = alloca %"class.aie::detail::vector_elem_const_ref.20", align 4
  %this.addr = alloca %"class.aie::detail::vector.16"*, align 4
  %idx.addr = alloca i32, align 4
  store %"class.aie::detail::vector.16"* %this, %"class.aie::detail::vector.16"** %this.addr, align 4, !tbaa !1217
  call addrspace(1) void @llvm.dbg.declare(metadata %"class.aie::detail::vector.16"** %this.addr, metadata !2060, metadata !DIExpression()), !dbg !2062
  store i32 %idx, i32* %idx.addr, align 4, !tbaa !1164
  call addrspace(1) void @llvm.dbg.declare(metadata i32* %idx.addr, metadata !2061, metadata !DIExpression()), !dbg !2063
  %this1 = load %"class.aie::detail::vector.16"*, %"class.aie::detail::vector.16"** %this.addr, align 4
  %0 = load i32, i32* %idx.addr, align 4, !dbg !2064, !tbaa !1164
  %cmp = icmp ult i32 %0, 16, !dbg !2064
  %1 = call addrspace(1) i1 @llvm.is.constant.i1(i1 %cmp), !dbg !2064
  br i1 %1, label %if.then, label %if.end4, !dbg !2066

if.then:                                          ; preds = %entry
  br label %do.body, !dbg !2067

do.body:                                          ; preds = %if.then
  %2 = load i32, i32* %idx.addr, align 4, !dbg !2069, !tbaa !1164
  %cmp2 = icmp ult i32 %2, 16, !dbg !2069
  %3 = call addrspace(1) i1 @llvm.chess_manifest(i1 %cmp2), !dbg !2069
  br i1 %3, label %if.end, label %if.then3, !dbg !2072

if.then3:                                         ; preds = %do.body
  call addrspace(1) void @llvm.chess_error(metadata !1960), !dbg !2069
  br label %if.end, !dbg !2069

if.end:                                           ; preds = %if.then3, %do.body
  br label %do.end, !dbg !2072

do.end:                                           ; preds = %if.end
  br label %if.end4, !dbg !2067

if.end4:                                          ; preds = %do.end, %entry
  %4 = load i32, i32* %idx.addr, align 4, !dbg !2066, !tbaa !1164
  %cmp5 = icmp ult i32 %4, 16, !dbg !2066
  call addrspace(1) void @llvm.assume(i1 %cmp5), !dbg !2066
  %5 = load i32, i32* %idx.addr, align 4, !dbg !2073, !tbaa !1164
  call addrspace(1) void @_ZN3aie6detail21vector_elem_const_refIfLj16EEC2ERKNS0_6vectorIfLj16EEEj(%"class.aie::detail::vector_elem_const_ref.20"* nonnull dereferenceable(8) %retval, %"class.aie::detail::vector.16"* nonnull align 32 dereferenceable(64) %this1, i32 %5) #26, !dbg !2074
  %6 = load %"class.aie::detail::vector_elem_const_ref.20", %"class.aie::detail::vector_elem_const_ref.20"* %retval, align 4, !dbg !2075
  ret %"class.aie::detail::vector_elem_const_ref.20" %6, !dbg !2075
}

; Function Attrs: nounwind
define linkonce_odr dso_local void @_ZN3aie6detail21vector_elem_const_refIfLj16EEC2ERKNS0_6vectorIfLj16EEEj(%"class.aie::detail::vector_elem_const_ref.20"* nonnull dereferenceable(8) %this, %"class.aie::detail::vector.16"* nonnull align 32 dereferenceable(64) %v, i32 %idx) unnamed_addr addrspace(1) #6 comdat align 2 !dbg !2076 {
entry:
  %this.addr = alloca %"class.aie::detail::vector_elem_const_ref.20"*, align 4
  %v.addr = alloca %"class.aie::detail::vector.16"*, align 4
  %idx.addr = alloca i32, align 4
  store %"class.aie::detail::vector_elem_const_ref.20"* %this, %"class.aie::detail::vector_elem_const_ref.20"** %this.addr, align 4, !tbaa !1217
  call addrspace(1) void @llvm.dbg.declare(metadata %"class.aie::detail::vector_elem_const_ref.20"** %this.addr, metadata !2078, metadata !DIExpression()), !dbg !2082
  store %"class.aie::detail::vector.16"* %v, %"class.aie::detail::vector.16"** %v.addr, align 4, !tbaa !1217
  call addrspace(1) void @llvm.dbg.declare(metadata %"class.aie::detail::vector.16"** %v.addr, metadata !2080, metadata !DIExpression()), !dbg !2083
  store i32 %idx, i32* %idx.addr, align 4, !tbaa !1164
  call addrspace(1) void @llvm.dbg.declare(metadata i32* %idx.addr, metadata !2081, metadata !DIExpression()), !dbg !2084
  %this1 = load %"class.aie::detail::vector_elem_const_ref.20"*, %"class.aie::detail::vector_elem_const_ref.20"** %this.addr, align 4
  %parent = getelementptr inbounds %"class.aie::detail::vector_elem_const_ref.20", %"class.aie::detail::vector_elem_const_ref.20"* %this1, i32 0, i32 0, !dbg !2085
  %0 = load %"class.aie::detail::vector.16"*, %"class.aie::detail::vector.16"** %v.addr, align 4, !dbg !2086, !tbaa !1217
  store %"class.aie::detail::vector.16"* %0, %"class.aie::detail::vector.16"** %parent, align 4, !dbg !2085, !tbaa !1217
  %offset = getelementptr inbounds %"class.aie::detail::vector_elem_const_ref.20", %"class.aie::detail::vector_elem_const_ref.20"* %this1, i32 0, i32 1, !dbg !2087
  %1 = load i32, i32* %idx.addr, align 4, !dbg !2088, !tbaa !1164
  store i32 %1, i32* %offset, align 4, !dbg !2087, !tbaa !1984
  ret void, !dbg !2089
}

; Function Attrs: nounwind mustprogress
define linkonce_odr dso_local %struct.v16float @_ZN3aie6detail14vector_storageIfLj16EE5undefEv() addrspace(1) #15 comdat align 2 !dbg !2090 {
entry:
  %retval = alloca %struct.v16float, align 32
  %call = call addrspace(1) %struct.v16float @_Z14undef_v16floatv() #26, !dbg !2091
  %0 = getelementptr inbounds %struct.v16float, %struct.v16float* %retval, i32 0, i32 0, !dbg !2091
  %1 = extractvalue %struct.v16float %call, 0, !dbg !2091
  store %struct.ipd.custom_type.v64int8.v64int8 %1, %struct.ipd.custom_type.v64int8.v64int8* %0, align 32, !dbg !2091
  %2 = load %struct.v16float, %struct.v16float* %retval, align 32, !dbg !2092
  ret %struct.v16float %2, !dbg !2092
}

; Function Attrs: alwaysinline nounwind mustprogress
define linkonce_odr dso_local void @_ZN3aie6detail6vectorIfLj16EE23init_from_values_simpleI8v16floatJEfEEvRT_RKfDpOT0_(%"class.aie::detail::vector.16"* nonnull dereferenceable(64) %this, %struct.v16float* nonnull align 32 dereferenceable(64) %d, float* nonnull align 4 dereferenceable(4) %v) addrspace(1) #9 comdat align 2 !dbg !2093 {
entry:
  %this.addr = alloca %"class.aie::detail::vector.16"*, align 4
  %d.addr = alloca %struct.v16float*, align 4
  %v.addr = alloca float*, align 4
  %tmp = alloca %struct.v16float, align 32
  store %"class.aie::detail::vector.16"* %this, %"class.aie::detail::vector.16"** %this.addr, align 4, !tbaa !1217
  call addrspace(1) void @llvm.dbg.declare(metadata %"class.aie::detail::vector.16"** %this.addr, metadata !2104, metadata !DIExpression()), !dbg !2107
  store %struct.v16float* %d, %struct.v16float** %d.addr, align 4, !tbaa !1217
  call addrspace(1) void @llvm.dbg.declare(metadata %struct.v16float** %d.addr, metadata !2105, metadata !DIExpression()), !dbg !2108
  store float* %v, float** %v.addr, align 4, !tbaa !1217
  call addrspace(1) void @llvm.dbg.declare(metadata float** %v.addr, metadata !2106, metadata !DIExpression()), !dbg !2109
  %this1 = load %"class.aie::detail::vector.16"*, %"class.aie::detail::vector.16"** %this.addr, align 4
  %0 = load %struct.v16float*, %struct.v16float** %d.addr, align 4, !dbg !2110, !tbaa !1217
  %1 = bitcast %struct.v16float* %tmp to i8*, !dbg !2111
  call addrspace(1) void @llvm.lifetime.start.p0i8(i64 64, i8* %1) #25, !dbg !2111
  %2 = load %struct.v16float*, %struct.v16float** %d.addr, align 4, !dbg !2112, !tbaa !1217
  %3 = load float*, float** %v.addr, align 4, !dbg !2113, !tbaa !1217
  %4 = load float, float* %3, align 4, !dbg !2113, !tbaa !1262
  %5 = load %struct.v16float, %struct.v16float* %2, align 32, !dbg !2111, !tbaa !1739
  %call = call addrspace(1) %struct.v16float @_Z9shft_elem8v16floatf(%struct.v16float %5, float %4) #26, !dbg !2111
  %6 = getelementptr inbounds %struct.v16float, %struct.v16float* %tmp, i32 0, i32 0, !dbg !2111
  %7 = extractvalue %struct.v16float %call, 0, !dbg !2111
  store %struct.ipd.custom_type.v64int8.v64int8 %7, %struct.ipd.custom_type.v64int8.v64int8* %6, align 32, !dbg !2111
  %8 = load %struct.v16float, %struct.v16float* %tmp, align 32, !dbg !2111, !tbaa !1739
  store %struct.v16float %8, %struct.v16float* %0, align 32, !dbg !2111, !tbaa !1739
  %9 = bitcast %struct.v16float* %tmp to i8*, !dbg !2111
  call addrspace(1) void @llvm.lifetime.end.p0i8(i64 64, i8* %9) #25, !dbg !2111
  ret void, !dbg !2114
}

; Function Attrs: alwaysinline nounwind mustprogress
define linkonce_odr dso_local %struct.v16float @_Z9shft_elem8v16floatf(%struct.v16float %a0.coerce, float %a1) addrspace(1) #9 comdat {
entry:
  %retval = alloca %struct.v16float, align 32
  %a0 = alloca %struct.v16float, align 32
  %a1.addr = alloca float, align 4
  store %struct.v16float %a0.coerce, %struct.v16float* %a0, align 32
  store float %a1, float* %a1.addr, align 4, !tbaa !1262
  %0 = load float, float* %a1.addr, align 4, !tbaa !1262
  %1 = load %struct.v16float, %struct.v16float* %a0, align 32, !tbaa !1739
  %call = call x86_regcallcc addrspace(1) %struct.v16float @__regcall3__chessintr_v16float_shft_elem_v16float___ffloat(%struct.v16float %1, float %0) #30
  %2 = getelementptr inbounds %struct.v16float, %struct.v16float* %retval, i32 0, i32 0
  %3 = extractvalue %struct.v16float %call, 0
  store %struct.ipd.custom_type.v64int8.v64int8 %3, %struct.ipd.custom_type.v64int8.v64int8* %2, align 32
  %4 = load %struct.v16float, %struct.v16float* %retval, align 32
  ret %struct.v16float %4
}

; Function Attrs: nounwind readnone willreturn
declare dso_local x86_regcallcc %struct.v16float @__regcall3__chessintr_v16float_shft_elem_v16float___ffloat(%struct.v16float, float) addrspace(1) #13

; Function Attrs: alwaysinline nounwind mustprogress
define linkonce_odr dso_local %struct.v16float @_Z14undef_v16floatv() addrspace(1) #9 comdat {
entry:
  %retval = alloca %struct.v16float, align 32
  %call = call x86_regcallcc addrspace(1) %struct.v16float @__regcall3__chessintr_v16float_undef_v16float() #30
  %0 = getelementptr inbounds %struct.v16float, %struct.v16float* %retval, i32 0, i32 0
  %1 = extractvalue %struct.v16float %call, 0
  store %struct.ipd.custom_type.v64int8.v64int8 %1, %struct.ipd.custom_type.v64int8.v64int8* %0, align 32
  %2 = load %struct.v16float, %struct.v16float* %retval, align 32
  ret %struct.v16float %2
}

; Function Attrs: nounwind readnone willreturn
declare dso_local x86_regcallcc %struct.v16float @__regcall3__chessintr_v16float_undef_v16float() addrspace(1) #13

; Function Attrs: nounwind mustprogress
define linkonce_odr dso_local %struct.v8float @_ZN3aie6detail14vector_storageIfLj8EE5undefEv() addrspace(1) #15 comdat align 2 !dbg !2115 {
entry:
  %retval = alloca %struct.v8float, align 32
  %call = call addrspace(1) %struct.v8float @_Z13undef_v8floatv() #26, !dbg !2116
  %0 = getelementptr inbounds %struct.v8float, %struct.v8float* %retval, i32 0, i32 0, !dbg !2116
  %1 = extractvalue %struct.v8float %call, 0, !dbg !2116
  store %struct.ipd.custom_type.v32int8.v32int8 %1, %struct.ipd.custom_type.v32int8.v32int8* %0, align 32, !dbg !2116
  %2 = load %struct.v8float, %struct.v8float* %retval, align 32, !dbg !2117
  ret %struct.v8float %2, !dbg !2117
}

; Function Attrs: alwaysinline nounwind mustprogress
define linkonce_odr dso_local %struct.v8float @_Z13undef_v8floatv() addrspace(1) #9 comdat {
entry:
  %retval = alloca %struct.v8float, align 32
  %call = call x86_regcallcc addrspace(1) %struct.v8float @__regcall3__chessintr_v8float_undef_v8float() #30
  %0 = getelementptr inbounds %struct.v8float, %struct.v8float* %retval, i32 0, i32 0
  %1 = extractvalue %struct.v8float %call, 0
  store %struct.ipd.custom_type.v32int8.v32int8 %1, %struct.ipd.custom_type.v32int8.v32int8* %0, align 32
  %2 = load %struct.v8float, %struct.v8float* %retval, align 32
  ret %struct.v8float %2
}

; Function Attrs: nounwind readnone willreturn
declare dso_local x86_regcallcc %struct.v8float @__regcall3__chessintr_v8float_undef_v8float() addrspace(1) #13

; Function Attrs: nounwind mustprogress
define dso_local void @_Z19log_kernel_functionP12input_streamIfEP13output_streamIfE(%struct.input_stream.2* chesscopy noalias %input, %struct.output_stream.4* chesscopy noalias %output) addrspace(1) #15 !dbg !2118 {
entry:
  %input.addr = alloca %struct.input_stream.2*, align 4
  %output.addr = alloca %struct.output_stream.4*, align 4
  %i = alloca i32, align 4
  %x = alloca %"class.aie::detail::vector", align 32
  %custom_type.tmp = alloca %"class.aie::detail::vector", align 32
  %tmp = alloca %"class.aie::detail::vector", align 32
  %y = alloca %"class.aie::detail::vector", align 32
  %0 = call addrspace(1) i8* @llvm.noalias.decl.p0i8.p0p0s_struct.input_stream.2s.i32(%struct.input_stream.2** %input.addr, i32 0, metadata !2132), !noalias !2135
  store %struct.input_stream.2* %input, %struct.input_stream.2** %input.addr, align 4, !tbaa !1217, !noalias !2135
  call addrspace(1) void @llvm.dbg.declare(metadata %struct.input_stream.2** %input.addr, metadata !2124, metadata !DIExpression()), !dbg !2137
  %1 = call addrspace(1) i8* @llvm.noalias.decl.p0i8.p0p0s_struct.output_stream.4s.i32(%struct.output_stream.4** %output.addr, i32 0, metadata !2138), !noalias !2135
  store %struct.output_stream.4* %output, %struct.output_stream.4** %output.addr, align 4, !tbaa !1217, !noalias !2135
  call addrspace(1) void @llvm.dbg.declare(metadata %struct.output_stream.4** %output.addr, metadata !2125, metadata !DIExpression()), !dbg !2139
  store i32 undef, i32* %i, align 4, !dbg !2140, !noalias !2135
  %2 = bitcast i32* %i to i8*, !dbg !2140
  call addrspace(1) void @llvm.lifetime.start.p0i8(i64 4, i8* %2) #25, !dbg !2140, !noalias !2135
  call addrspace(1) void @llvm.dbg.declare(metadata i32* %i, metadata !2126, metadata !DIExpression()), !dbg !2141
  store i32 0, i32* %i, align 4, !dbg !2141, !tbaa !1164, !noalias !2135
  br label %for.cond, !dbg !2140

for.cond:                                         ; preds = %for.inc, %entry
  %3 = load i32, i32* %i, align 4, !dbg !2142, !tbaa !1164, !noalias !2135
  %cmp = icmp slt i32 %3, 128, !dbg !2143
  br i1 %cmp, label %for.body, label %for.cond.cleanup, !dbg !2144

for.cond.cleanup:                                 ; preds = %for.cond
  %4 = bitcast i32* %i to i8*, !dbg !2145
  call addrspace(1) void @llvm.lifetime.end.p0i8(i64 4, i8* %4) #25, !dbg !2145, !noalias !2135
  br label %for.end

for.body:                                         ; preds = %for.cond
  store %"class.aie::detail::vector" undef, %"class.aie::detail::vector"* %x, align 32, !dbg !2146, !noalias !2135
  %5 = bitcast %"class.aie::detail::vector"* %x to i8*, !dbg !2146
  call addrspace(1) void @llvm.lifetime.start.p0i8(i64 32, i8* %5) #25, !dbg !2146, !noalias !2135
  call addrspace(1) void @llvm.dbg.declare(metadata %"class.aie::detail::vector"* %x, metadata !2128, metadata !DIExpression()), !dbg !2147
  call addrspace(1) void @_ZN3aie6detail6vectorIfLj8EEC2Ev(%"class.aie::detail::vector"* nonnull dereferenceable(32) %custom_type.tmp) #26, !dbg !2147, !noalias !2135
  %6 = load %"class.aie::detail::vector", %"class.aie::detail::vector"* %custom_type.tmp, align 32, !dbg !2147, !tbaa !1302, !noalias !2135
  store %"class.aie::detail::vector" %6, %"class.aie::detail::vector"* %x, align 32, !dbg !2147, !tbaa !1302, !noalias !2135
  %7 = bitcast %"class.aie::detail::vector"* %tmp to i8*, !dbg !2148
  call addrspace(1) void @llvm.lifetime.start.p0i8(i64 32, i8* %7) #25, !dbg !2148, !noalias !2135
  %8 = load %struct.input_stream.2*, %struct.input_stream.2** %input.addr, align 4, !dbg !2149, !tbaa !1217, !noalias !2135
  %9 = call addrspace(1) %struct.input_stream.2* @llvm.noalias.p0s_struct.input_stream.2s.p0i8.p0p0s_struct.input_stream.2s.i32(%struct.input_stream.2* %8, i8* %0, %struct.input_stream.2** %input.addr, i32 0, metadata !2132), !dbg !2149, !tbaa !1217, !noalias !2135
  %call = call addrspace(1) %"class.aie::detail::vector" @_Z10readincr_vILj8EL22aie_stream_resource_in0EfEN3aie6detail6vectorIT1_XT_EEEP12input_streamIS4_E(%struct.input_stream.2* %9) #26, !dbg !2148, !noalias !2135
  %10 = getelementptr inbounds %"class.aie::detail::vector", %"class.aie::detail::vector"* %tmp, i32 0, i32 0, !dbg !2148
  %11 = extractvalue %"class.aie::detail::vector" %call, 0, !dbg !2148
  store %struct.v8float %11, %struct.v8float* %10, align 32, !dbg !2148, !noalias !2135
  %12 = load %"class.aie::detail::vector", %"class.aie::detail::vector"* %tmp, align 32, !dbg !2148, !tbaa !1302, !noalias !2135
  store %"class.aie::detail::vector" %12, %"class.aie::detail::vector"* %x, align 32, !dbg !2148, !tbaa !1302, !noalias !2135
  %13 = bitcast %"class.aie::detail::vector"* %tmp to i8*, !dbg !2148
  call addrspace(1) void @llvm.lifetime.end.p0i8(i64 32, i8* %13) #25, !dbg !2148, !noalias !2135
  store %"class.aie::detail::vector" undef, %"class.aie::detail::vector"* %y, align 32, !dbg !2150, !noalias !2135
  %14 = bitcast %"class.aie::detail::vector"* %y to i8*, !dbg !2150
  call addrspace(1) void @llvm.lifetime.start.p0i8(i64 32, i8* %14) #25, !dbg !2150, !noalias !2135
  call addrspace(1) void @llvm.dbg.declare(metadata %"class.aie::detail::vector"* %y, metadata !2131, metadata !DIExpression()), !dbg !2151
  %15 = load %"class.aie::detail::vector", %"class.aie::detail::vector"* %x, align 32, !dbg !2152, !tbaa !1302, !noalias !2135
  %call1 = call addrspace(1) %"class.aie::detail::vector" @_Z5log2vN3aie6detail6vectorIfLj8EEE(%"class.aie::detail::vector" %15) #26, !dbg !2152, !noalias !2135
  %16 = getelementptr inbounds %"class.aie::detail::vector", %"class.aie::detail::vector"* %y, i32 0, i32 0, !dbg !2152
  %17 = extractvalue %"class.aie::detail::vector" %call1, 0, !dbg !2152
  store %struct.v8float %17, %struct.v8float* %16, align 32, !dbg !2152, !noalias !2135
  %18 = load %struct.output_stream.4*, %struct.output_stream.4** %output.addr, align 4, !dbg !2153, !tbaa !1217, !noalias !2135
  %19 = call addrspace(1) %struct.output_stream.4* @llvm.noalias.p0s_struct.output_stream.4s.p0i8.p0p0s_struct.output_stream.4s.i32(%struct.output_stream.4* %18, i8* %1, %struct.output_stream.4** %output.addr, i32 0, metadata !2138), !dbg !2153, !tbaa !1217, !noalias !2135
  call addrspace(1) void @_Z9writeincrIL23aie_stream_resource_out0EfLj8EEvP13output_streamIT0_ERKN3aie6detail6vectorIS2_XT1_EEE(%struct.output_stream.4* %19, %"class.aie::detail::vector"* nonnull align 32 dereferenceable(32) %y) #26, !dbg !2154, !noalias !2135
  %20 = bitcast %"class.aie::detail::vector"* %y to i8*, !dbg !2155
  call addrspace(1) void @llvm.lifetime.end.p0i8(i64 32, i8* %20) #25, !dbg !2155, !noalias !2135
  %21 = bitcast %"class.aie::detail::vector"* %x to i8*, !dbg !2155
  call addrspace(1) void @llvm.lifetime.end.p0i8(i64 32, i8* %21) #25, !dbg !2155, !noalias !2135
  br label %for.inc, !dbg !2156

for.inc:                                          ; preds = %for.body
  %22 = load i32, i32* %i, align 4, !dbg !2157, !tbaa !1164, !noalias !2135
  %inc = add nsw i32 %22, 1, !dbg !2157
  store i32 %inc, i32* %i, align 4, !dbg !2157, !tbaa !1164, !noalias !2135
  br label %for.cond, !dbg !2145, !llvm.loop !2158

for.end:                                          ; preds = %for.cond.cleanup
  ret void, !dbg !2160
}

; Function Attrs: inaccessiblememonly nounwind willreturn
declare i8* @llvm.noalias.decl.p0i8.p0p0s_struct.input_streams.i32(%struct.input_stream.2**, i32, metadata) addrspace(1) #5

; Function Attrs: inaccessiblememonly nounwind willreturn
declare i8* @llvm.noalias.decl.p0i8.p0p0s_struct.input_stream.2s.i32(%struct.input_stream.2**, i32, metadata) addrspace(1) #5

; Function Attrs: inaccessiblememonly nounwind willreturn
declare i8* @llvm.noalias.decl.p0i8.p0p0s_struct.output_streams.i32(%struct.output_stream.4**, i32, metadata) addrspace(1) #5

; Function Attrs: inaccessiblememonly nounwind willreturn
declare i8* @llvm.noalias.decl.p0i8.p0p0s_struct.output_stream.4s.i32(%struct.output_stream.4**, i32, metadata) addrspace(1) #5

; Function Attrs: argmemonly nounwind speculatable willreturn
declare %struct.input_stream.2* @llvm.noalias.p0s_struct.input_streams.p0i8.p0p0s_struct.input_streams.i32(%struct.input_stream.2*, i8*, %struct.input_stream.2**, i32, metadata) addrspace(1) #19

; Function Attrs: argmemonly nounwind speculatable willreturn
declare %struct.input_stream.2* @llvm.noalias.p0s_struct.input_stream.2s.p0i8.p0p0s_struct.input_stream.2s.i32(%struct.input_stream.2*, i8*, %struct.input_stream.2**, i32, metadata) addrspace(1) #19

; Function Attrs: nounwind mustprogress
define linkonce_odr dso_local %"class.aie::detail::vector" @_Z10readincr_vILj8EL22aie_stream_resource_in0EfEN3aie6detail6vectorIT1_XT_EEEP12input_streamIS4_E(%struct.input_stream.2* %w) addrspace(1) #15 comdat !dbg !2161 {
entry:
  %retval = alloca %"class.aie::detail::vector", align 32
  %w.addr = alloca %struct.input_stream.2*, align 4
  store %struct.input_stream.2* %w, %struct.input_stream.2** %w.addr, align 4, !tbaa !1217
  call addrspace(1) void @llvm.dbg.declare(metadata %struct.input_stream.2** %w.addr, metadata !2165, metadata !DIExpression()), !dbg !2167
  %0 = load %struct.input_stream.2*, %struct.input_stream.2** %w.addr, align 4, !dbg !2168, !tbaa !1217
  %call = call addrspace(1) %"class.aie::detail::vector" @_ZN3aie6detail3adf16stream_in_helperILj8EfL22aie_stream_resource_in0EE8readincrEP12input_streamIfE(%struct.input_stream.2* %0) #26, !dbg !2169
  %1 = getelementptr inbounds %"class.aie::detail::vector", %"class.aie::detail::vector"* %retval, i32 0, i32 0, !dbg !2169
  %2 = extractvalue %"class.aie::detail::vector" %call, 0, !dbg !2169
  store %struct.v8float %2, %struct.v8float* %1, align 32, !dbg !2169
  %3 = load %"class.aie::detail::vector", %"class.aie::detail::vector"* %retval, align 32, !dbg !2170
  ret %"class.aie::detail::vector" %3, !dbg !2170
}

; Function Attrs: inlinehint nounwind mustprogress
define linkonce_odr dso_local %"class.aie::detail::vector" @_Z5log2vN3aie6detail6vectorIfLj8EEE(%"class.aie::detail::vector" %x.coerce) addrspace(1) #20 comdat !dbg !2171 {
entry:
  %x = alloca %"class.aie::detail::vector", align 32
  %m = alloca %"class.aie::detail::vector.3", align 32
  %custom_type.tmp = alloca %"class.aie::detail::vector.3", align 32
  %agg.tmp = alloca %struct.v8int32, align 32
  %agg.tmp1 = alloca %struct.v8float, align 32
  %tmp = alloca %"class.aie::detail::vector.3", align 32
  %tmp4 = alloca %"class.aie::detail::vector.3", align 32
  %exp = alloca %"class.aie::detail::vector", align 32
  %sig_int = alloca %"class.aie::detail::vector.3", align 32
  %custom_type.tmp7 = alloca %"class.aie::detail::vector.3", align 32
  %agg.tmp8 = alloca %struct.v8int32, align 32
  %agg.tmp9 = alloca %struct.v8float, align 32
  %tmp12 = alloca %"class.aie::detail::vector.3", align 32
  %tmp14 = alloca %"class.aie::detail::vector.3", align 32
  %sig = alloca %"class.aie::detail::vector", align 32
  %custom_type.tmp16 = alloca %"class.aie::detail::vector", align 32
  %agg.tmp17 = alloca %struct.v8float, align 32
  %agg.tmp18 = alloca %struct.v8int32, align 32
  %y = alloca %"class.aie::detail::vector", align 32
  %custom_type.tmp21 = alloca %"class.aie::detail::vector", align 32
  %custom_type.tmp22 = alloca %"class.aie::detail::vector", align 32
  %agg.tmp23 = alloca %struct.v8float, align 32
  %agg.tmp24 = alloca %struct.v8float, align 32
  %agg.tmp26 = alloca %struct.v8float, align 32
  %agg.tmp28 = alloca %struct.v8float, align 32
  %i = alloca i32, align 4
  %custom_type.tmp31 = alloca %"class.aie::detail::vector", align 32
  %agg.tmp32 = alloca %struct.v8float, align 32
  %agg.tmp33 = alloca %struct.v8float, align 32
  %agg.tmp35 = alloca %struct.v8float, align 32
  %agg.tmp37 = alloca %struct.v8float, align 32
  %custom_type.tmp40 = alloca %"class.aie::detail::vector", align 32
  %agg.tmp41 = alloca %struct.v8float, align 32
  %agg.tmp42 = alloca %struct.v8float, align 32
  %agg.tmp44 = alloca %struct.v8float, align 32
  store %"class.aie::detail::vector" %x.coerce, %"class.aie::detail::vector"* %x, align 32
  call addrspace(1) void @llvm.dbg.declare(metadata %"class.aie::detail::vector"* %x, metadata !2175, metadata !DIExpression()), !dbg !2184
  store %"class.aie::detail::vector.3" undef, %"class.aie::detail::vector.3"* %m, align 32, !dbg !2185
  %0 = bitcast %"class.aie::detail::vector.3"* %m to i8*, !dbg !2185
  call addrspace(1) void @llvm.lifetime.start.p0i8(i64 32, i8* %0) #25, !dbg !2185
  call addrspace(1) void @llvm.dbg.declare(metadata %"class.aie::detail::vector.3"* %m, metadata !2176, metadata !DIExpression()), !dbg !2186
  %call = call addrspace(1) %struct.v8float @_ZNK3aie6detail6vectorIfLj8EEcv7v8floatEv(%"class.aie::detail::vector"* nonnull dereferenceable(32) %x) #26, !dbg !2187
  %1 = getelementptr inbounds %struct.v8float, %struct.v8float* %agg.tmp1, i32 0, i32 0, !dbg !2187
  %2 = extractvalue %struct.v8float %call, 0, !dbg !2187
  store %struct.ipd.custom_type.v32int8.v32int8 %2, %struct.ipd.custom_type.v32int8.v32int8* %1, align 32, !dbg !2187
  %3 = load %struct.v8float, %struct.v8float* %agg.tmp1, align 32, !dbg !2188, !tbaa !1729
  %call2 = call addrspace(1) %struct.v8int32 @_Z10as_v8int327v8float(%struct.v8float %3) #26, !dbg !2188
  %4 = getelementptr inbounds %struct.v8int32, %struct.v8int32* %agg.tmp, i32 0, i32 0, !dbg !2188
  %5 = extractvalue %struct.v8int32 %call2, 0, !dbg !2188
  store %struct.ipd.custom_type.v32int8.v32int8 %5, %struct.ipd.custom_type.v32int8.v32int8* %4, align 32, !dbg !2188
  %6 = load %struct.v8int32, %struct.v8int32* %agg.tmp, align 32, !dbg !2188, !tbaa !1729
  call addrspace(1) void @_ZN3aie6detail6vectorIiLj8EEC2E7v8int32(%"class.aie::detail::vector.3"* nonnull dereferenceable(32) %custom_type.tmp, %struct.v8int32 %6) #26, !dbg !2188
  %7 = load %"class.aie::detail::vector.3", %"class.aie::detail::vector.3"* %custom_type.tmp, align 32, !dbg !2188, !tbaa !2189
  store %"class.aie::detail::vector.3" %7, %"class.aie::detail::vector.3"* %m, align 32, !dbg !2188, !tbaa !2189
  %8 = bitcast %"class.aie::detail::vector.3"* %tmp to i8*, !dbg !2191
  call addrspace(1) void @llvm.lifetime.start.p0i8(i64 32, i8* %8) #25, !dbg !2191
  %call3 = call addrspace(1) %"class.aie::detail::vector.3" @_ZN3aie9downshiftINS_6detail6vectorIiLj8EEEEEN22aie_dm_resource_removeIT_E4typeERKS5_j(%"class.aie::detail::vector.3"* nonnull align 32 dereferenceable(32) %m, i32 23) #26, !dbg !2191
  %9 = getelementptr inbounds %"class.aie::detail::vector.3", %"class.aie::detail::vector.3"* %tmp, i32 0, i32 0, !dbg !2191
  %10 = extractvalue %"class.aie::detail::vector.3" %call3, 0, !dbg !2191
  store %struct.v8int32 %10, %struct.v8int32* %9, align 32, !dbg !2191
  %11 = load %"class.aie::detail::vector.3", %"class.aie::detail::vector.3"* %tmp, align 32, !dbg !2191, !tbaa !2189
  store %"class.aie::detail::vector.3" %11, %"class.aie::detail::vector.3"* %m, align 32, !dbg !2191, !tbaa !2189
  %12 = bitcast %"class.aie::detail::vector.3"* %tmp to i8*, !dbg !2191
  call addrspace(1) void @llvm.lifetime.end.p0i8(i64 32, i8* %12) #25, !dbg !2191
  %13 = bitcast %"class.aie::detail::vector.3"* %tmp4 to i8*, !dbg !2192
  call addrspace(1) void @llvm.lifetime.start.p0i8(i64 32, i8* %13) #25, !dbg !2192
  %call5 = call addrspace(1) %"class.aie::detail::vector.3" @_ZN3aie3subINS_6detail6vectorIiLj8EEEiEEN22aie_dm_resource_removeIT_E4typeERKS5_T0_(%"class.aie::detail::vector.3"* nonnull align 32 dereferenceable(32) %m, i32 127) #26, !dbg !2192
  %14 = getelementptr inbounds %"class.aie::detail::vector.3", %"class.aie::detail::vector.3"* %tmp4, i32 0, i32 0, !dbg !2192
  %15 = extractvalue %"class.aie::detail::vector.3" %call5, 0, !dbg !2192
  store %struct.v8int32 %15, %struct.v8int32* %14, align 32, !dbg !2192
  %16 = load %"class.aie::detail::vector.3", %"class.aie::detail::vector.3"* %tmp4, align 32, !dbg !2192, !tbaa !2189
  store %"class.aie::detail::vector.3" %16, %"class.aie::detail::vector.3"* %m, align 32, !dbg !2192, !tbaa !2189
  %17 = bitcast %"class.aie::detail::vector.3"* %tmp4 to i8*, !dbg !2192
  call addrspace(1) void @llvm.lifetime.end.p0i8(i64 32, i8* %17) #25, !dbg !2192
  store %"class.aie::detail::vector" undef, %"class.aie::detail::vector"* %exp, align 32, !dbg !2193
  %18 = bitcast %"class.aie::detail::vector"* %exp to i8*, !dbg !2193
  call addrspace(1) void @llvm.lifetime.start.p0i8(i64 32, i8* %18) #25, !dbg !2193
  call addrspace(1) void @llvm.dbg.declare(metadata %"class.aie::detail::vector"* %exp, metadata !2178, metadata !DIExpression()), !dbg !2194
  %call6 = call addrspace(1) %"class.aie::detail::vector" @_ZN3aie8to_floatIiLj8EEEDaRKNS_6detail6vectorIT_XT0_EEEi(%"class.aie::detail::vector.3"* nonnull align 32 dereferenceable(32) %m, i32 0) #26, !dbg !2195
  %19 = getelementptr inbounds %"class.aie::detail::vector", %"class.aie::detail::vector"* %exp, i32 0, i32 0, !dbg !2195
  %20 = extractvalue %"class.aie::detail::vector" %call6, 0, !dbg !2195
  store %struct.v8float %20, %struct.v8float* %19, align 32, !dbg !2195
  store %"class.aie::detail::vector.3" undef, %"class.aie::detail::vector.3"* %sig_int, align 32, !dbg !2196
  %21 = bitcast %"class.aie::detail::vector.3"* %sig_int to i8*, !dbg !2196
  call addrspace(1) void @llvm.lifetime.start.p0i8(i64 32, i8* %21) #25, !dbg !2196
  call addrspace(1) void @llvm.dbg.declare(metadata %"class.aie::detail::vector.3"* %sig_int, metadata !2179, metadata !DIExpression()), !dbg !2197
  %call10 = call addrspace(1) %struct.v8float @_ZNK3aie6detail6vectorIfLj8EEcv7v8floatEv(%"class.aie::detail::vector"* nonnull dereferenceable(32) %x) #26, !dbg !2198
  %22 = getelementptr inbounds %struct.v8float, %struct.v8float* %agg.tmp9, i32 0, i32 0, !dbg !2198
  %23 = extractvalue %struct.v8float %call10, 0, !dbg !2198
  store %struct.ipd.custom_type.v32int8.v32int8 %23, %struct.ipd.custom_type.v32int8.v32int8* %22, align 32, !dbg !2198
  %24 = load %struct.v8float, %struct.v8float* %agg.tmp9, align 32, !dbg !2199, !tbaa !1729
  %call11 = call addrspace(1) %struct.v8int32 @_Z10as_v8int327v8float(%struct.v8float %24) #26, !dbg !2199
  %25 = getelementptr inbounds %struct.v8int32, %struct.v8int32* %agg.tmp8, i32 0, i32 0, !dbg !2199
  %26 = extractvalue %struct.v8int32 %call11, 0, !dbg !2199
  store %struct.ipd.custom_type.v32int8.v32int8 %26, %struct.ipd.custom_type.v32int8.v32int8* %25, align 32, !dbg !2199
  %27 = load %struct.v8int32, %struct.v8int32* %agg.tmp8, align 32, !dbg !2199, !tbaa !1729
  call addrspace(1) void @_ZN3aie6detail6vectorIiLj8EEC2E7v8int32(%"class.aie::detail::vector.3"* nonnull dereferenceable(32) %custom_type.tmp7, %struct.v8int32 %27) #26, !dbg !2199
  %28 = load %"class.aie::detail::vector.3", %"class.aie::detail::vector.3"* %custom_type.tmp7, align 32, !dbg !2199, !tbaa !2189
  store %"class.aie::detail::vector.3" %28, %"class.aie::detail::vector.3"* %sig_int, align 32, !dbg !2199, !tbaa !2189
  %29 = bitcast %"class.aie::detail::vector.3"* %tmp12 to i8*, !dbg !2200
  call addrspace(1) void @llvm.lifetime.start.p0i8(i64 32, i8* %29) #25, !dbg !2200
  %call13 = call addrspace(1) %"class.aie::detail::vector.3" @_ZN3aie7bit_andIiNS_6detail6vectorIiLj8EEEEEN22aie_dm_resource_removeIT0_E4typeET_RKS5_(i32 8388607, %"class.aie::detail::vector.3"* nonnull align 32 dereferenceable(32) %sig_int) #26, !dbg !2200
  %30 = getelementptr inbounds %"class.aie::detail::vector.3", %"class.aie::detail::vector.3"* %tmp12, i32 0, i32 0, !dbg !2200
  %31 = extractvalue %"class.aie::detail::vector.3" %call13, 0, !dbg !2200
  store %struct.v8int32 %31, %struct.v8int32* %30, align 32, !dbg !2200
  %32 = load %"class.aie::detail::vector.3", %"class.aie::detail::vector.3"* %tmp12, align 32, !dbg !2200, !tbaa !2189
  store %"class.aie::detail::vector.3" %32, %"class.aie::detail::vector.3"* %sig_int, align 32, !dbg !2200, !tbaa !2189
  %33 = bitcast %"class.aie::detail::vector.3"* %tmp12 to i8*, !dbg !2200
  call addrspace(1) void @llvm.lifetime.end.p0i8(i64 32, i8* %33) #25, !dbg !2200
  %34 = bitcast %"class.aie::detail::vector.3"* %tmp14 to i8*, !dbg !2201
  call addrspace(1) void @llvm.lifetime.start.p0i8(i64 32, i8* %34) #25, !dbg !2201
  %call15 = call addrspace(1) %"class.aie::detail::vector.3" @_ZN3aie6bit_orIiNS_6detail6vectorIiLj8EEEEEN22aie_dm_resource_removeIT0_E4typeET_RKS5_(i32 1065353216, %"class.aie::detail::vector.3"* nonnull align 32 dereferenceable(32) %sig_int) #26, !dbg !2201
  %35 = getelementptr inbounds %"class.aie::detail::vector.3", %"class.aie::detail::vector.3"* %tmp14, i32 0, i32 0, !dbg !2201
  %36 = extractvalue %"class.aie::detail::vector.3" %call15, 0, !dbg !2201
  store %struct.v8int32 %36, %struct.v8int32* %35, align 32, !dbg !2201
  %37 = load %"class.aie::detail::vector.3", %"class.aie::detail::vector.3"* %tmp14, align 32, !dbg !2201, !tbaa !2189
  store %"class.aie::detail::vector.3" %37, %"class.aie::detail::vector.3"* %sig_int, align 32, !dbg !2201, !tbaa !2189
  %38 = bitcast %"class.aie::detail::vector.3"* %tmp14 to i8*, !dbg !2201
  call addrspace(1) void @llvm.lifetime.end.p0i8(i64 32, i8* %38) #25, !dbg !2201
  store %"class.aie::detail::vector" undef, %"class.aie::detail::vector"* %sig, align 32, !dbg !2202
  %39 = bitcast %"class.aie::detail::vector"* %sig to i8*, !dbg !2202
  call addrspace(1) void @llvm.lifetime.start.p0i8(i64 32, i8* %39) #25, !dbg !2202
  call addrspace(1) void @llvm.dbg.declare(metadata %"class.aie::detail::vector"* %sig, metadata !2180, metadata !DIExpression()), !dbg !2203
  %call19 = call addrspace(1) %struct.v8int32 @_ZNK3aie6detail6vectorIiLj8EEcv7v8int32Ev(%"class.aie::detail::vector.3"* nonnull dereferenceable(32) %sig_int) #26, !dbg !2204
  %40 = getelementptr inbounds %struct.v8int32, %struct.v8int32* %agg.tmp18, i32 0, i32 0, !dbg !2204
  %41 = extractvalue %struct.v8int32 %call19, 0, !dbg !2204
  store %struct.ipd.custom_type.v32int8.v32int8 %41, %struct.ipd.custom_type.v32int8.v32int8* %40, align 32, !dbg !2204
  %42 = load %struct.v8int32, %struct.v8int32* %agg.tmp18, align 32, !dbg !2205, !tbaa !1729
  %call20 = call addrspace(1) %struct.v8float @_Z10as_v8float7v8int32(%struct.v8int32 %42) #26, !dbg !2205
  %43 = getelementptr inbounds %struct.v8float, %struct.v8float* %agg.tmp17, i32 0, i32 0, !dbg !2205
  %44 = extractvalue %struct.v8float %call20, 0, !dbg !2205
  store %struct.ipd.custom_type.v32int8.v32int8 %44, %struct.ipd.custom_type.v32int8.v32int8* %43, align 32, !dbg !2205
  %45 = load %struct.v8float, %struct.v8float* %agg.tmp17, align 32, !dbg !2205, !tbaa !1729
  call addrspace(1) void @_ZN3aie6detail6vectorIfLj8EEC2E7v8float(%"class.aie::detail::vector"* nonnull dereferenceable(32) %custom_type.tmp16, %struct.v8float %45) #26, !dbg !2205
  %46 = load %"class.aie::detail::vector", %"class.aie::detail::vector"* %custom_type.tmp16, align 32, !dbg !2205, !tbaa !1302
  store %"class.aie::detail::vector" %46, %"class.aie::detail::vector"* %sig, align 32, !dbg !2205, !tbaa !1302
  store %"class.aie::detail::vector" undef, %"class.aie::detail::vector"* %y, align 32, !dbg !2206
  %47 = bitcast %"class.aie::detail::vector"* %y to i8*, !dbg !2206
  call addrspace(1) void @llvm.lifetime.start.p0i8(i64 32, i8* %47) #25, !dbg !2206
  call addrspace(1) void @llvm.dbg.declare(metadata %"class.aie::detail::vector"* %y, metadata !2181, metadata !DIExpression()), !dbg !2207
  call addrspace(1) void @_ZN3aie6detail6vectorIfLj8EEC2Ev(%"class.aie::detail::vector"* nonnull dereferenceable(32) %custom_type.tmp21) #26, !dbg !2207
  %48 = load %"class.aie::detail::vector", %"class.aie::detail::vector"* %custom_type.tmp21, align 32, !dbg !2207, !tbaa !1302
  store %"class.aie::detail::vector" %48, %"class.aie::detail::vector"* %y, align 32, !dbg !2207, !tbaa !1302
  %call25 = call addrspace(1) %struct.v8float @_ZNK3aie6detail6vectorIfLj8EEcv7v8floatEv(%"class.aie::detail::vector"* nonnull dereferenceable(32) getelementptr inbounds ([7 x %"class.aie::detail::vector"], [7 x %"class.aie::detail::vector"]* @_ZL1c, i32 0, i32 5)) #26, !dbg !2208
  %49 = getelementptr inbounds %struct.v8float, %struct.v8float* %agg.tmp24, i32 0, i32 0, !dbg !2208
  %50 = extractvalue %struct.v8float %call25, 0, !dbg !2208
  store %struct.ipd.custom_type.v32int8.v32int8 %50, %struct.ipd.custom_type.v32int8.v32int8* %49, align 32, !dbg !2208
  %call27 = call addrspace(1) %struct.v8float @_ZNK3aie6detail6vectorIfLj8EEcv7v8floatEv(%"class.aie::detail::vector"* nonnull dereferenceable(32) %sig) #26, !dbg !2209
  %51 = getelementptr inbounds %struct.v8float, %struct.v8float* %agg.tmp26, i32 0, i32 0, !dbg !2209
  %52 = extractvalue %struct.v8float %call27, 0, !dbg !2209
  store %struct.ipd.custom_type.v32int8.v32int8 %52, %struct.ipd.custom_type.v32int8.v32int8* %51, align 32, !dbg !2209
  %call29 = call addrspace(1) %struct.v8float @_ZNK3aie6detail6vectorIfLj8EEcv7v8floatEv(%"class.aie::detail::vector"* nonnull dereferenceable(32) getelementptr inbounds ([7 x %"class.aie::detail::vector"], [7 x %"class.aie::detail::vector"]* @_ZL1c, i32 0, i32 6)) #26, !dbg !2210
  %53 = getelementptr inbounds %struct.v8float, %struct.v8float* %agg.tmp28, i32 0, i32 0, !dbg !2210
  %54 = extractvalue %struct.v8float %call29, 0, !dbg !2210
  store %struct.ipd.custom_type.v32int8.v32int8 %54, %struct.ipd.custom_type.v32int8.v32int8* %53, align 32, !dbg !2210
  %55 = load %struct.v8float, %struct.v8float* %agg.tmp24, align 32, !dbg !2211, !tbaa !1729
  %56 = load %struct.v8float, %struct.v8float* %agg.tmp26, align 32, !dbg !2211, !tbaa !1729
  %57 = load %struct.v8float, %struct.v8float* %agg.tmp28, align 32, !dbg !2211, !tbaa !1729
  %call30 = call addrspace(1) %struct.v8float @_Z5fpmac7v8floatS_S_(%struct.v8float %55, %struct.v8float %56, %struct.v8float %57) #26, !dbg !2211
  %58 = getelementptr inbounds %struct.v8float, %struct.v8float* %agg.tmp23, i32 0, i32 0, !dbg !2211
  %59 = extractvalue %struct.v8float %call30, 0, !dbg !2211
  store %struct.ipd.custom_type.v32int8.v32int8 %59, %struct.ipd.custom_type.v32int8.v32int8* %58, align 32, !dbg !2211
  %60 = load %struct.v8float, %struct.v8float* %agg.tmp23, align 32, !dbg !2211, !tbaa !1729
  call addrspace(1) void @_ZN3aie6detail6vectorIfLj8EEC2E7v8float(%"class.aie::detail::vector"* nonnull dereferenceable(32) %custom_type.tmp22, %struct.v8float %60) #26, !dbg !2211
  %61 = load %"class.aie::detail::vector", %"class.aie::detail::vector"* %custom_type.tmp22, align 32, !dbg !2211, !tbaa !1302
  store %"class.aie::detail::vector" %61, %"class.aie::detail::vector"* %y, align 32, !dbg !2211, !tbaa !1302
  store i32 undef, i32* %i, align 4, !dbg !2212
  %62 = bitcast i32* %i to i8*, !dbg !2212
  call addrspace(1) void @llvm.lifetime.start.p0i8(i64 4, i8* %62) #25, !dbg !2212
  call addrspace(1) void @llvm.dbg.declare(metadata i32* %i, metadata !2182, metadata !DIExpression()), !dbg !2213
  store i32 4, i32* %i, align 4, !dbg !2213, !tbaa !1164
  br label %for.cond, !dbg !2212

for.cond:                                         ; preds = %for.inc, %entry
  %63 = load i32, i32* %i, align 4, !dbg !2214, !tbaa !1164
  %cmp = icmp sge i32 %63, 0, !dbg !2216
  br i1 %cmp, label %for.body, label %for.cond.cleanup, !dbg !2217

for.cond.cleanup:                                 ; preds = %for.cond
  %64 = bitcast i32* %i to i8*, !dbg !2218
  call addrspace(1) void @llvm.lifetime.end.p0i8(i64 4, i8* %64) #25, !dbg !2218
  br label %for.end

for.body:                                         ; preds = %for.cond
  %65 = load i32, i32* %i, align 4, !dbg !2219, !tbaa !1164
  %arrayidx = getelementptr inbounds [7 x %"class.aie::detail::vector"], [7 x %"class.aie::detail::vector"]* @_ZL1c, i32 0, i32 %65, !dbg !2221
  %call34 = call addrspace(1) %struct.v8float @_ZNK3aie6detail6vectorIfLj8EEcv7v8floatEv(%"class.aie::detail::vector"* nonnull dereferenceable(32) %arrayidx) #26, !dbg !2221
  %66 = getelementptr inbounds %struct.v8float, %struct.v8float* %agg.tmp33, i32 0, i32 0, !dbg !2221
  %67 = extractvalue %struct.v8float %call34, 0, !dbg !2221
  store %struct.ipd.custom_type.v32int8.v32int8 %67, %struct.ipd.custom_type.v32int8.v32int8* %66, align 32, !dbg !2221
  %call36 = call addrspace(1) %struct.v8float @_ZNK3aie6detail6vectorIfLj8EEcv7v8floatEv(%"class.aie::detail::vector"* nonnull dereferenceable(32) %sig) #26, !dbg !2222
  %68 = getelementptr inbounds %struct.v8float, %struct.v8float* %agg.tmp35, i32 0, i32 0, !dbg !2222
  %69 = extractvalue %struct.v8float %call36, 0, !dbg !2222
  store %struct.ipd.custom_type.v32int8.v32int8 %69, %struct.ipd.custom_type.v32int8.v32int8* %68, align 32, !dbg !2222
  %call38 = call addrspace(1) %struct.v8float @_ZNK3aie6detail6vectorIfLj8EEcv7v8floatEv(%"class.aie::detail::vector"* nonnull dereferenceable(32) %y) #26, !dbg !2223
  %70 = getelementptr inbounds %struct.v8float, %struct.v8float* %agg.tmp37, i32 0, i32 0, !dbg !2223
  %71 = extractvalue %struct.v8float %call38, 0, !dbg !2223
  store %struct.ipd.custom_type.v32int8.v32int8 %71, %struct.ipd.custom_type.v32int8.v32int8* %70, align 32, !dbg !2223
  %72 = load %struct.v8float, %struct.v8float* %agg.tmp33, align 32, !dbg !2224, !tbaa !1729
  %73 = load %struct.v8float, %struct.v8float* %agg.tmp35, align 32, !dbg !2224, !tbaa !1729
  %74 = load %struct.v8float, %struct.v8float* %agg.tmp37, align 32, !dbg !2224, !tbaa !1729
  %call39 = call addrspace(1) %struct.v8float @_Z5fpmac7v8floatS_S_(%struct.v8float %72, %struct.v8float %73, %struct.v8float %74) #26, !dbg !2224
  %75 = getelementptr inbounds %struct.v8float, %struct.v8float* %agg.tmp32, i32 0, i32 0, !dbg !2224
  %76 = extractvalue %struct.v8float %call39, 0, !dbg !2224
  store %struct.ipd.custom_type.v32int8.v32int8 %76, %struct.ipd.custom_type.v32int8.v32int8* %75, align 32, !dbg !2224
  %77 = load %struct.v8float, %struct.v8float* %agg.tmp32, align 32, !dbg !2224, !tbaa !1729
  call addrspace(1) void @_ZN3aie6detail6vectorIfLj8EEC2E7v8float(%"class.aie::detail::vector"* nonnull dereferenceable(32) %custom_type.tmp31, %struct.v8float %77) #26, !dbg !2224
  %78 = load %"class.aie::detail::vector", %"class.aie::detail::vector"* %custom_type.tmp31, align 32, !dbg !2224, !tbaa !1302
  store %"class.aie::detail::vector" %78, %"class.aie::detail::vector"* %y, align 32, !dbg !2224, !tbaa !1302
  br label %for.inc, !dbg !2225

for.inc:                                          ; preds = %for.body
  %79 = load i32, i32* %i, align 4, !dbg !2226, !tbaa !1164
  %dec = add nsw i32 %79, -1, !dbg !2226
  store i32 %dec, i32* %i, align 4, !dbg !2226, !tbaa !1164
  br label %for.cond, !dbg !2218, !llvm.loop !2227

for.end:                                          ; preds = %for.cond.cleanup
  %call43 = call addrspace(1) %struct.v8float @_ZNK3aie6detail6vectorIfLj8EEcv7v8floatEv(%"class.aie::detail::vector"* nonnull dereferenceable(32) %exp) #26, !dbg !2229
  %80 = getelementptr inbounds %struct.v8float, %struct.v8float* %agg.tmp42, i32 0, i32 0, !dbg !2229
  %81 = extractvalue %struct.v8float %call43, 0, !dbg !2229
  store %struct.ipd.custom_type.v32int8.v32int8 %81, %struct.ipd.custom_type.v32int8.v32int8* %80, align 32, !dbg !2229
  %call45 = call addrspace(1) %struct.v8float @_ZNK3aie6detail6vectorIfLj8EEcv7v8floatEv(%"class.aie::detail::vector"* nonnull dereferenceable(32) %y) #26, !dbg !2230
  %82 = getelementptr inbounds %struct.v8float, %struct.v8float* %agg.tmp44, i32 0, i32 0, !dbg !2230
  %83 = extractvalue %struct.v8float %call45, 0, !dbg !2230
  store %struct.ipd.custom_type.v32int8.v32int8 %83, %struct.ipd.custom_type.v32int8.v32int8* %82, align 32, !dbg !2230
  %84 = load %struct.v8float, %struct.v8float* %agg.tmp42, align 32, !dbg !2231, !tbaa !1729
  %85 = load %struct.v8float, %struct.v8float* %agg.tmp44, align 32, !dbg !2231, !tbaa !1729
  %call46 = call addrspace(1) %struct.v8float @_Z5fpadd7v8floatS_(%struct.v8float %84, %struct.v8float %85) #26, !dbg !2231
  %86 = getelementptr inbounds %struct.v8float, %struct.v8float* %agg.tmp41, i32 0, i32 0, !dbg !2231
  %87 = extractvalue %struct.v8float %call46, 0, !dbg !2231
  store %struct.ipd.custom_type.v32int8.v32int8 %87, %struct.ipd.custom_type.v32int8.v32int8* %86, align 32, !dbg !2231
  %88 = load %struct.v8float, %struct.v8float* %agg.tmp41, align 32, !dbg !2231, !tbaa !1729
  call addrspace(1) void @_ZN3aie6detail6vectorIfLj8EEC2E7v8float(%"class.aie::detail::vector"* nonnull dereferenceable(32) %custom_type.tmp40, %struct.v8float %88) #26, !dbg !2231
  %89 = load %"class.aie::detail::vector", %"class.aie::detail::vector"* %custom_type.tmp40, align 32, !dbg !2231, !tbaa !1302
  %90 = bitcast %"class.aie::detail::vector"* %y to i8*, !dbg !2232
  call addrspace(1) void @llvm.lifetime.end.p0i8(i64 32, i8* %90) #25, !dbg !2232
  %91 = bitcast %"class.aie::detail::vector"* %sig to i8*, !dbg !2232
  call addrspace(1) void @llvm.lifetime.end.p0i8(i64 32, i8* %91) #25, !dbg !2232
  %92 = bitcast %"class.aie::detail::vector.3"* %sig_int to i8*, !dbg !2232
  call addrspace(1) void @llvm.lifetime.end.p0i8(i64 32, i8* %92) #25, !dbg !2232
  %93 = bitcast %"class.aie::detail::vector"* %exp to i8*, !dbg !2232
  call addrspace(1) void @llvm.lifetime.end.p0i8(i64 32, i8* %93) #25, !dbg !2232
  %94 = bitcast %"class.aie::detail::vector.3"* %m to i8*, !dbg !2232
  call addrspace(1) void @llvm.lifetime.end.p0i8(i64 32, i8* %94) #25, !dbg !2232
  ret %"class.aie::detail::vector" %89, !dbg !2231
}

; Function Attrs: argmemonly nounwind speculatable willreturn
declare %struct.output_stream.4* @llvm.noalias.p0s_struct.output_streams.p0i8.p0p0s_struct.output_streams.i32(%struct.output_stream.4*, i8*, %struct.output_stream.4**, i32, metadata) addrspace(1) #19

; Function Attrs: argmemonly nounwind speculatable willreturn
declare %struct.output_stream.4* @llvm.noalias.p0s_struct.output_stream.4s.p0i8.p0p0s_struct.output_stream.4s.i32(%struct.output_stream.4*, i8*, %struct.output_stream.4**, i32, metadata) addrspace(1) #19

; Function Attrs: nounwind mustprogress
define linkonce_odr dso_local void @_Z9writeincrIL23aie_stream_resource_out0EfLj8EEvP13output_streamIT0_ERKN3aie6detail6vectorIS2_XT1_EEE(%struct.output_stream.4* %w, %"class.aie::detail::vector"* nonnull align 32 dereferenceable(32) %value) addrspace(1) #15 comdat !dbg !2233 {
entry:
  %w.addr = alloca %struct.output_stream.4*, align 4
  %value.addr = alloca %"class.aie::detail::vector"*, align 4
  store %struct.output_stream.4* %w, %struct.output_stream.4** %w.addr, align 4, !tbaa !1217
  call addrspace(1) void @llvm.dbg.declare(metadata %struct.output_stream.4** %w.addr, metadata !2239, metadata !DIExpression()), !dbg !2242
  store %"class.aie::detail::vector"* %value, %"class.aie::detail::vector"** %value.addr, align 4, !tbaa !1217
  call addrspace(1) void @llvm.dbg.declare(metadata %"class.aie::detail::vector"** %value.addr, metadata !2240, metadata !DIExpression()), !dbg !2243
  %0 = load %struct.output_stream.4*, %struct.output_stream.4** %w.addr, align 4, !dbg !2244, !tbaa !1217
  %1 = load %"class.aie::detail::vector"*, %"class.aie::detail::vector"** %value.addr, align 4, !dbg !2245, !tbaa !1217
  %2 = load %"class.aie::detail::vector", %"class.aie::detail::vector"* %1, align 32, !dbg !2246, !tbaa !1302
  call addrspace(1) void @_ZN3aie6detail3adf17stream_out_helperILj8EfL23aie_stream_resource_out0EE9writeincrEP13output_streamIfENS0_6vectorIfLj8EEE(%struct.output_stream.4* %0, %"class.aie::detail::vector" %2) #26, !dbg !2246
  ret void, !dbg !2247
}

; Function Attrs: nounwind mustprogress
define linkonce_odr dso_local void @_ZN3aie6detail3adf17stream_out_helperILj8EfL23aie_stream_resource_out0EE9writeincrEP13output_streamIfENS0_6vectorIfLj8EEE(%struct.output_stream.4* %w, %"class.aie::detail::vector" %value.coerce) addrspace(1) #15 comdat align 2 !dbg !2248 {
entry:
  %value = alloca %"class.aie::detail::vector", align 32
  %w.addr = alloca %struct.output_stream.4*, align 4
  %i = alloca i32, align 4
  %agg.tmp = alloca %struct.v4float, align 16
  %ref.tmp = alloca %"class.aie::detail::vector.15", align 16
  store %"class.aie::detail::vector" %value.coerce, %"class.aie::detail::vector"* %value, align 32
  store %struct.output_stream.4* %w, %struct.output_stream.4** %w.addr, align 4, !tbaa !1217
  call addrspace(1) void @llvm.dbg.declare(metadata %struct.output_stream.4** %w.addr, metadata !2250, metadata !DIExpression()), !dbg !2254
  call addrspace(1) void @llvm.dbg.declare(metadata %"class.aie::detail::vector"* %value, metadata !2251, metadata !DIExpression()), !dbg !2255
  store i32 undef, i32* %i, align 4, !dbg !2256
  %0 = bitcast i32* %i to i8*, !dbg !2256
  call addrspace(1) void @llvm.lifetime.start.p0i8(i64 4, i8* %0) #25, !dbg !2256
  call addrspace(1) void @llvm.dbg.declare(metadata i32* %i, metadata !2252, metadata !DIExpression()), !dbg !2257
  store i32 0, i32* %i, align 4, !dbg !2257, !tbaa !1164
  br label %for.cond, !dbg !2256

for.cond:                                         ; preds = %for.inc, %entry
  %1 = load i32, i32* %i, align 4, !dbg !2258, !tbaa !1164
  %cmp = icmp ult i32 %1, 2, !dbg !2260
  br i1 %cmp, label %for.body, label %for.cond.cleanup, !dbg !2261

for.cond.cleanup:                                 ; preds = %for.cond
  %2 = bitcast i32* %i to i8*, !dbg !2262
  call addrspace(1) void @llvm.lifetime.end.p0i8(i64 4, i8* %2) #25, !dbg !2262
  br label %for.end

for.body:                                         ; preds = %for.cond
  %3 = load %struct.output_stream.4*, %struct.output_stream.4** %w.addr, align 4, !dbg !2263, !tbaa !1217
  %4 = bitcast %"class.aie::detail::vector.15"* %ref.tmp to i8*, !dbg !2264
  call addrspace(1) void @llvm.lifetime.start.p0i8(i64 16, i8* %4) #25, !dbg !2264
  %5 = load i32, i32* %i, align 4, !dbg !2265, !tbaa !1164
  %call = call addrspace(1) %"class.aie::detail::vector.15" @_ZNK3aie6detail6vectorIfLj8EE7extractILj4EEENS1_IfXT_EEEj(%"class.aie::detail::vector"* nonnull dereferenceable(32) %value, i32 %5) #26, !dbg !2266
  %6 = getelementptr inbounds %"class.aie::detail::vector.15", %"class.aie::detail::vector.15"* %ref.tmp, i32 0, i32 0, !dbg !2266
  %7 = extractvalue %"class.aie::detail::vector.15" %call, 0, !dbg !2266
  store %struct.v4float %7, %struct.v4float* %6, align 16, !dbg !2266
  %call1 = call addrspace(1) %struct.v4float @_ZNK3aie6detail6vectorIfLj4EEcv7v4floatEv(%"class.aie::detail::vector.15"* nonnull dereferenceable(16) %ref.tmp) #26, !dbg !2264
  %8 = getelementptr inbounds %struct.v4float, %struct.v4float* %agg.tmp, i32 0, i32 0, !dbg !2264
  %9 = extractvalue %struct.v4float %call1, 0, !dbg !2264
  store %struct.ipd.custom_type.v16int8.v16int8 %9, %struct.ipd.custom_type.v16int8.v16int8* %8, align 16, !dbg !2264
  %10 = load %struct.v4float, %struct.v4float* %agg.tmp, align 16, !dbg !2267, !tbaa !2268
  call addrspace(1) void @_ZL9writeincrIL23aie_stream_resource_out0EEvP13output_streamIfE7v4floatb(%struct.output_stream.4* %3, %struct.v4float %10, i1 zeroext false) #26, !dbg !2267
  %11 = bitcast %"class.aie::detail::vector.15"* %ref.tmp to i8*, !dbg !2267
  call addrspace(1) void @llvm.lifetime.end.p0i8(i64 16, i8* %11) #25, !dbg !2267
  br label %for.inc, !dbg !2267

for.inc:                                          ; preds = %for.body
  %12 = load i32, i32* %i, align 4, !dbg !2270, !tbaa !1164
  %inc = add i32 %12, 1, !dbg !2270
  store i32 %inc, i32* %i, align 4, !dbg !2270, !tbaa !1164
  br label %for.cond, !dbg !2262, !llvm.loop !2271

for.end:                                          ; preds = %for.cond.cleanup
  ret void, !dbg !2274
}

; Function Attrs: alwaysinline nounwind mustprogress
define linkonce_odr dso_local %"class.aie::detail::vector.15" @_ZNK3aie6detail6vectorIfLj8EE7extractILj4EEENS1_IfXT_EEEj(%"class.aie::detail::vector"* nonnull dereferenceable(32) %this, i32 %idx) addrspace(1) #9 comdat align 2 !dbg !2275 {
entry:
  %retval = alloca %"class.aie::detail::vector.15", align 16
  %this.addr = alloca %"class.aie::detail::vector"*, align 4
  %idx.addr = alloca i32, align 4
  %output_bits = alloca i32, align 4
  %custom_type.tmp = alloca %"class.aie::detail::vector.15", align 16
  %tmp = alloca %struct.v4float, align 16
  %cleanup.dest.slot = alloca i32, align 4
  %shift_subvector = alloca i32, align 4
  %cint32_elems = alloca i32, align 4
  %tmp8 = alloca %"class.aie::detail::vector.10", align 32
  %custom_type.tmp9 = alloca %"class.aie::detail::vector.10", align 32
  %agg.tmp = alloca %struct.v8cint32, align 32
  %agg.tmp10 = alloca %struct.v8cint32, align 32
  %ref.tmp = alloca %"class.aie::detail::vector.10", align 32
  %ref.tmp11 = alloca %"class.aie::detail::vector.19", align 32
  %custom_type.tmp16 = alloca %"class.aie::detail::vector.15", align 16
  %agg.tmp17 = alloca %struct.v4float, align 16
  %ref.tmp18 = alloca %struct.v2cint32, align 16
  %agg.tmp19 = alloca %struct.v8cint32, align 32
  store %"class.aie::detail::vector"* %this, %"class.aie::detail::vector"** %this.addr, align 4, !tbaa !1217
  call addrspace(1) void @llvm.dbg.declare(metadata %"class.aie::detail::vector"** %this.addr, metadata !2354, metadata !DIExpression()), !dbg !2370
  store i32 %idx, i32* %idx.addr, align 4, !tbaa !1164
  call addrspace(1) void @llvm.dbg.declare(metadata i32* %idx.addr, metadata !2356, metadata !DIExpression()), !dbg !2371
  %this1 = load %"class.aie::detail::vector"*, %"class.aie::detail::vector"** %this.addr, align 4
  %0 = load i32, i32* %idx.addr, align 4, !dbg !2372, !tbaa !1164
  %cmp = icmp ult i32 %0, 2, !dbg !2372
  %1 = call addrspace(1) i1 @llvm.is.constant.i1(i1 %cmp), !dbg !2372
  br i1 %1, label %if.then, label %if.end4, !dbg !2374

if.then:                                          ; preds = %entry
  br label %do.body, !dbg !2375

do.body:                                          ; preds = %if.then
  %2 = load i32, i32* %idx.addr, align 4, !dbg !2377, !tbaa !1164
  %cmp2 = icmp ult i32 %2, 2, !dbg !2377
  %3 = call addrspace(1) i1 @llvm.chess_manifest(i1 %cmp2), !dbg !2377
  br i1 %3, label %if.end, label %if.then3, !dbg !2380

if.then3:                                         ; preds = %do.body
  call addrspace(1) void @llvm.chess_error(metadata !1713), !dbg !2377
  br label %if.end, !dbg !2377

if.end:                                           ; preds = %if.then3, %do.body
  br label %do.end, !dbg !2380

do.end:                                           ; preds = %if.end
  br label %if.end4, !dbg !2375

if.end4:                                          ; preds = %do.end, %entry
  %4 = load i32, i32* %idx.addr, align 4, !dbg !2374, !tbaa !1164
  %cmp5 = icmp ult i32 %4, 2, !dbg !2374
  call addrspace(1) void @llvm.assume(i1 %cmp5), !dbg !2374
  store i32 undef, i32* %output_bits, align 4, !dbg !2381
  %5 = bitcast i32* %output_bits to i8*, !dbg !2381
  call addrspace(1) void @llvm.lifetime.start.p0i8(i64 4, i8* %5) #25, !dbg !2381
  call addrspace(1) void @llvm.dbg.declare(metadata i32* %output_bits, metadata !2357, metadata !DIExpression()), !dbg !2382
  store i32 128, i32* %output_bits, align 4, !dbg !2382, !tbaa !1164
  call addrspace(1) void @llvm.dbg.declare(metadata %"class.aie::detail::vector.15"* %retval, metadata !2358, metadata !DIExpression()), !dbg !2383
  call addrspace(1) void @_ZN3aie6detail6vectorIfLj4EEC2Ev(%"class.aie::detail::vector.15"* nonnull dereferenceable(16) %custom_type.tmp) #26, !dbg !2383
  %6 = load %"class.aie::detail::vector.15", %"class.aie::detail::vector.15"* %custom_type.tmp, align 16, !dbg !2383, !tbaa !2384
  store %"class.aie::detail::vector.15" %6, %"class.aie::detail::vector.15"* %retval, align 16, !dbg !2383, !tbaa !2384
  %7 = load i32, i32* %idx.addr, align 4, !dbg !2386, !tbaa !1164
  %8 = call addrspace(1) i1 @llvm.is.constant.i32(i32 %7), !dbg !2387
  br i1 %8, label %if.then6, label %if.else, !dbg !2388

if.then6:                                         ; preds = %if.end4
  %data = getelementptr inbounds %"class.aie::detail::vector.15", %"class.aie::detail::vector.15"* %retval, i32 0, i32 0, !dbg !2389
  %9 = bitcast %struct.v4float* %tmp to i8*, !dbg !2395
  call addrspace(1) void @llvm.lifetime.start.p0i8(i64 16, i8* %9) #25, !dbg !2395
  %data7 = getelementptr inbounds %"class.aie::detail::vector", %"class.aie::detail::vector"* %this1, i32 0, i32 0, !dbg !2396
  %10 = load i32, i32* %idx.addr, align 4, !dbg !2397, !tbaa !1164
  %11 = load %struct.v8float, %struct.v8float* %data7, align 32, !dbg !2395, !tbaa !2398
  %call = call addrspace(1) %struct.v4float @_Z5ext_v7v8floati(%struct.v8float %11, i32 %10) #28, !dbg !2395
  %12 = getelementptr inbounds %struct.v4float, %struct.v4float* %tmp, i32 0, i32 0, !dbg !2395
  %13 = extractvalue %struct.v4float %call, 0, !dbg !2395
  store %struct.ipd.custom_type.v16int8.v16int8 %13, %struct.ipd.custom_type.v16int8.v16int8* %12, align 16, !dbg !2395
  %14 = load %struct.v4float, %struct.v4float* %tmp, align 16, !dbg !2395, !tbaa !2268
  store %struct.v4float %14, %struct.v4float* %data, align 16, !dbg !2395, !tbaa !2268
  %15 = bitcast %struct.v4float* %tmp to i8*, !dbg !2395
  call addrspace(1) void @llvm.lifetime.end.p0i8(i64 16, i8* %15) #25, !dbg !2395
  store i32 1, i32* %cleanup.dest.slot, align 4
  br label %cleanup, !dbg !2399

if.else:                                          ; preds = %if.end4
  store i32 undef, i32* %shift_subvector, align 4, !dbg !2400
  %16 = bitcast i32* %shift_subvector to i8*, !dbg !2400
  call addrspace(1) void @llvm.lifetime.start.p0i8(i64 4, i8* %16) #25, !dbg !2400
  call addrspace(1) void @llvm.dbg.declare(metadata i32* %shift_subvector, metadata !2361, metadata !DIExpression()), !dbg !2401
  store i32 2, i32* %shift_subvector, align 4, !dbg !2401, !tbaa !1164
  store i32 undef, i32* %cint32_elems, align 4, !dbg !2402
  %17 = bitcast i32* %cint32_elems to i8*, !dbg !2402
  call addrspace(1) void @llvm.lifetime.start.p0i8(i64 4, i8* %17) #25, !dbg !2402
  call addrspace(1) void @llvm.dbg.declare(metadata i32* %cint32_elems, metadata !2364, metadata !DIExpression()), !dbg !2403
  store i32 8, i32* %cint32_elems, align 4, !dbg !2403, !tbaa !1164
  store %"class.aie::detail::vector.10" undef, %"class.aie::detail::vector.10"* %tmp8, align 32, !dbg !2404
  %18 = bitcast %"class.aie::detail::vector.10"* %tmp8 to i8*, !dbg !2404
  call addrspace(1) void @llvm.lifetime.start.p0i8(i64 64, i8* %18) #25, !dbg !2404
  call addrspace(1) void @llvm.dbg.declare(metadata %"class.aie::detail::vector.10"* %tmp8, metadata !2369, metadata !DIExpression()), !dbg !2405
  %19 = bitcast %"class.aie::detail::vector.10"* %ref.tmp to i8*, !dbg !2406
  call addrspace(1) void @llvm.lifetime.start.p0i8(i64 64, i8* %19) #25, !dbg !2406
  %20 = bitcast %"class.aie::detail::vector.19"* %ref.tmp11 to i8*, !dbg !2406
  call addrspace(1) void @llvm.lifetime.start.p0i8(i64 32, i8* %20) #25, !dbg !2406
  %call12 = call addrspace(1) %"class.aie::detail::vector.19" @_ZNK3aie6detail6vectorIfLj8EE7cast_toI6cint32EEDav(%"class.aie::detail::vector"* nonnull dereferenceable(32) %this1) #26, !dbg !2406
  %21 = getelementptr inbounds %"class.aie::detail::vector.19", %"class.aie::detail::vector.19"* %ref.tmp11, i32 0, i32 0, !dbg !2406
  %22 = extractvalue %"class.aie::detail::vector.19" %call12, 0, !dbg !2406
  store %struct.v4cint32 %22, %struct.v4cint32* %21, align 32, !dbg !2406
  %call13 = call addrspace(1) %"class.aie::detail::vector.10" @_ZNK3aie6detail6vectorI6cint32Lj4EE4growILj8EEENS1_IS2_XT_EEEj(%"class.aie::detail::vector.19"* nonnull dereferenceable(32) %ref.tmp11, i32 0) #26, !dbg !2407
  %23 = getelementptr inbounds %"class.aie::detail::vector.10", %"class.aie::detail::vector.10"* %ref.tmp, i32 0, i32 0, !dbg !2407
  %24 = extractvalue %"class.aie::detail::vector.10" %call13, 0, !dbg !2407
  store %struct.v8cint32 %24, %struct.v8cint32* %23, align 32, !dbg !2407
  %call14 = call addrspace(1) %struct.v8cint32 @_ZNK3aie6detail6vectorI6cint32Lj8EEcv8v8cint32Ev(%"class.aie::detail::vector.10"* nonnull dereferenceable(64) %ref.tmp) #26, !dbg !2406
  %25 = getelementptr inbounds %struct.v8cint32, %struct.v8cint32* %agg.tmp10, i32 0, i32 0, !dbg !2406
  %26 = extractvalue %struct.v8cint32 %call14, 0, !dbg !2406
  store %struct.ipd.custom_type.v64int8.v64int8 %26, %struct.ipd.custom_type.v64int8.v64int8* %25, align 32, !dbg !2406
  %27 = load i32, i32* %idx.addr, align 4, !dbg !2408, !tbaa !1164
  %mul = mul i32 %27, 2, !dbg !2409
  %28 = load %struct.v8cint32, %struct.v8cint32* %agg.tmp10, align 32, !dbg !2410, !tbaa !1739
  %call15 = call addrspace(1) %struct.v8cint32 @_Z8shuffle88v8cint32ij(%struct.v8cint32 %28, i32 %mul, i32 16) #26, !dbg !2410
  %29 = getelementptr inbounds %struct.v8cint32, %struct.v8cint32* %agg.tmp, i32 0, i32 0, !dbg !2410
  %30 = extractvalue %struct.v8cint32 %call15, 0, !dbg !2410
  store %struct.ipd.custom_type.v64int8.v64int8 %30, %struct.ipd.custom_type.v64int8.v64int8* %29, align 32, !dbg !2410
  %31 = load %struct.v8cint32, %struct.v8cint32* %agg.tmp, align 32, !dbg !2410, !tbaa !1739
  call addrspace(1) void @_ZN3aie6detail6vectorI6cint32Lj8EEC2E8v8cint32(%"class.aie::detail::vector.10"* nonnull dereferenceable(64) %custom_type.tmp9, %struct.v8cint32 %31) #26, !dbg !2410
  %32 = load %"class.aie::detail::vector.10", %"class.aie::detail::vector.10"* %custom_type.tmp9, align 32, !dbg !2410, !tbaa !1740
  store %"class.aie::detail::vector.10" %32, %"class.aie::detail::vector.10"* %tmp8, align 32, !dbg !2410, !tbaa !1740
  %33 = bitcast %"class.aie::detail::vector.19"* %ref.tmp11 to i8*, !dbg !2410
  call addrspace(1) void @llvm.lifetime.end.p0i8(i64 32, i8* %33) #25, !dbg !2410
  %34 = bitcast %"class.aie::detail::vector.10"* %ref.tmp to i8*, !dbg !2410
  call addrspace(1) void @llvm.lifetime.end.p0i8(i64 64, i8* %34) #25, !dbg !2410
  %35 = bitcast %struct.v2cint32* %ref.tmp18 to i8*, !dbg !2411
  call addrspace(1) void @llvm.lifetime.start.p0i8(i64 16, i8* %35) #25, !dbg !2411
  %call20 = call addrspace(1) %struct.v8cint32 @_ZNK3aie6detail6vectorI6cint32Lj8EEcv8v8cint32Ev(%"class.aie::detail::vector.10"* nonnull dereferenceable(64) %tmp8) #26, !dbg !2412
  %36 = getelementptr inbounds %struct.v8cint32, %struct.v8cint32* %agg.tmp19, i32 0, i32 0, !dbg !2412
  %37 = extractvalue %struct.v8cint32 %call20, 0, !dbg !2412
  store %struct.ipd.custom_type.v64int8.v64int8 %37, %struct.ipd.custom_type.v64int8.v64int8* %36, align 32, !dbg !2412
  %38 = load %struct.v8cint32, %struct.v8cint32* %agg.tmp19, align 32, !dbg !2411, !tbaa !1739
  %call21 = call addrspace(1) %struct.v2cint32 @_Z5ext_v8v8cint32i(%struct.v8cint32 %38, i32 0) #28, !dbg !2411
  %39 = getelementptr inbounds %struct.v2cint32, %struct.v2cint32* %ref.tmp18, i32 0, i32 0, !dbg !2411
  %40 = extractvalue %struct.v2cint32 %call21, 0, !dbg !2411
  store %struct.ipd.custom_type.v16int8.v16int8 %40, %struct.ipd.custom_type.v16int8.v16int8* %39, align 16, !dbg !2411
  %call22 = call addrspace(1) %struct.v4float @_ZN3aie6detailL18vector_cast_helperIfLj4E8v2cint32EENS0_14vector_storageIT_XT0_EE4typeEOT1_(%struct.v2cint32* nonnull align 16 dereferenceable(16) %ref.tmp18) #26, !dbg !2413
  %41 = getelementptr inbounds %struct.v4float, %struct.v4float* %agg.tmp17, i32 0, i32 0, !dbg !2413
  %42 = extractvalue %struct.v4float %call22, 0, !dbg !2413
  store %struct.ipd.custom_type.v16int8.v16int8 %42, %struct.ipd.custom_type.v16int8.v16int8* %41, align 16, !dbg !2413
  %43 = load %struct.v4float, %struct.v4float* %agg.tmp17, align 16, !dbg !2413, !tbaa !2268
  call addrspace(1) void @_ZN3aie6detail6vectorIfLj4EEC2E7v4float(%"class.aie::detail::vector.15"* nonnull dereferenceable(16) %custom_type.tmp16, %struct.v4float %43) #26, !dbg !2413
  %44 = load %"class.aie::detail::vector.15", %"class.aie::detail::vector.15"* %custom_type.tmp16, align 16, !dbg !2413, !tbaa !2384
  store %"class.aie::detail::vector.15" %44, %"class.aie::detail::vector.15"* %retval, align 16, !dbg !2413, !tbaa !2384
  %45 = bitcast %struct.v2cint32* %ref.tmp18 to i8*, !dbg !2414
  call addrspace(1) void @llvm.lifetime.end.p0i8(i64 16, i8* %45) #25, !dbg !2414
  %46 = bitcast %"class.aie::detail::vector.10"* %tmp8 to i8*, !dbg !2415
  call addrspace(1) void @llvm.lifetime.end.p0i8(i64 64, i8* %46) #25, !dbg !2415
  %47 = bitcast i32* %cint32_elems to i8*, !dbg !2415
  call addrspace(1) void @llvm.lifetime.end.p0i8(i64 4, i8* %47) #25, !dbg !2415
  %48 = bitcast i32* %shift_subvector to i8*, !dbg !2416
  call addrspace(1) void @llvm.lifetime.end.p0i8(i64 4, i8* %48) #25, !dbg !2416
  br label %if.end23

if.end23:                                         ; preds = %if.else
  store i32 1, i32* %cleanup.dest.slot, align 4
  br label %cleanup, !dbg !2417

cleanup:                                          ; preds = %if.end23, %if.then6
  %49 = bitcast i32* %output_bits to i8*, !dbg !2418
  call addrspace(1) void @llvm.lifetime.end.p0i8(i64 4, i8* %49) #25, !dbg !2418
  %50 = load %"class.aie::detail::vector.15", %"class.aie::detail::vector.15"* %retval, align 16, !dbg !2418
  ret %"class.aie::detail::vector.15" %50, !dbg !2418
}

; Function Attrs: alwaysinline nounwind mustprogress
define linkonce_odr dso_local %struct.v4float @_ZNK3aie6detail6vectorIfLj4EEcv7v4floatEv(%"class.aie::detail::vector.15"* nonnull dereferenceable(16) %this) addrspace(1) #9 comdat align 2 !dbg !2419 {
entry:
  %retval = alloca %struct.v4float, align 16
  %this.addr = alloca %"class.aie::detail::vector.15"*, align 4
  store %"class.aie::detail::vector.15"* %this, %"class.aie::detail::vector.15"** %this.addr, align 4, !tbaa !1217
  call addrspace(1) void @llvm.dbg.declare(metadata %"class.aie::detail::vector.15"** %this.addr, metadata !2421, metadata !DIExpression()), !dbg !2423
  %this1 = load %"class.aie::detail::vector.15"*, %"class.aie::detail::vector.15"** %this.addr, align 4
  %call = call addrspace(1) %struct.v4float @_ZNK3aie6detail6vectorIfLj4EE9to_nativeEv(%"class.aie::detail::vector.15"* nonnull dereferenceable(16) %this1) #26, !dbg !2424
  %0 = getelementptr inbounds %struct.v4float, %struct.v4float* %retval, i32 0, i32 0, !dbg !2424
  %1 = extractvalue %struct.v4float %call, 0, !dbg !2424
  store %struct.ipd.custom_type.v16int8.v16int8 %1, %struct.ipd.custom_type.v16int8.v16int8* %0, align 16, !dbg !2424
  %2 = load %struct.v4float, %struct.v4float* %retval, align 16, !dbg !2425
  ret %struct.v4float %2, !dbg !2425
}

; Function Attrs: inlinehint nounwind mustprogress
define internal void @_ZL9writeincrIL23aie_stream_resource_out0EEvP13output_streamIfE7v4floatb(%struct.output_stream.4* %str, %struct.v4float %value.coerce, i1 zeroext %tlast) addrspace(1) #20 !dbg !2426 {
entry:
  %value = alloca %struct.v4float, align 16
  %str.addr = alloca %struct.output_stream.4*, align 4
  %tlast.addr = alloca i8, align 1
  %agg.tmp = alloca %struct.v8int16, align 16
  store %struct.v4float %value.coerce, %struct.v4float* %value, align 16
  store %struct.output_stream.4* %str, %struct.output_stream.4** %str.addr, align 4, !tbaa !1217
  call addrspace(1) void @llvm.dbg.declare(metadata %struct.output_stream.4** %str.addr, metadata !2433, metadata !DIExpression()), !dbg !2437
  call addrspace(1) void @llvm.dbg.declare(metadata %struct.v4float* %value, metadata !2434, metadata !DIExpression()), !dbg !2437
  %frombool = zext i1 %tlast to i8
  store i8 %frombool, i8* %tlast.addr, align 1, !tbaa !2438
  call addrspace(1) void @llvm.dbg.declare(metadata i8* %tlast.addr, metadata !2435, metadata !DIExpression()), !dbg !2437
  %0 = load %struct.output_stream.4*, %struct.output_stream.4** %str.addr, align 4, !dbg !2437, !tbaa !1217
  %1 = bitcast %struct.output_stream.4* %0 to %struct.output_stream.17*, !dbg !2437
  %2 = load %struct.v4float, %struct.v4float* %value, align 16, !dbg !2437, !tbaa !2268
  %call = call addrspace(1) %struct.v8int16 @_Z10as_v8int167v4float(%struct.v4float %2) #26, !dbg !2437
  %3 = getelementptr inbounds %struct.v8int16, %struct.v8int16* %agg.tmp, i32 0, i32 0, !dbg !2437
  %4 = extractvalue %struct.v8int16 %call, 0, !dbg !2437
  store %struct.ipd.custom_type.v16int8.v16int8 %4, %struct.ipd.custom_type.v16int8.v16int8* %3, align 16, !dbg !2437
  %5 = load i8, i8* %tlast.addr, align 1, !dbg !2437, !tbaa !2438, !range !2440
  %tobool = trunc i8 %5 to i1, !dbg !2437
  %6 = load %struct.v8int16, %struct.v8int16* %agg.tmp, align 16, !dbg !2437, !tbaa !2268
  call addrspace(1) void @_ZL9writeincrIL23aie_stream_resource_out0EEvP13output_streamIsE7v8int16b(%struct.output_stream.17* %1, %struct.v8int16 %6, i1 zeroext %tobool) #26, !dbg !2437
  ret void, !dbg !2437
}

; Function Attrs: alwaysinline nounwind mustprogress
define linkonce_odr dso_local %struct.v8int16 @_Z10as_v8int167v4float(%struct.v4float %a.coerce) addrspace(1) #9 comdat {
entry:
  %a = alloca %struct.v4float, align 16
  %custom_type.tmp = alloca %struct.v8int16, align 16
  store %struct.v4float %a.coerce, %struct.v4float* %a, align 16
  %mw = getelementptr inbounds %struct.v4float, %struct.v4float* %a, i32 0, i32 0
  %0 = load %struct.ipd.custom_type.v16int8.v16int8, %struct.ipd.custom_type.v16int8.v16int8* %mw, align 16, !tbaa !2268
  call addrspace(1) void @_ZN7v8int16C2E17chessllvmInternal7v16int8(%struct.v8int16* nonnull dereferenceable(16) %custom_type.tmp, i32 0, %struct.ipd.custom_type.v16int8.v16int8 %0) #26
  %1 = load %struct.v8int16, %struct.v8int16* %custom_type.tmp, align 16, !tbaa !2268
  ret %struct.v8int16 %1
}

; Function Attrs: inlinehint nounwind mustprogress
define internal void @_ZL9writeincrIL23aie_stream_resource_out0EEvP13output_streamIsE7v8int16b(%struct.output_stream.17* %ss, %struct.v8int16 %value.coerce, i1 zeroext %tlast) addrspace(1) #20 !dbg !2441 {
entry:
  %value = alloca %struct.v8int16, align 16
  %ss.addr = alloca %struct.output_stream.17*, align 4
  %tlast.addr = alloca i8, align 1
  store %struct.v8int16 %value.coerce, %struct.v8int16* %value, align 16
  store %struct.output_stream.17* %ss, %struct.output_stream.17** %ss.addr, align 4, !tbaa !1217
  call addrspace(1) void @llvm.dbg.declare(metadata %struct.output_stream.17** %ss.addr, metadata !2445, metadata !DIExpression()), !dbg !2450
  call addrspace(1) void @llvm.dbg.declare(metadata %struct.v8int16* %value, metadata !2446, metadata !DIExpression()), !dbg !2451
  %frombool = zext i1 %tlast to i8
  store i8 %frombool, i8* %tlast.addr, align 1, !tbaa !2438
  call addrspace(1) void @llvm.dbg.declare(metadata i8* %tlast.addr, metadata !2447, metadata !DIExpression()), !dbg !2452
  %0 = load %struct.output_stream.17*, %struct.output_stream.17** %ss.addr, align 4, !dbg !2453, !tbaa !1217
  %1 = load %struct.v8int16, %struct.v8int16* %value, align 16, !dbg !2454, !tbaa !2268
  call addrspace(1) void @_ZN12stream_utilsL18aie_stream_put_wmsIsEEvP13output_streamIsE7v8int16Rb(%struct.output_stream.17* %0, %struct.v8int16 %1, i8* nonnull align 1 dereferenceable(1) %tlast.addr) #26, !dbg !2454
  ret void, !dbg !2455
}

; Function Attrs: inlinehint nounwind mustprogress
define internal void @_ZN12stream_utilsL18aie_stream_put_wmsIsEEvP13output_streamIsE7v8int16Rb(%struct.output_stream.17* %ss, %struct.v8int16 %value.coerce, i8* nonnull align 1 dereferenceable(1) %tlast) addrspace(1) #20 !dbg !2456 {
entry:
  %value = alloca %struct.v8int16, align 16
  %ss.addr = alloca %struct.output_stream.17*, align 4
  %tlast.addr = alloca i8*, align 4
  store %struct.v8int16 %value.coerce, %struct.v8int16* %value, align 16
  store %struct.output_stream.17* %ss, %struct.output_stream.17** %ss.addr, align 4, !tbaa !1217
  call addrspace(1) void @llvm.dbg.declare(metadata %struct.output_stream.17** %ss.addr, metadata !2462, metadata !DIExpression()), !dbg !2465
  call addrspace(1) void @llvm.dbg.declare(metadata %struct.v8int16* %value, metadata !2463, metadata !DIExpression()), !dbg !2466
  store i8* %tlast, i8** %tlast.addr, align 4, !tbaa !1217
  call addrspace(1) void @llvm.dbg.declare(metadata i8** %tlast.addr, metadata !2464, metadata !DIExpression()), !dbg !2467
  %0 = load %struct.output_stream.17*, %struct.output_stream.17** %ss.addr, align 4, !dbg !2468, !tbaa !1217
  %1 = getelementptr inbounds %struct.output_stream.17, %struct.output_stream.17* %0, i32 0, i32 0, !dbg !2471
  %channel = bitcast %union.anon.1* %1 to i32*, !dbg !2471
  %2 = load i32, i32* %channel, align 4, !dbg !2471, !tbaa !1221
  %3 = load i8*, i8** %tlast.addr, align 4, !dbg !2472, !tbaa !1217
  %4 = load i8, i8* %3, align 1, !dbg !2472, !tbaa !2438, !range !2440
  %tobool = trunc i8 %4 to i1, !dbg !2472
  %conv = zext i1 %tobool to i32, !dbg !2472
  %5 = load %struct.v8int16, %struct.v8int16* %value, align 16, !dbg !2473, !tbaa !2268
  call addrspace(1) void @_Z7put_wmsi7v8int16i(i32 %2, %struct.v8int16 %5, i32 %conv) #31, !dbg !2473
  ret void, !dbg !2474
}

; Function Attrs: alwaysinline nounwind mustprogress
define linkonce_odr dso_local void @_Z7put_wmsi7v8int16i(i32 %idx_ms, %struct.v8int16 %a.coerce, i32 %tlast) addrspace(1) #21 comdat {
entry:
  %a = alloca %struct.v8int16, align 16
  %idx_ms.addr = alloca i32, align 4
  %tlast.addr = alloca i32, align 4
  %agg.tmp = alloca %struct.v4int32, align 16
  store %struct.v8int16 %a.coerce, %struct.v8int16* %a, align 16
  store i32 %idx_ms, i32* %idx_ms.addr, align 4, !tbaa !1164
  store i32 %tlast, i32* %tlast.addr, align 4, !tbaa !1164
  %0 = load i32, i32* %idx_ms.addr, align 4, !tbaa !1164
  %1 = load %struct.v8int16, %struct.v8int16* %a, align 16, !tbaa !2268
  %call = call addrspace(1) %struct.v4int32 @_Z10as_v4int327v8int16(%struct.v8int16 %1) #26
  %2 = getelementptr inbounds %struct.v4int32, %struct.v4int32* %agg.tmp, i32 0, i32 0
  %3 = extractvalue %struct.v4int32 %call, 0
  store %struct.ipd.custom_type.v16int8.v16int8 %3, %struct.ipd.custom_type.v16int8.v16int8* %2, align 16
  %4 = load i32, i32* %tlast.addr, align 4, !tbaa !1164
  %5 = load %struct.v4int32, %struct.v4int32* %agg.tmp, align 16, !tbaa !2268
  call addrspace(1) void @_Z7put_wmsi7v4int32i(i32 %0, %struct.v4int32 %5, i32 %4) #32
  ret void
}

; Function Attrs: alwaysinline nounwind mustprogress
define linkonce_odr dso_local %struct.v4int32 @_Z10as_v4int327v8int16(%struct.v8int16 %a.coerce) addrspace(1) #9 comdat {
entry:
  %a = alloca %struct.v8int16, align 16
  %custom_type.tmp = alloca %struct.v4int32, align 16
  store %struct.v8int16 %a.coerce, %struct.v8int16* %a, align 16
  %mw = getelementptr inbounds %struct.v8int16, %struct.v8int16* %a, i32 0, i32 0
  %0 = load %struct.ipd.custom_type.v16int8.v16int8, %struct.ipd.custom_type.v16int8.v16int8* %mw, align 16, !tbaa !2268
  call addrspace(1) void @_ZN7v4int32C2E17chessllvmInternal7v16int8(%struct.v4int32* nonnull dereferenceable(16) %custom_type.tmp, i32 0, %struct.ipd.custom_type.v16int8.v16int8 %0) #26
  %1 = load %struct.v4int32, %struct.v4int32* %custom_type.tmp, align 16, !tbaa !2268
  ret %struct.v4int32 %1
}

; Function Attrs: alwaysinline nounwind mustprogress
define linkonce_odr dso_local void @_Z7put_wmsi7v4int32i(i32 %idx_ms, %struct.v4int32 %val.coerce, i32 %tlast) addrspace(1) #22 comdat {
entry:
  %val = alloca %struct.v4int32, align 16
  %idx_ms.addr = alloca i32, align 4
  %tlast.addr = alloca i32, align 4
  %agg.tmp = alloca %struct.ipd.custom_type.uint1_t.uint1_t, align 4
  %custom_type.tmp = alloca %struct.ipd.custom_type.uint1_t.uint1_t, align 4
  %agg.tmp1 = alloca %struct.ipd.custom_type.uint1_t.uint1_t, align 4
  %custom_type.tmp2 = alloca %struct.ipd.custom_type.uint1_t.uint1_t, align 4
  %agg.tmp5 = alloca %struct.ipd.custom_type.uint1_t.uint1_t, align 4
  %custom_type.tmp6 = alloca %struct.ipd.custom_type.uint1_t.uint1_t, align 4
  %agg.tmp7 = alloca %struct.ipd.custom_type.uint1_t.uint1_t, align 4
  %custom_type.tmp8 = alloca %struct.ipd.custom_type.uint1_t.uint1_t, align 4
  %agg.tmp10 = alloca %struct.ipd.custom_type.uint1_t.uint1_t, align 4
  %custom_type.tmp11 = alloca %struct.ipd.custom_type.uint1_t.uint1_t, align 4
  %agg.tmp12 = alloca %struct.ipd.custom_type.uint1_t.uint1_t, align 4
  %custom_type.tmp13 = alloca %struct.ipd.custom_type.uint1_t.uint1_t, align 4
  store %struct.v4int32 %val.coerce, %struct.v4int32* %val, align 16
  store i32 %idx_ms, i32* %idx_ms.addr, align 4, !tbaa !1164
  store i32 %tlast, i32* %tlast.addr, align 4, !tbaa !1164
  %0 = load i32, i32* %idx_ms.addr, align 4, !tbaa !1164
  %cmp = icmp eq i32 %0, 0
  %1 = call addrspace(1) i1 @llvm.chess_manifest(i1 %cmp)
  br i1 %1, label %if.then, label %if.else

if.then:                                          ; preds = %entry
  call addrspace(1) void @_ZN7uint1_tC2Ei(%struct.ipd.custom_type.uint1_t.uint1_t* nonnull dereferenceable(1) %custom_type.tmp, i32 0) #26
  %2 = load %struct.ipd.custom_type.uint1_t.uint1_t, %struct.ipd.custom_type.uint1_t.uint1_t* %custom_type.tmp, align 4, !tbaa !2475
  store %struct.ipd.custom_type.uint1_t.uint1_t %2, %struct.ipd.custom_type.uint1_t.uint1_t* %agg.tmp, align 4, !tbaa !2475
  %3 = load i32, i32* %tlast.addr, align 4, !tbaa !1164
  call addrspace(1) void @_ZN7uint1_tC2Ei(%struct.ipd.custom_type.uint1_t.uint1_t* nonnull dereferenceable(1) %custom_type.tmp2, i32 %3) #26
  %4 = load %struct.ipd.custom_type.uint1_t.uint1_t, %struct.ipd.custom_type.uint1_t.uint1_t* %custom_type.tmp2, align 4, !tbaa !2475
  store %struct.ipd.custom_type.uint1_t.uint1_t %4, %struct.ipd.custom_type.uint1_t.uint1_t* %agg.tmp1, align 4, !tbaa !2475
  %5 = load %struct.v4int32, %struct.v4int32* %val, align 16, !tbaa !2268
  %6 = load %struct.ipd.custom_type.uint1_t.uint1_t, %struct.ipd.custom_type.uint1_t.uint1_t* %agg.tmp, align 4, !tbaa !2475
  %7 = load %struct.ipd.custom_type.uint1_t.uint1_t, %struct.ipd.custom_type.uint1_t.uint1_t* %agg.tmp1, align 4, !tbaa !2475
  call addrspace(1) void @_ZN12me_primitive15stream_write128EPU4AS23U16__protect_accessi7v4int327uint1_tS3_(i32 addrspace(23)* @_ZN12me_primitive3ms0E, %struct.v4int32 %5, %struct.ipd.custom_type.uint1_t.uint1_t %6, %struct.ipd.custom_type.uint1_t.uint1_t %7) #33
  br label %if.end14

if.else:                                          ; preds = %entry
  %8 = load i32, i32* %idx_ms.addr, align 4, !tbaa !1164
  %cmp3 = icmp eq i32 %8, 1
  %9 = call addrspace(1) i1 @llvm.chess_manifest(i1 %cmp3)
  br i1 %9, label %if.then4, label %if.else9

if.then4:                                         ; preds = %if.else
  call addrspace(1) void @_ZN7uint1_tC2Ei(%struct.ipd.custom_type.uint1_t.uint1_t* nonnull dereferenceable(1) %custom_type.tmp6, i32 0) #26
  %10 = load %struct.ipd.custom_type.uint1_t.uint1_t, %struct.ipd.custom_type.uint1_t.uint1_t* %custom_type.tmp6, align 4, !tbaa !2475
  store %struct.ipd.custom_type.uint1_t.uint1_t %10, %struct.ipd.custom_type.uint1_t.uint1_t* %agg.tmp5, align 4, !tbaa !2475
  %11 = load i32, i32* %tlast.addr, align 4, !tbaa !1164
  call addrspace(1) void @_ZN7uint1_tC2Ei(%struct.ipd.custom_type.uint1_t.uint1_t* nonnull dereferenceable(1) %custom_type.tmp8, i32 %11) #26
  %12 = load %struct.ipd.custom_type.uint1_t.uint1_t, %struct.ipd.custom_type.uint1_t.uint1_t* %custom_type.tmp8, align 4, !tbaa !2475
  store %struct.ipd.custom_type.uint1_t.uint1_t %12, %struct.ipd.custom_type.uint1_t.uint1_t* %agg.tmp7, align 4, !tbaa !2475
  %13 = load %struct.v4int32, %struct.v4int32* %val, align 16, !tbaa !2268
  %14 = load %struct.ipd.custom_type.uint1_t.uint1_t, %struct.ipd.custom_type.uint1_t.uint1_t* %agg.tmp5, align 4, !tbaa !2475
  %15 = load %struct.ipd.custom_type.uint1_t.uint1_t, %struct.ipd.custom_type.uint1_t.uint1_t* %agg.tmp7, align 4, !tbaa !2475
  call addrspace(1) void @_ZN12me_primitive15stream_write128EPU4AS24U16__protect_accessi7v4int327uint1_tS3_(i32 addrspace(24)* @_ZN12me_primitive3ms1E, %struct.v4int32 %13, %struct.ipd.custom_type.uint1_t.uint1_t %14, %struct.ipd.custom_type.uint1_t.uint1_t %15) #33
  br label %if.end

if.else9:                                         ; preds = %if.else
  %16 = load i32, i32* %idx_ms.addr, align 4, !tbaa !1164
  %conv = trunc i32 %16 to i1
  %17 = inttoptr i1 %conv to i32 addrspace(12)*
  call addrspace(1) void @_ZN7uint1_tC2Ei(%struct.ipd.custom_type.uint1_t.uint1_t* nonnull dereferenceable(1) %custom_type.tmp11, i32 0) #26
  %18 = load %struct.ipd.custom_type.uint1_t.uint1_t, %struct.ipd.custom_type.uint1_t.uint1_t* %custom_type.tmp11, align 4, !tbaa !2475
  store %struct.ipd.custom_type.uint1_t.uint1_t %18, %struct.ipd.custom_type.uint1_t.uint1_t* %agg.tmp10, align 4, !tbaa !2475
  %19 = load i32, i32* %tlast.addr, align 4, !tbaa !1164
  call addrspace(1) void @_ZN7uint1_tC2Ei(%struct.ipd.custom_type.uint1_t.uint1_t* nonnull dereferenceable(1) %custom_type.tmp13, i32 %19) #26
  %20 = load %struct.ipd.custom_type.uint1_t.uint1_t, %struct.ipd.custom_type.uint1_t.uint1_t* %custom_type.tmp13, align 4, !tbaa !2475
  store %struct.ipd.custom_type.uint1_t.uint1_t %20, %struct.ipd.custom_type.uint1_t.uint1_t* %agg.tmp12, align 4, !tbaa !2475
  %21 = load %struct.v4int32, %struct.v4int32* %val, align 16, !tbaa !2268
  %22 = load %struct.ipd.custom_type.uint1_t.uint1_t, %struct.ipd.custom_type.uint1_t.uint1_t* %agg.tmp10, align 4, !tbaa !2475
  %23 = load %struct.ipd.custom_type.uint1_t.uint1_t, %struct.ipd.custom_type.uint1_t.uint1_t* %agg.tmp12, align 4, !tbaa !2475
  call addrspace(1) void @_ZN12me_primitive15stream_write128EPU4AS12U16__protect_accessi7v4int327uint1_tS3_(i32 addrspace(12)* %17, %struct.v4int32 %21, %struct.ipd.custom_type.uint1_t.uint1_t %22, %struct.ipd.custom_type.uint1_t.uint1_t %23) #33
  br label %if.end

if.end:                                           ; preds = %if.else9, %if.then4
  br label %if.end14

if.end14:                                         ; preds = %if.end, %if.then
  ret void
}

; Function Attrs: alwaysinline nounwind
define linkonce_odr dso_local void @_ZN7uint1_tC2Ei(%struct.ipd.custom_type.uint1_t.uint1_t* nonnull dereferenceable(1) %this, i32 %a) unnamed_addr addrspace(1) #11 comdat align 2 {
entry:
  %this.addr = alloca %struct.ipd.custom_type.uint1_t.uint1_t*, align 4
  %a.addr = alloca i32, align 4
  store %struct.ipd.custom_type.uint1_t.uint1_t* %this, %struct.ipd.custom_type.uint1_t.uint1_t** %this.addr, align 4, !tbaa !1217
  store i32 %a, i32* %a.addr, align 4, !tbaa !1164
  %this1 = load %struct.ipd.custom_type.uint1_t.uint1_t*, %struct.ipd.custom_type.uint1_t.uint1_t** %this.addr, align 4
  %0 = bitcast %struct.ipd.custom_type.uint1_t.uint1_t* %this1 to i8*
  %bf.load = load i8, i8* %0, align 4
  %bf.clear = and i8 %bf.load, -2
  store i8 %bf.clear, i8* %0, align 4
  %1 = load i32, i32* %a.addr, align 4, !tbaa !1164
  %2 = call addrspace(1) %struct.ipd.custom_type.uint1_t.uint1_t @llvm.chess.init.customint.s_struct.ipd.custom_type.uint1_t.uint1_ts.i32.p1f_s_struct.ipd.custom_type.uint1_t.uint1_tsi32f(%struct.ipd.custom_type.uint1_t.uint1_t undef, i32 %1, i32 1, i32 32, i1 true, i32 0, %struct.ipd.custom_type.uint1_t.uint1_t (i32) addrspace(1)* @__regcall3__chessintr_uint1_t_uint1_t___sint)
  store %struct.ipd.custom_type.uint1_t.uint1_t %2, %struct.ipd.custom_type.uint1_t.uint1_t* %this1, align 4
  ret void
}

; Function Attrs: alwaysinline nounwind mustprogress
define linkonce_odr dso_local void @_ZN12me_primitive15stream_write128EPU4AS23U16__protect_accessi7v4int327uint1_tS3_(i32 addrspace(23)* %a0, %struct.v4int32 %a1.coerce, %struct.ipd.custom_type.uint1_t.uint1_t %a2.coerce, %struct.ipd.custom_type.uint1_t.uint1_t %a3.coerce) addrspace(1) #10 comdat {
entry:
  %a1 = alloca %struct.v4int32, align 16
  %a2 = alloca %struct.ipd.custom_type.uint1_t.uint1_t, align 4
  %a3 = alloca %struct.ipd.custom_type.uint1_t.uint1_t, align 4
  %a0.addr = alloca i32 addrspace(23)*, align 4
  store %struct.v4int32 %a1.coerce, %struct.v4int32* %a1, align 16
  store %struct.ipd.custom_type.uint1_t.uint1_t %a2.coerce, %struct.ipd.custom_type.uint1_t.uint1_t* %a2, align 4
  store %struct.ipd.custom_type.uint1_t.uint1_t %a3.coerce, %struct.ipd.custom_type.uint1_t.uint1_t* %a3, align 4
  store i32 addrspace(23)* %a0, i32 addrspace(23)** %a0.addr, align 4, !tbaa !1217
  %0 = load i32 addrspace(23)*, i32 addrspace(23)** %a0.addr, align 4, !tbaa !1217
  %1 = load %struct.v4int32, %struct.v4int32* %a1, align 16, !tbaa !2268
  %2 = load %struct.ipd.custom_type.uint1_t.uint1_t, %struct.ipd.custom_type.uint1_t.uint1_t* %a2, align 4, !tbaa !2475
  %3 = load %struct.ipd.custom_type.uint1_t.uint1_t, %struct.ipd.custom_type.uint1_t.uint1_t* %a3, align 4, !tbaa !2475
  call x86_regcallcc addrspace(1) void @__regcall3__chessintr_void_stream_write128___PWMS_rsrc1__sint_v4int32_uint1_t_uint1_t(i32 addrspace(23)* "ipd_store"="0,4" %0, %struct.v4int32 %1, %struct.ipd.custom_type.uint1_t.uint1_t %2, %struct.ipd.custom_type.uint1_t.uint1_t %3) #34
  ret void
}

; Function Attrs: alwaysinline nounwind mustprogress
define linkonce_odr dso_local void @_ZN12me_primitive15stream_write128EPU4AS24U16__protect_accessi7v4int327uint1_tS3_(i32 addrspace(24)* %a0, %struct.v4int32 %a1.coerce, %struct.ipd.custom_type.uint1_t.uint1_t %a2.coerce, %struct.ipd.custom_type.uint1_t.uint1_t %a3.coerce) addrspace(1) #10 comdat {
entry:
  %a1 = alloca %struct.v4int32, align 16
  %a2 = alloca %struct.ipd.custom_type.uint1_t.uint1_t, align 4
  %a3 = alloca %struct.ipd.custom_type.uint1_t.uint1_t, align 4
  %a0.addr = alloca i32 addrspace(24)*, align 4
  store %struct.v4int32 %a1.coerce, %struct.v4int32* %a1, align 16
  store %struct.ipd.custom_type.uint1_t.uint1_t %a2.coerce, %struct.ipd.custom_type.uint1_t.uint1_t* %a2, align 4
  store %struct.ipd.custom_type.uint1_t.uint1_t %a3.coerce, %struct.ipd.custom_type.uint1_t.uint1_t* %a3, align 4
  store i32 addrspace(24)* %a0, i32 addrspace(24)** %a0.addr, align 4, !tbaa !1217
  %0 = load i32 addrspace(24)*, i32 addrspace(24)** %a0.addr, align 4, !tbaa !1217
  %1 = load %struct.v4int32, %struct.v4int32* %a1, align 16, !tbaa !2268
  %2 = load %struct.ipd.custom_type.uint1_t.uint1_t, %struct.ipd.custom_type.uint1_t.uint1_t* %a2, align 4, !tbaa !2475
  %3 = load %struct.ipd.custom_type.uint1_t.uint1_t, %struct.ipd.custom_type.uint1_t.uint1_t* %a3, align 4, !tbaa !2475
  call x86_regcallcc addrspace(1) void @__regcall3__chessintr_void_stream_write128___PWMS_rsrc2__sint_v4int32_uint1_t_uint1_t(i32 addrspace(24)* "ipd_store"="0,4" %0, %struct.v4int32 %1, %struct.ipd.custom_type.uint1_t.uint1_t %2, %struct.ipd.custom_type.uint1_t.uint1_t %3) #34
  ret void
}

; Function Attrs: alwaysinline nounwind mustprogress
define linkonce_odr dso_local void @_ZN12me_primitive15stream_write128EPU4AS12U16__protect_accessi7v4int327uint1_tS3_(i32 addrspace(12)* %a0, %struct.v4int32 %a1.coerce, %struct.ipd.custom_type.uint1_t.uint1_t %a2.coerce, %struct.ipd.custom_type.uint1_t.uint1_t %a3.coerce) addrspace(1) #10 comdat {
entry:
  %a1 = alloca %struct.v4int32, align 16
  %a2 = alloca %struct.ipd.custom_type.uint1_t.uint1_t, align 4
  %a3 = alloca %struct.ipd.custom_type.uint1_t.uint1_t, align 4
  %a0.addr = alloca i32 addrspace(12)*, align 4
  store %struct.v4int32 %a1.coerce, %struct.v4int32* %a1, align 16
  store %struct.ipd.custom_type.uint1_t.uint1_t %a2.coerce, %struct.ipd.custom_type.uint1_t.uint1_t* %a2, align 4
  store %struct.ipd.custom_type.uint1_t.uint1_t %a3.coerce, %struct.ipd.custom_type.uint1_t.uint1_t* %a3, align 4
  store i32 addrspace(12)* %a0, i32 addrspace(12)** %a0.addr, align 4, !tbaa !1217
  %0 = load i32 addrspace(12)*, i32 addrspace(12)** %a0.addr, align 4, !tbaa !1217
  %1 = load %struct.v4int32, %struct.v4int32* %a1, align 16, !tbaa !2268
  %2 = load %struct.ipd.custom_type.uint1_t.uint1_t, %struct.ipd.custom_type.uint1_t.uint1_t* %a2, align 4, !tbaa !2475
  %3 = load %struct.ipd.custom_type.uint1_t.uint1_t, %struct.ipd.custom_type.uint1_t.uint1_t* %a3, align 4, !tbaa !2475
  call x86_regcallcc addrspace(1) void @__regcall3__chessintr_void_stream_write128___PWMSMEM__sint_v4int32_uint1_t_uint1_t(i32 addrspace(12)* "ipd_store"="0,4" %0, %struct.v4int32 %1, %struct.ipd.custom_type.uint1_t.uint1_t %2, %struct.ipd.custom_type.uint1_t.uint1_t %3) #34
  ret void
}

; Function Attrs: argmemonly nounwind
declare dso_local x86_regcallcc void @__regcall3__chessintr_void_stream_write128___PWMSMEM__sint_v4int32_uint1_t_uint1_t(i32 addrspace(12)* "ipd_store"="0,4", %struct.v4int32, %struct.ipd.custom_type.uint1_t.uint1_t, %struct.ipd.custom_type.uint1_t.uint1_t) addrspace(1) #23

; Function Attrs: argmemonly nounwind
declare dso_local x86_regcallcc void @__regcall3__chessintr_void_stream_write128___PWMS_rsrc2__sint_v4int32_uint1_t_uint1_t(i32 addrspace(24)* "ipd_store"="0,4", %struct.v4int32, %struct.ipd.custom_type.uint1_t.uint1_t, %struct.ipd.custom_type.uint1_t.uint1_t) addrspace(1) #23

; Function Attrs: argmemonly nounwind
declare dso_local x86_regcallcc void @__regcall3__chessintr_void_stream_write128___PWMS_rsrc1__sint_v4int32_uint1_t_uint1_t(i32 addrspace(23)* "ipd_store"="0,4", %struct.v4int32, %struct.ipd.custom_type.uint1_t.uint1_t, %struct.ipd.custom_type.uint1_t.uint1_t) addrspace(1) #23

; Function Attrs: nounwind readnone willreturn
declare dso_local x86_regcallcc %struct.ipd.custom_type.uint1_t.uint1_t @__regcall3__chessintr_uint1_t_uint1_t___sint(i32 signext) addrspace(1) #13

; Function Attrs: nounwind readnone willreturn
declare %struct.ipd.custom_type.uint1_t.uint1_t @llvm.chess.init.customint.s_struct.ipd.custom_type.uint1_t.uint1_ts.i32.p1f_s_struct.ipd.custom_type.uint1_t.uint1_tsi32f(%struct.ipd.custom_type.uint1_t.uint1_t, i32, i32, i32, i1, i32, %struct.ipd.custom_type.uint1_t.uint1_t (i32) addrspace(1)*) addrspace(1) #14

; Function Attrs: nounwind
define linkonce_odr dso_local void @_ZN7v4int32C2E17chessllvmInternal7v16int8(%struct.v4int32* nonnull dereferenceable(16) %this, i32 %0, %struct.ipd.custom_type.v16int8.v16int8 %aw.coerce) unnamed_addr addrspace(1) #6 comdat align 2 !dbg !2477 {
entry:
  %aw = alloca %struct.ipd.custom_type.v16int8.v16int8, align 16
  %this.addr = alloca %struct.v4int32*, align 4
  %.addr = alloca i32, align 4
  store %struct.ipd.custom_type.v16int8.v16int8 %aw.coerce, %struct.ipd.custom_type.v16int8.v16int8* %aw, align 16
  store %struct.v4int32* %this, %struct.v4int32** %this.addr, align 4, !tbaa !1217
  call addrspace(1) void @llvm.dbg.declare(metadata %struct.v4int32** %this.addr, metadata !2502, metadata !DIExpression()), !dbg !2506
  store i32 %0, i32* %.addr, align 4, !tbaa !1837
  call addrspace(1) void @llvm.dbg.declare(metadata i32* %.addr, metadata !2504, metadata !DIExpression()), !dbg !2507
  call addrspace(1) void @llvm.dbg.declare(metadata %struct.ipd.custom_type.v16int8.v16int8* %aw, metadata !2505, metadata !DIExpression()), !dbg !2508
  %this1 = load %struct.v4int32*, %struct.v4int32** %this.addr, align 4
  %mw = getelementptr inbounds %struct.v4int32, %struct.v4int32* %this1, i32 0, i32 0, !dbg !2509
  %1 = load %struct.ipd.custom_type.v16int8.v16int8, %struct.ipd.custom_type.v16int8.v16int8* %aw, align 16, !dbg !2510, !tbaa !2268
  store %struct.ipd.custom_type.v16int8.v16int8 %1, %struct.ipd.custom_type.v16int8.v16int8* %mw, align 16, !dbg !2510, !tbaa !2268
  ret void, !dbg !2511
}

; Function Attrs: nounwind
define linkonce_odr dso_local void @_ZN7v8int16C2E17chessllvmInternal7v16int8(%struct.v8int16* nonnull dereferenceable(16) %this, i32 %0, %struct.ipd.custom_type.v16int8.v16int8 %aw.coerce) unnamed_addr addrspace(1) #6 comdat align 2 !dbg !2512 {
entry:
  %aw = alloca %struct.ipd.custom_type.v16int8.v16int8, align 16
  %this.addr = alloca %struct.v8int16*, align 4
  %.addr = alloca i32, align 4
  store %struct.ipd.custom_type.v16int8.v16int8 %aw.coerce, %struct.ipd.custom_type.v16int8.v16int8* %aw, align 16
  store %struct.v8int16* %this, %struct.v8int16** %this.addr, align 4, !tbaa !1217
  call addrspace(1) void @llvm.dbg.declare(metadata %struct.v8int16** %this.addr, metadata !2534, metadata !DIExpression()), !dbg !2538
  store i32 %0, i32* %.addr, align 4, !tbaa !1837
  call addrspace(1) void @llvm.dbg.declare(metadata i32* %.addr, metadata !2536, metadata !DIExpression()), !dbg !2539
  call addrspace(1) void @llvm.dbg.declare(metadata %struct.ipd.custom_type.v16int8.v16int8* %aw, metadata !2537, metadata !DIExpression()), !dbg !2540
  %this1 = load %struct.v8int16*, %struct.v8int16** %this.addr, align 4
  %mw = getelementptr inbounds %struct.v8int16, %struct.v8int16* %this1, i32 0, i32 0, !dbg !2541
  %1 = load %struct.ipd.custom_type.v16int8.v16int8, %struct.ipd.custom_type.v16int8.v16int8* %aw, align 16, !dbg !2542, !tbaa !2268
  store %struct.ipd.custom_type.v16int8.v16int8 %1, %struct.ipd.custom_type.v16int8.v16int8* %mw, align 16, !dbg !2542, !tbaa !2268
  ret void, !dbg !2543
}

; Function Attrs: alwaysinline nounwind mustprogress
define linkonce_odr dso_local %struct.v4float @_ZNK3aie6detail6vectorIfLj4EE9to_nativeEv(%"class.aie::detail::vector.15"* nonnull dereferenceable(16) %this) addrspace(1) #9 comdat align 2 !dbg !2544 {
entry:
  %this.addr = alloca %"class.aie::detail::vector.15"*, align 4
  store %"class.aie::detail::vector.15"* %this, %"class.aie::detail::vector.15"** %this.addr, align 4, !tbaa !1217
  call addrspace(1) void @llvm.dbg.declare(metadata %"class.aie::detail::vector.15"** %this.addr, metadata !2551, metadata !DIExpression()), !dbg !2552
  %this1 = load %"class.aie::detail::vector.15"*, %"class.aie::detail::vector.15"** %this.addr, align 4
  %data = getelementptr inbounds %"class.aie::detail::vector.15", %"class.aie::detail::vector.15"* %this1, i32 0, i32 0, !dbg !2553
  %0 = load %struct.v4float, %struct.v4float* %data, align 16, !dbg !2553, !tbaa !2268
  ret %struct.v4float %0, !dbg !2553
}

; Function Attrs: alwaysinline nounwind
define linkonce_odr dso_local void @_ZN3aie6detail6vectorIfLj4EEC2Ev(%"class.aie::detail::vector.15"* nonnull dereferenceable(16) %this) unnamed_addr addrspace(1) #11 comdat align 2 !dbg !2555 {
entry:
  %this.addr = alloca %"class.aie::detail::vector.15"*, align 4
  store %"class.aie::detail::vector.15"* %this, %"class.aie::detail::vector.15"** %this.addr, align 4, !tbaa !1217
  call addrspace(1) void @llvm.dbg.declare(metadata %"class.aie::detail::vector.15"** %this.addr, metadata !2557, metadata !DIExpression()), !dbg !2559
  %this1 = load %"class.aie::detail::vector.15"*, %"class.aie::detail::vector.15"** %this.addr, align 4
  %data = getelementptr inbounds %"class.aie::detail::vector.15", %"class.aie::detail::vector.15"* %this1, i32 0, i32 0, !dbg !2560
  %call = call addrspace(1) %struct.v4float @_ZN3aie6detail14vector_storageIfLj4EE5undefEv() #26, !dbg !2561
  %0 = getelementptr inbounds %struct.v4float, %struct.v4float* %data, i32 0, i32 0, !dbg !2561
  %1 = extractvalue %struct.v4float %call, 0, !dbg !2561
  store %struct.ipd.custom_type.v16int8.v16int8 %1, %struct.ipd.custom_type.v16int8.v16int8* %0, align 16, !dbg !2561
  ret void, !dbg !2562
}

; Function Attrs: alwaysinline nounwind mustprogress
define linkonce_odr dso_local %struct.v4float @_Z5ext_v7v8floati(%struct.v8float %a0.coerce, i32 %a1) addrspace(1) #10 comdat {
entry:
  %retval = alloca %struct.v4float, align 16
  %a0 = alloca %struct.v8float, align 32
  %a1.addr = alloca i32, align 4
  store %struct.v8float %a0.coerce, %struct.v8float* %a0, align 32
  store i32 %a1, i32* %a1.addr, align 4, !tbaa !1164
  %0 = load i32, i32* %a1.addr, align 4, !tbaa !1164
  %1 = load %struct.v8float, %struct.v8float* %a0, align 32, !tbaa !1729
  %call = call x86_regcallcc addrspace(1) %struct.v4float @__regcall3__chessintr_v4float_ext_v_v8float___sint(%struct.v8float %1, i32 signext %0) #30
  %2 = getelementptr inbounds %struct.v4float, %struct.v4float* %retval, i32 0, i32 0
  %3 = extractvalue %struct.v4float %call, 0
  store %struct.ipd.custom_type.v16int8.v16int8 %3, %struct.ipd.custom_type.v16int8.v16int8* %2, align 16
  %4 = load %struct.v4float, %struct.v4float* %retval, align 16
  ret %struct.v4float %4
}

; Function Attrs: alwaysinline nounwind mustprogress
define linkonce_odr dso_local %"class.aie::detail::vector.19" @_ZNK3aie6detail6vectorIfLj8EE7cast_toI6cint32EEDav(%"class.aie::detail::vector"* nonnull dereferenceable(32) %this) addrspace(1) #9 comdat align 2 !dbg !2563 {
entry:
  %this.addr = alloca %"class.aie::detail::vector"*, align 4
  %DstSize = alloca i32, align 4
  %DstElems = alloca i32, align 4
  %ret = alloca %"class.aie::detail::vector.19", align 32
  %custom_type.tmp = alloca %"class.aie::detail::vector.19", align 32
  %tmp = alloca %struct.v4cint32, align 32
  store %"class.aie::detail::vector"* %this, %"class.aie::detail::vector"** %this.addr, align 4, !tbaa !1217
  call addrspace(1) void @llvm.dbg.declare(metadata %"class.aie::detail::vector"** %this.addr, metadata !2639, metadata !DIExpression()), !dbg !2643
  %this1 = load %"class.aie::detail::vector"*, %"class.aie::detail::vector"** %this.addr, align 4
  store i32 undef, i32* %DstSize, align 4, !dbg !2644
  %0 = bitcast i32* %DstSize to i8*, !dbg !2644
  call addrspace(1) void @llvm.lifetime.start.p0i8(i64 4, i8* %0) #25, !dbg !2644
  call addrspace(1) void @llvm.dbg.declare(metadata i32* %DstSize, metadata !2640, metadata !DIExpression()), !dbg !2645
  store i32 64, i32* %DstSize, align 4, !dbg !2645, !tbaa !1164
  store i32 undef, i32* %DstElems, align 4, !dbg !2646
  %1 = bitcast i32* %DstElems to i8*, !dbg !2646
  call addrspace(1) void @llvm.lifetime.start.p0i8(i64 4, i8* %1) #25, !dbg !2646
  call addrspace(1) void @llvm.dbg.declare(metadata i32* %DstElems, metadata !2641, metadata !DIExpression()), !dbg !2647
  store i32 4, i32* %DstElems, align 4, !dbg !2647, !tbaa !1164
  store %"class.aie::detail::vector.19" undef, %"class.aie::detail::vector.19"* %ret, align 32, !dbg !2648
  %2 = bitcast %"class.aie::detail::vector.19"* %ret to i8*, !dbg !2648
  call addrspace(1) void @llvm.lifetime.start.p0i8(i64 32, i8* %2) #25, !dbg !2648
  call addrspace(1) void @llvm.dbg.declare(metadata %"class.aie::detail::vector.19"* %ret, metadata !2642, metadata !DIExpression()), !dbg !2649
  call addrspace(1) void @_ZN3aie6detail6vectorI6cint32Lj4EEC2Ev(%"class.aie::detail::vector.19"* nonnull dereferenceable(32) %custom_type.tmp) #26, !dbg !2649
  %3 = load %"class.aie::detail::vector.19", %"class.aie::detail::vector.19"* %custom_type.tmp, align 32, !dbg !2649, !tbaa !2650
  store %"class.aie::detail::vector.19" %3, %"class.aie::detail::vector.19"* %ret, align 32, !dbg !2649, !tbaa !2650
  %data = getelementptr inbounds %"class.aie::detail::vector.19", %"class.aie::detail::vector.19"* %ret, i32 0, i32 0, !dbg !2652
  %4 = bitcast %struct.v4cint32* %tmp to i8*, !dbg !2653
  call addrspace(1) void @llvm.lifetime.start.p0i8(i64 32, i8* %4) #25, !dbg !2653
  %data2 = getelementptr inbounds %"class.aie::detail::vector", %"class.aie::detail::vector"* %this1, i32 0, i32 0, !dbg !2654
  %call = call addrspace(1) %struct.v4cint32 @_ZN3aie6detailL18vector_cast_helperI6cint32Lj4ERK7v8floatEENS0_14vector_storageIT_XT0_EE4typeEOT1_(%struct.v8float* nonnull align 32 dereferenceable(32) %data2) #26, !dbg !2653
  %5 = getelementptr inbounds %struct.v4cint32, %struct.v4cint32* %tmp, i32 0, i32 0, !dbg !2653
  %6 = extractvalue %struct.v4cint32 %call, 0, !dbg !2653
  store %struct.ipd.custom_type.v32int8.v32int8 %6, %struct.ipd.custom_type.v32int8.v32int8* %5, align 32, !dbg !2653
  %7 = load %struct.v4cint32, %struct.v4cint32* %tmp, align 32, !dbg !2653, !tbaa !1729
  store %struct.v4cint32 %7, %struct.v4cint32* %data, align 32, !dbg !2653, !tbaa !1729
  %8 = bitcast %struct.v4cint32* %tmp to i8*, !dbg !2653
  call addrspace(1) void @llvm.lifetime.end.p0i8(i64 32, i8* %8) #25, !dbg !2653
  %9 = load %"class.aie::detail::vector.19", %"class.aie::detail::vector.19"* %ret, align 32, !dbg !2655, !tbaa !2650
  %10 = bitcast %"class.aie::detail::vector.19"* %ret to i8*, !dbg !2656
  call addrspace(1) void @llvm.lifetime.end.p0i8(i64 32, i8* %10) #25, !dbg !2656
  %11 = bitcast i32* %DstElems to i8*, !dbg !2656
  call addrspace(1) void @llvm.lifetime.end.p0i8(i64 4, i8* %11) #25, !dbg !2656
  %12 = bitcast i32* %DstSize to i8*, !dbg !2656
  call addrspace(1) void @llvm.lifetime.end.p0i8(i64 4, i8* %12) #25, !dbg !2656
  ret %"class.aie::detail::vector.19" %9, !dbg !2655
}

; Function Attrs: alwaysinline nounwind mustprogress
define linkonce_odr dso_local %"class.aie::detail::vector.10" @_ZNK3aie6detail6vectorI6cint32Lj4EE4growILj8EEENS1_IS2_XT_EEEj(%"class.aie::detail::vector.19"* nonnull dereferenceable(32) %this, i32 %idx) addrspace(1) #9 comdat align 2 !dbg !2657 {
entry:
  %retval = alloca %"class.aie::detail::vector.10", align 32
  %this.addr = alloca %"class.aie::detail::vector.19"*, align 4
  %idx.addr = alloca i32, align 4
  %output_bits = alloca i32, align 4
  %custom_type.tmp = alloca %"class.aie::detail::vector.10", align 32
  %tmp = alloca %struct.v8cint32, align 32
  store %"class.aie::detail::vector.19"* %this, %"class.aie::detail::vector.19"** %this.addr, align 4, !tbaa !1217
  call addrspace(1) void @llvm.dbg.declare(metadata %"class.aie::detail::vector.19"** %this.addr, metadata !2662, metadata !DIExpression()), !dbg !2667
  store i32 %idx, i32* %idx.addr, align 4, !tbaa !1164
  call addrspace(1) void @llvm.dbg.declare(metadata i32* %idx.addr, metadata !2664, metadata !DIExpression()), !dbg !2668
  %this1 = load %"class.aie::detail::vector.19"*, %"class.aie::detail::vector.19"** %this.addr, align 4
  store i32 undef, i32* %output_bits, align 4, !dbg !2669
  %0 = bitcast i32* %output_bits to i8*, !dbg !2669
  call addrspace(1) void @llvm.lifetime.start.p0i8(i64 4, i8* %0) #25, !dbg !2669
  call addrspace(1) void @llvm.dbg.declare(metadata i32* %output_bits, metadata !2665, metadata !DIExpression()), !dbg !2670
  store i32 512, i32* %output_bits, align 4, !dbg !2670, !tbaa !1164
  call addrspace(1) void @llvm.dbg.declare(metadata %"class.aie::detail::vector.10"* %retval, metadata !2666, metadata !DIExpression()), !dbg !2671
  call addrspace(1) void @_ZN3aie6detail6vectorI6cint32Lj8EEC2Ev(%"class.aie::detail::vector.10"* nonnull dereferenceable(64) %custom_type.tmp) #26, !dbg !2671
  %1 = load %"class.aie::detail::vector.10", %"class.aie::detail::vector.10"* %custom_type.tmp, align 32, !dbg !2671, !tbaa !1740
  store %"class.aie::detail::vector.10" %1, %"class.aie::detail::vector.10"* %retval, align 32, !dbg !2671, !tbaa !1740
  %data = getelementptr inbounds %"class.aie::detail::vector.10", %"class.aie::detail::vector.10"* %retval, i32 0, i32 0, !dbg !2672
  %2 = bitcast %struct.v8cint32* %tmp to i8*, !dbg !2679
  call addrspace(1) void @llvm.lifetime.start.p0i8(i64 64, i8* %2) #25, !dbg !2679
  %3 = load i32, i32* %idx.addr, align 4, !dbg !2680, !tbaa !1164
  %data2 = getelementptr inbounds %"class.aie::detail::vector.19", %"class.aie::detail::vector.19"* %this1, i32 0, i32 0, !dbg !2681
  %4 = load %struct.v4cint32, %struct.v4cint32* %data2, align 32, !dbg !2679, !tbaa !2682
  %call = call addrspace(1) %struct.v8cint32 @_Z6xset_wi8v4cint32(i32 %3, %struct.v4cint32 %4) #28, !dbg !2679
  %5 = getelementptr inbounds %struct.v8cint32, %struct.v8cint32* %tmp, i32 0, i32 0, !dbg !2679
  %6 = extractvalue %struct.v8cint32 %call, 0, !dbg !2679
  store %struct.ipd.custom_type.v64int8.v64int8 %6, %struct.ipd.custom_type.v64int8.v64int8* %5, align 32, !dbg !2679
  %7 = load %struct.v8cint32, %struct.v8cint32* %tmp, align 32, !dbg !2679, !tbaa !1739
  store %struct.v8cint32 %7, %struct.v8cint32* %data, align 32, !dbg !2679, !tbaa !1739
  %8 = bitcast %struct.v8cint32* %tmp to i8*, !dbg !2679
  call addrspace(1) void @llvm.lifetime.end.p0i8(i64 64, i8* %8) #25, !dbg !2679
  %9 = bitcast i32* %output_bits to i8*, !dbg !2683
  call addrspace(1) void @llvm.lifetime.end.p0i8(i64 4, i8* %9) #25, !dbg !2683
  %10 = load %"class.aie::detail::vector.10", %"class.aie::detail::vector.10"* %retval, align 32, !dbg !2683
  ret %"class.aie::detail::vector.10" %10, !dbg !2683
}

; Function Attrs: alwaysinline nounwind mustprogress
define linkonce_odr dso_local %struct.v2cint32 @_Z5ext_v8v8cint32i(%struct.v8cint32 %a0.coerce, i32 %a1) addrspace(1) #10 comdat {
entry:
  %retval = alloca %struct.v2cint32, align 16
  %a0 = alloca %struct.v8cint32, align 32
  %a1.addr = alloca i32, align 4
  store %struct.v8cint32 %a0.coerce, %struct.v8cint32* %a0, align 32
  store i32 %a1, i32* %a1.addr, align 4, !tbaa !1164
  %0 = load i32, i32* %a1.addr, align 4, !tbaa !1164
  %1 = load %struct.v8cint32, %struct.v8cint32* %a0, align 32, !tbaa !1739
  %call = call x86_regcallcc addrspace(1) %struct.v2cint32 @__regcall3__chessintr_v2cint32_ext_v_v8cint32___sint(%struct.v8cint32 %1, i32 signext %0) #30
  %2 = getelementptr inbounds %struct.v2cint32, %struct.v2cint32* %retval, i32 0, i32 0
  %3 = extractvalue %struct.v2cint32 %call, 0
  store %struct.ipd.custom_type.v16int8.v16int8 %3, %struct.ipd.custom_type.v16int8.v16int8* %2, align 16
  %4 = load %struct.v2cint32, %struct.v2cint32* %retval, align 16
  ret %struct.v2cint32 %4
}

; Function Attrs: nounwind mustprogress
define internal %struct.v4float @_ZN3aie6detailL18vector_cast_helperIfLj4E8v2cint32EENS0_14vector_storageIT_XT0_EE4typeEOT1_(%struct.v2cint32* nonnull align 16 dereferenceable(16) %from) addrspace(1) #15 !dbg !2684 {
entry:
  %retval = alloca %struct.v4float, align 16
  %from.addr = alloca %struct.v2cint32*, align 4
  store %struct.v2cint32* %from, %struct.v2cint32** %from.addr, align 4, !tbaa !1217
  call addrspace(1) void @llvm.dbg.declare(metadata %struct.v2cint32** %from.addr, metadata !2690, metadata !DIExpression()), !dbg !2694
  %0 = load %struct.v2cint32*, %struct.v2cint32** %from.addr, align 4, !dbg !2695, !tbaa !1217
  %1 = load %struct.v2cint32, %struct.v2cint32* %0, align 16, !dbg !2697, !tbaa !2268
  %call = call addrspace(1) %struct.v4float @_Z10as_v4float8v2cint32(%struct.v2cint32 %1) #26, !dbg !2697
  %2 = getelementptr inbounds %struct.v4float, %struct.v4float* %retval, i32 0, i32 0, !dbg !2697
  %3 = extractvalue %struct.v4float %call, 0, !dbg !2697
  store %struct.ipd.custom_type.v16int8.v16int8 %3, %struct.ipd.custom_type.v16int8.v16int8* %2, align 16, !dbg !2697
  %4 = load %struct.v4float, %struct.v4float* %retval, align 16, !dbg !2698
  ret %struct.v4float %4, !dbg !2698
}

; Function Attrs: alwaysinline nounwind
define linkonce_odr dso_local void @_ZN3aie6detail6vectorIfLj4EEC2E7v4float(%"class.aie::detail::vector.15"* nonnull dereferenceable(16) %this, %struct.v4float %v.coerce) unnamed_addr addrspace(1) #11 comdat align 2 !dbg !2699 {
entry:
  %v = alloca %struct.v4float, align 16
  %this.addr = alloca %"class.aie::detail::vector.15"*, align 4
  store %struct.v4float %v.coerce, %struct.v4float* %v, align 16
  store %"class.aie::detail::vector.15"* %this, %"class.aie::detail::vector.15"** %this.addr, align 4, !tbaa !1217
  call addrspace(1) void @llvm.dbg.declare(metadata %"class.aie::detail::vector.15"** %this.addr, metadata !2701, metadata !DIExpression()), !dbg !2703
  call addrspace(1) void @llvm.dbg.declare(metadata %struct.v4float* %v, metadata !2702, metadata !DIExpression()), !dbg !2704
  %this1 = load %"class.aie::detail::vector.15"*, %"class.aie::detail::vector.15"** %this.addr, align 4
  %data = getelementptr inbounds %"class.aie::detail::vector.15", %"class.aie::detail::vector.15"* %this1, i32 0, i32 0, !dbg !2705
  %0 = load %struct.v4float, %struct.v4float* %v, align 16, !dbg !2706, !tbaa !2268
  store %struct.v4float %0, %struct.v4float* %data, align 16, !dbg !2706, !tbaa !2268
  ret void, !dbg !2707
}

; Function Attrs: alwaysinline nounwind mustprogress
define linkonce_odr dso_local %struct.v4float @_Z10as_v4float8v2cint32(%struct.v2cint32 %a.coerce) addrspace(1) #9 comdat {
entry:
  %a = alloca %struct.v2cint32, align 16
  %custom_type.tmp = alloca %struct.v4float, align 16
  store %struct.v2cint32 %a.coerce, %struct.v2cint32* %a, align 16
  %mw = getelementptr inbounds %struct.v2cint32, %struct.v2cint32* %a, i32 0, i32 0
  %0 = load %struct.ipd.custom_type.v16int8.v16int8, %struct.ipd.custom_type.v16int8.v16int8* %mw, align 16, !tbaa !2268
  call addrspace(1) void @_ZN7v4floatC2E17chessllvmInternal7v16int8(%struct.v4float* nonnull dereferenceable(16) %custom_type.tmp, i32 0, %struct.ipd.custom_type.v16int8.v16int8 %0) #26
  %1 = load %struct.v4float, %struct.v4float* %custom_type.tmp, align 16, !tbaa !2268
  ret %struct.v4float %1
}

; Function Attrs: nounwind
define linkonce_odr dso_local void @_ZN7v4floatC2E17chessllvmInternal7v16int8(%struct.v4float* nonnull dereferenceable(16) %this, i32 %0, %struct.ipd.custom_type.v16int8.v16int8 %aw.coerce) unnamed_addr addrspace(1) #6 comdat align 2 !dbg !2708 {
entry:
  %aw = alloca %struct.ipd.custom_type.v16int8.v16int8, align 16
  %this.addr = alloca %struct.v4float*, align 4
  %.addr = alloca i32, align 4
  store %struct.ipd.custom_type.v16int8.v16int8 %aw.coerce, %struct.ipd.custom_type.v16int8.v16int8* %aw, align 16
  store %struct.v4float* %this, %struct.v4float** %this.addr, align 4, !tbaa !1217
  call addrspace(1) void @llvm.dbg.declare(metadata %struct.v4float** %this.addr, metadata !2720, metadata !DIExpression()), !dbg !2724
  store i32 %0, i32* %.addr, align 4, !tbaa !1837
  call addrspace(1) void @llvm.dbg.declare(metadata i32* %.addr, metadata !2722, metadata !DIExpression()), !dbg !2725
  call addrspace(1) void @llvm.dbg.declare(metadata %struct.ipd.custom_type.v16int8.v16int8* %aw, metadata !2723, metadata !DIExpression()), !dbg !2726
  %this1 = load %struct.v4float*, %struct.v4float** %this.addr, align 4
  %mw = getelementptr inbounds %struct.v4float, %struct.v4float* %this1, i32 0, i32 0, !dbg !2727
  %1 = load %struct.ipd.custom_type.v16int8.v16int8, %struct.ipd.custom_type.v16int8.v16int8* %aw, align 16, !dbg !2728, !tbaa !2268
  store %struct.ipd.custom_type.v16int8.v16int8 %1, %struct.ipd.custom_type.v16int8.v16int8* %mw, align 16, !dbg !2728, !tbaa !2268
  ret void, !dbg !2729
}

; Function Attrs: nounwind readnone willreturn
declare dso_local x86_regcallcc %struct.v2cint32 @__regcall3__chessintr_v2cint32_ext_v_v8cint32___sint(%struct.v8cint32, i32 signext) addrspace(1) #13

; Function Attrs: alwaysinline nounwind mustprogress
define linkonce_odr dso_local %struct.v8cint32 @_Z6xset_wi8v4cint32(i32 %a0, %struct.v4cint32 %a1.coerce) addrspace(1) #10 comdat {
entry:
  %retval = alloca %struct.v8cint32, align 32
  %a1 = alloca %struct.v4cint32, align 32
  %a0.addr = alloca i32, align 4
  store %struct.v4cint32 %a1.coerce, %struct.v4cint32* %a1, align 32
  store i32 %a0, i32* %a0.addr, align 4, !tbaa !1164
  %0 = load i32, i32* %a0.addr, align 4, !tbaa !1164
  %1 = load %struct.v4cint32, %struct.v4cint32* %a1, align 32, !tbaa !1729
  %call = call x86_regcallcc addrspace(1) %struct.v8cint32 @__regcall3__chessintr_v8cint32_xset_w___sint_v4cint32(i32 signext %0, %struct.v4cint32 %1) #30
  %2 = getelementptr inbounds %struct.v8cint32, %struct.v8cint32* %retval, i32 0, i32 0
  %3 = extractvalue %struct.v8cint32 %call, 0
  store %struct.ipd.custom_type.v64int8.v64int8 %3, %struct.ipd.custom_type.v64int8.v64int8* %2, align 32
  %4 = load %struct.v8cint32, %struct.v8cint32* %retval, align 32
  ret %struct.v8cint32 %4
}

; Function Attrs: nounwind readnone willreturn
declare dso_local x86_regcallcc %struct.v8cint32 @__regcall3__chessintr_v8cint32_xset_w___sint_v4cint32(i32 signext, %struct.v4cint32) addrspace(1) #13

; Function Attrs: alwaysinline nounwind
define linkonce_odr dso_local void @_ZN3aie6detail6vectorI6cint32Lj4EEC2Ev(%"class.aie::detail::vector.19"* nonnull dereferenceable(32) %this) unnamed_addr addrspace(1) #11 comdat align 2 !dbg !2730 {
entry:
  %this.addr = alloca %"class.aie::detail::vector.19"*, align 4
  store %"class.aie::detail::vector.19"* %this, %"class.aie::detail::vector.19"** %this.addr, align 4, !tbaa !1217
  call addrspace(1) void @llvm.dbg.declare(metadata %"class.aie::detail::vector.19"** %this.addr, metadata !2732, metadata !DIExpression()), !dbg !2734
  %this1 = load %"class.aie::detail::vector.19"*, %"class.aie::detail::vector.19"** %this.addr, align 4
  %data = getelementptr inbounds %"class.aie::detail::vector.19", %"class.aie::detail::vector.19"* %this1, i32 0, i32 0, !dbg !2735
  %call = call addrspace(1) %struct.v4cint32 @_ZN3aie6detail14vector_storageI6cint32Lj4EE5undefEv() #26, !dbg !2736
  %0 = getelementptr inbounds %struct.v4cint32, %struct.v4cint32* %data, i32 0, i32 0, !dbg !2736
  %1 = extractvalue %struct.v4cint32 %call, 0, !dbg !2736
  store %struct.ipd.custom_type.v32int8.v32int8 %1, %struct.ipd.custom_type.v32int8.v32int8* %0, align 32, !dbg !2736
  ret void, !dbg !2737
}

; Function Attrs: nounwind mustprogress
define internal %struct.v4cint32 @_ZN3aie6detailL18vector_cast_helperI6cint32Lj4ERK7v8floatEENS0_14vector_storageIT_XT0_EE4typeEOT1_(%struct.v8float* nonnull align 32 dereferenceable(32) %from) addrspace(1) #15 !dbg !2738 {
entry:
  %retval = alloca %struct.v4cint32, align 32
  %from.addr = alloca %struct.v8float*, align 4
  store %struct.v8float* %from, %struct.v8float** %from.addr, align 4, !tbaa !1217
  call addrspace(1) void @llvm.dbg.declare(metadata %struct.v8float** %from.addr, metadata !2744, metadata !DIExpression()), !dbg !2747
  %0 = load %struct.v8float*, %struct.v8float** %from.addr, align 4, !dbg !2748, !tbaa !1217
  %1 = load %struct.v8float, %struct.v8float* %0, align 32, !dbg !2750, !tbaa !1729
  %call = call addrspace(1) %struct.v4cint32 @_Z11as_v4cint327v8float(%struct.v8float %1) #26, !dbg !2750
  %2 = getelementptr inbounds %struct.v4cint32, %struct.v4cint32* %retval, i32 0, i32 0, !dbg !2750
  %3 = extractvalue %struct.v4cint32 %call, 0, !dbg !2750
  store %struct.ipd.custom_type.v32int8.v32int8 %3, %struct.ipd.custom_type.v32int8.v32int8* %2, align 32, !dbg !2750
  %4 = load %struct.v4cint32, %struct.v4cint32* %retval, align 32, !dbg !2751
  ret %struct.v4cint32 %4, !dbg !2751
}

; Function Attrs: alwaysinline nounwind mustprogress
define linkonce_odr dso_local %struct.v4cint32 @_Z11as_v4cint327v8float(%struct.v8float %a.coerce) addrspace(1) #9 comdat {
entry:
  %a = alloca %struct.v8float, align 32
  %custom_type.tmp = alloca %struct.v4cint32, align 32
  store %struct.v8float %a.coerce, %struct.v8float* %a, align 32
  %mw = getelementptr inbounds %struct.v8float, %struct.v8float* %a, i32 0, i32 0
  %0 = load %struct.ipd.custom_type.v32int8.v32int8, %struct.ipd.custom_type.v32int8.v32int8* %mw, align 32, !tbaa !1729
  call addrspace(1) void @_ZN8v4cint32C2E17chessllvmInternal7v32int8(%struct.v4cint32* nonnull dereferenceable(32) %custom_type.tmp, i32 0, %struct.ipd.custom_type.v32int8.v32int8 %0) #26
  %1 = load %struct.v4cint32, %struct.v4cint32* %custom_type.tmp, align 32, !tbaa !1729
  ret %struct.v4cint32 %1
}

; Function Attrs: nounwind
define linkonce_odr dso_local void @_ZN8v4cint32C2E17chessllvmInternal7v32int8(%struct.v4cint32* nonnull dereferenceable(32) %this, i32 %0, %struct.ipd.custom_type.v32int8.v32int8 %aw.coerce) unnamed_addr addrspace(1) #6 comdat align 2 !dbg !2752 {
entry:
  %aw = alloca %struct.ipd.custom_type.v32int8.v32int8, align 32
  %this.addr = alloca %struct.v4cint32*, align 4
  %.addr = alloca i32, align 4
  store %struct.ipd.custom_type.v32int8.v32int8 %aw.coerce, %struct.ipd.custom_type.v32int8.v32int8* %aw, align 32
  store %struct.v4cint32* %this, %struct.v4cint32** %this.addr, align 4, !tbaa !1217
  call addrspace(1) void @llvm.dbg.declare(metadata %struct.v4cint32** %this.addr, metadata !2774, metadata !DIExpression()), !dbg !2778
  store i32 %0, i32* %.addr, align 4, !tbaa !1837
  call addrspace(1) void @llvm.dbg.declare(metadata i32* %.addr, metadata !2776, metadata !DIExpression()), !dbg !2779
  call addrspace(1) void @llvm.dbg.declare(metadata %struct.ipd.custom_type.v32int8.v32int8* %aw, metadata !2777, metadata !DIExpression()), !dbg !2780
  %this1 = load %struct.v4cint32*, %struct.v4cint32** %this.addr, align 4
  %mw = getelementptr inbounds %struct.v4cint32, %struct.v4cint32* %this1, i32 0, i32 0, !dbg !2781
  %1 = load %struct.ipd.custom_type.v32int8.v32int8, %struct.ipd.custom_type.v32int8.v32int8* %aw, align 32, !dbg !2782, !tbaa !1729
  store %struct.ipd.custom_type.v32int8.v32int8 %1, %struct.ipd.custom_type.v32int8.v32int8* %mw, align 32, !dbg !2782, !tbaa !1729
  ret void, !dbg !2783
}

; Function Attrs: nounwind mustprogress
define linkonce_odr dso_local %struct.v4cint32 @_ZN3aie6detail14vector_storageI6cint32Lj4EE5undefEv() addrspace(1) #15 comdat align 2 !dbg !2784 {
entry:
  %retval = alloca %struct.v4cint32, align 32
  %call = call addrspace(1) %struct.v4cint32 @_Z14undef_v4cint32v() #26, !dbg !2785
  %0 = getelementptr inbounds %struct.v4cint32, %struct.v4cint32* %retval, i32 0, i32 0, !dbg !2785
  %1 = extractvalue %struct.v4cint32 %call, 0, !dbg !2785
  store %struct.ipd.custom_type.v32int8.v32int8 %1, %struct.ipd.custom_type.v32int8.v32int8* %0, align 32, !dbg !2785
  %2 = load %struct.v4cint32, %struct.v4cint32* %retval, align 32, !dbg !2786
  ret %struct.v4cint32 %2, !dbg !2786
}

; Function Attrs: alwaysinline nounwind mustprogress
define linkonce_odr dso_local %struct.v4cint32 @_Z14undef_v4cint32v() addrspace(1) #9 comdat {
entry:
  %retval = alloca %struct.v4cint32, align 32
  %call = call x86_regcallcc addrspace(1) %struct.v4cint32 @__regcall3__chessintr_v4cint32_undef_v4cint32() #30
  %0 = getelementptr inbounds %struct.v4cint32, %struct.v4cint32* %retval, i32 0, i32 0
  %1 = extractvalue %struct.v4cint32 %call, 0
  store %struct.ipd.custom_type.v32int8.v32int8 %1, %struct.ipd.custom_type.v32int8.v32int8* %0, align 32
  %2 = load %struct.v4cint32, %struct.v4cint32* %retval, align 32
  ret %struct.v4cint32 %2
}

; Function Attrs: nounwind readnone willreturn
declare dso_local x86_regcallcc %struct.v4cint32 @__regcall3__chessintr_v4cint32_undef_v4cint32() addrspace(1) #13

; Function Attrs: nounwind readnone willreturn
declare dso_local x86_regcallcc %struct.v4float @__regcall3__chessintr_v4float_ext_v_v8float___sint(%struct.v8float, i32 signext) addrspace(1) #13

; Function Attrs: nounwind mustprogress
define linkonce_odr dso_local %struct.v4float @_ZN3aie6detail14vector_storageIfLj4EE5undefEv() addrspace(1) #15 comdat align 2 !dbg !2787 {
entry:
  %retval = alloca %struct.v4float, align 16
  %call = call addrspace(1) %struct.v4float @_Z13undef_v4floatv() #26, !dbg !2788
  %0 = getelementptr inbounds %struct.v4float, %struct.v4float* %retval, i32 0, i32 0, !dbg !2788
  %1 = extractvalue %struct.v4float %call, 0, !dbg !2788
  store %struct.ipd.custom_type.v16int8.v16int8 %1, %struct.ipd.custom_type.v16int8.v16int8* %0, align 16, !dbg !2788
  %2 = load %struct.v4float, %struct.v4float* %retval, align 16, !dbg !2789
  ret %struct.v4float %2, !dbg !2789
}

; Function Attrs: alwaysinline nounwind mustprogress
define linkonce_odr dso_local %struct.v4float @_Z13undef_v4floatv() addrspace(1) #9 comdat {
entry:
  %retval = alloca %struct.v4float, align 16
  %call = call x86_regcallcc addrspace(1) %struct.v4float @__regcall3__chessintr_v4float_undef_v4float() #30
  %0 = getelementptr inbounds %struct.v4float, %struct.v4float* %retval, i32 0, i32 0
  %1 = extractvalue %struct.v4float %call, 0
  store %struct.ipd.custom_type.v16int8.v16int8 %1, %struct.ipd.custom_type.v16int8.v16int8* %0, align 16
  %2 = load %struct.v4float, %struct.v4float* %retval, align 16
  ret %struct.v4float %2
}

; Function Attrs: nounwind readnone willreturn
declare dso_local x86_regcallcc %struct.v4float @__regcall3__chessintr_v4float_undef_v4float() addrspace(1) #13

; Function Attrs: alwaysinline nounwind mustprogress
define linkonce_odr dso_local %struct.v8float @_ZNK3aie6detail6vectorIfLj8EEcv7v8floatEv(%"class.aie::detail::vector"* nonnull dereferenceable(32) %this) addrspace(1) #9 comdat align 2 !dbg !2790 {
entry:
  %retval = alloca %struct.v8float, align 32
  %this.addr = alloca %"class.aie::detail::vector"*, align 4
  store %"class.aie::detail::vector"* %this, %"class.aie::detail::vector"** %this.addr, align 4, !tbaa !1217
  call addrspace(1) void @llvm.dbg.declare(metadata %"class.aie::detail::vector"** %this.addr, metadata !2792, metadata !DIExpression()), !dbg !2793
  %this1 = load %"class.aie::detail::vector"*, %"class.aie::detail::vector"** %this.addr, align 4
  %call = call addrspace(1) %struct.v8float @_ZNK3aie6detail6vectorIfLj8EE9to_nativeEv(%"class.aie::detail::vector"* nonnull dereferenceable(32) %this1) #26, !dbg !2794
  %0 = getelementptr inbounds %struct.v8float, %struct.v8float* %retval, i32 0, i32 0, !dbg !2794
  %1 = extractvalue %struct.v8float %call, 0, !dbg !2794
  store %struct.ipd.custom_type.v32int8.v32int8 %1, %struct.ipd.custom_type.v32int8.v32int8* %0, align 32, !dbg !2794
  %2 = load %struct.v8float, %struct.v8float* %retval, align 32, !dbg !2795
  ret %struct.v8float %2, !dbg !2795
}

; Function Attrs: alwaysinline nounwind mustprogress
define linkonce_odr dso_local %struct.v8int32 @_Z10as_v8int327v8float(%struct.v8float %a.coerce) addrspace(1) #9 comdat {
entry:
  %a = alloca %struct.v8float, align 32
  %custom_type.tmp = alloca %struct.v8int32, align 32
  store %struct.v8float %a.coerce, %struct.v8float* %a, align 32
  %mw = getelementptr inbounds %struct.v8float, %struct.v8float* %a, i32 0, i32 0
  %0 = load %struct.ipd.custom_type.v32int8.v32int8, %struct.ipd.custom_type.v32int8.v32int8* %mw, align 32, !tbaa !1729
  call addrspace(1) void @_ZN7v8int32C2E17chessllvmInternal7v32int8(%struct.v8int32* nonnull dereferenceable(32) %custom_type.tmp, i32 0, %struct.ipd.custom_type.v32int8.v32int8 %0) #26
  %1 = load %struct.v8int32, %struct.v8int32* %custom_type.tmp, align 32, !tbaa !1729
  ret %struct.v8int32 %1
}

; Function Attrs: alwaysinline nounwind
define linkonce_odr dso_local void @_ZN3aie6detail6vectorIiLj8EEC2E7v8int32(%"class.aie::detail::vector.3"* nonnull dereferenceable(32) %this, %struct.v8int32 %v.coerce) unnamed_addr addrspace(1) #11 comdat align 2 !dbg !2796 {
entry:
  %v = alloca %struct.v8int32, align 32
  %this.addr = alloca %"class.aie::detail::vector.3"*, align 4
  store %struct.v8int32 %v.coerce, %struct.v8int32* %v, align 32
  store %"class.aie::detail::vector.3"* %this, %"class.aie::detail::vector.3"** %this.addr, align 4, !tbaa !1217
  call addrspace(1) void @llvm.dbg.declare(metadata %"class.aie::detail::vector.3"** %this.addr, metadata !2798, metadata !DIExpression()), !dbg !2801
  call addrspace(1) void @llvm.dbg.declare(metadata %struct.v8int32* %v, metadata !2800, metadata !DIExpression()), !dbg !2802
  %this1 = load %"class.aie::detail::vector.3"*, %"class.aie::detail::vector.3"** %this.addr, align 4
  %data = getelementptr inbounds %"class.aie::detail::vector.3", %"class.aie::detail::vector.3"* %this1, i32 0, i32 0, !dbg !2803
  %0 = load %struct.v8int32, %struct.v8int32* %v, align 32, !dbg !2804, !tbaa !1729
  store %struct.v8int32 %0, %struct.v8int32* %data, align 32, !dbg !2804, !tbaa !1729
  ret void, !dbg !2805
}

; Function Attrs: alwaysinline nounwind mustprogress
define linkonce_odr dso_local %"class.aie::detail::vector.3" @_ZN3aie9downshiftINS_6detail6vectorIiLj8EEEEEN22aie_dm_resource_removeIT_E4typeERKS5_j(%"class.aie::detail::vector.3"* nonnull align 32 dereferenceable(32) %v, i32 %shift) addrspace(1) #9 comdat !dbg !2806 {
entry:
  %retval = alloca %"class.aie::detail::vector.3", align 32
  %v.addr = alloca %"class.aie::detail::vector.3"*, align 4
  %shift.addr = alloca i32, align 4
  %Elems = alloca i32, align 4
  store %"class.aie::detail::vector.3"* %v, %"class.aie::detail::vector.3"** %v.addr, align 4, !tbaa !1217
  call addrspace(1) void @llvm.dbg.declare(metadata %"class.aie::detail::vector.3"** %v.addr, metadata !2810, metadata !DIExpression()), !dbg !2814
  store i32 %shift, i32* %shift.addr, align 4, !tbaa !1164
  call addrspace(1) void @llvm.dbg.declare(metadata i32* %shift.addr, metadata !2811, metadata !DIExpression()), !dbg !2815
  store i32 undef, i32* %Elems, align 4, !dbg !2816
  %0 = bitcast i32* %Elems to i8*, !dbg !2816
  call addrspace(1) void @llvm.lifetime.start.p0i8(i64 4, i8* %0) #25, !dbg !2816
  call addrspace(1) void @llvm.dbg.declare(metadata i32* %Elems, metadata !2812, metadata !DIExpression()), !dbg !2817
  store i32 8, i32* %Elems, align 4, !dbg !2817, !tbaa !1164
  %1 = load i32, i32* %shift.addr, align 4, !dbg !2818, !tbaa !1164
  %cmp = icmp ule i32 %1, 62, !dbg !2818
  %2 = call addrspace(1) i1 @llvm.is.constant.i1(i1 %cmp), !dbg !2818
  br i1 %2, label %if.then, label %if.end3, !dbg !2820

if.then:                                          ; preds = %entry
  br label %do.body, !dbg !2821

do.body:                                          ; preds = %if.then
  %3 = load i32, i32* %shift.addr, align 4, !dbg !2823, !tbaa !1164
  %cmp1 = icmp ule i32 %3, 62, !dbg !2823
  %4 = call addrspace(1) i1 @llvm.chess_manifest(i1 %cmp1), !dbg !2823
  br i1 %4, label %if.end, label %if.then2, !dbg !2826

if.then2:                                         ; preds = %do.body
  call addrspace(1) void @llvm.chess_error(metadata !2827), !dbg !2823
  br label %if.end, !dbg !2823

if.end:                                           ; preds = %if.then2, %do.body
  br label %do.cond, !dbg !2826

do.cond:                                          ; preds = %if.end
  br label %do.end, !dbg !2826

do.end:                                           ; preds = %do.cond
  br label %if.end3, !dbg !2821

if.end3:                                          ; preds = %do.end, %entry
  %5 = load i32, i32* %shift.addr, align 4, !dbg !2820, !tbaa !1164
  %cmp4 = icmp ule i32 %5, 62, !dbg !2820
  call addrspace(1) void @llvm.assume(i1 %cmp4), !dbg !2820
  %6 = load %"class.aie::detail::vector.3"*, %"class.aie::detail::vector.3"** %v.addr, align 4, !dbg !2828, !tbaa !1217
  %7 = load i32, i32* %shift.addr, align 4, !dbg !2829, !tbaa !1164
  %call = call addrspace(1) %"class.aie::detail::vector.3" @_ZN3aie6detail10shift_bitsIiLj32ELj8EE3runERKNS0_6vectorIiLj8EEEjj(%"class.aie::detail::vector.3"* nonnull align 32 dereferenceable(32) %6, i32 0, i32 %7) #26, !dbg !2830
  %8 = getelementptr inbounds %"class.aie::detail::vector.3", %"class.aie::detail::vector.3"* %retval, i32 0, i32 0, !dbg !2830
  %9 = extractvalue %"class.aie::detail::vector.3" %call, 0, !dbg !2830
  store %struct.v8int32 %9, %struct.v8int32* %8, align 32, !dbg !2830
  %10 = bitcast i32* %Elems to i8*, !dbg !2831
  call addrspace(1) void @llvm.lifetime.end.p0i8(i64 4, i8* %10) #25, !dbg !2831
  %11 = load %"class.aie::detail::vector.3", %"class.aie::detail::vector.3"* %retval, align 32, !dbg !2831
  ret %"class.aie::detail::vector.3" %11, !dbg !2831
}

; Function Attrs: alwaysinline nounwind mustprogress
define linkonce_odr dso_local %"class.aie::detail::vector.3" @_ZN3aie3subINS_6detail6vectorIiLj8EEEiEEN22aie_dm_resource_removeIT_E4typeERKS5_T0_(%"class.aie::detail::vector.3"* nonnull align 32 dereferenceable(32) %v, i32 %a) addrspace(1) #9 comdat !dbg !2832 {
entry:
  %retval = alloca %"class.aie::detail::vector.3", align 32
  %v.addr = alloca %"class.aie::detail::vector.3"*, align 4
  %a.addr = alloca i32, align 4
  %Elems = alloca i32, align 4
  %cleanup.dest.slot = alloca i32, align 4
  store %"class.aie::detail::vector.3"* %v, %"class.aie::detail::vector.3"** %v.addr, align 4, !tbaa !1217
  call addrspace(1) void @llvm.dbg.declare(metadata %"class.aie::detail::vector.3"** %v.addr, metadata !2836, metadata !DIExpression()), !dbg !2840
  store i32 %a, i32* %a.addr, align 4, !tbaa !1164
  call addrspace(1) void @llvm.dbg.declare(metadata i32* %a.addr, metadata !2837, metadata !DIExpression()), !dbg !2841
  store i32 undef, i32* %Elems, align 4, !dbg !2842
  %0 = bitcast i32* %Elems to i8*, !dbg !2842
  call addrspace(1) void @llvm.lifetime.start.p0i8(i64 4, i8* %0) #25, !dbg !2842
  call addrspace(1) void @llvm.dbg.declare(metadata i32* %Elems, metadata !2838, metadata !DIExpression()), !dbg !2843
  store i32 8, i32* %Elems, align 4, !dbg !2843, !tbaa !1164
  %1 = load i32, i32* %a.addr, align 4, !dbg !2844, !tbaa !1164
  %cmp = icmp eq i32 %1, 0, !dbg !2844
  %2 = call addrspace(1) i1 @llvm.chess_manifest(i1 %cmp), !dbg !2844
  br i1 %2, label %if.then, label %if.end, !dbg !2850

if.then:                                          ; preds = %entry
  %3 = load %"class.aie::detail::vector.3"*, %"class.aie::detail::vector.3"** %v.addr, align 4, !dbg !2851, !tbaa !1217
  %4 = load %"class.aie::detail::vector.3", %"class.aie::detail::vector.3"* %3, align 32, !dbg !2851, !tbaa !2189
  store %"class.aie::detail::vector.3" %4, %"class.aie::detail::vector.3"* %retval, align 32, !dbg !2851, !tbaa !2189
  store i32 1, i32* %cleanup.dest.slot, align 4
  br label %cleanup, !dbg !2852

if.end:                                           ; preds = %entry
  %5 = load %"class.aie::detail::vector.3"*, %"class.aie::detail::vector.3"** %v.addr, align 4, !dbg !2853, !tbaa !1217
  %call = call addrspace(1) %"class.aie::detail::vector.3" @_ZN3aie6detail12add_sub_bitsILj32EiLj8ELNS0_15AddSubOperationE1EE3runERKNS0_6vectorIiLj8EEERKi(%"class.aie::detail::vector.3"* nonnull align 32 dereferenceable(32) %5, i32* nonnull align 4 dereferenceable(4) %a.addr) #26, !dbg !2854
  %6 = getelementptr inbounds %"class.aie::detail::vector.3", %"class.aie::detail::vector.3"* %retval, i32 0, i32 0, !dbg !2854
  %7 = extractvalue %"class.aie::detail::vector.3" %call, 0, !dbg !2854
  store %struct.v8int32 %7, %struct.v8int32* %6, align 32, !dbg !2854
  store i32 1, i32* %cleanup.dest.slot, align 4
  br label %cleanup, !dbg !2855

cleanup:                                          ; preds = %if.end, %if.then
  %8 = bitcast i32* %Elems to i8*, !dbg !2856
  call addrspace(1) void @llvm.lifetime.end.p0i8(i64 4, i8* %8) #25, !dbg !2856
  %9 = load %"class.aie::detail::vector.3", %"class.aie::detail::vector.3"* %retval, align 32, !dbg !2856
  ret %"class.aie::detail::vector.3" %9, !dbg !2856
}

; Function Attrs: alwaysinline nounwind mustprogress
define linkonce_odr dso_local %"class.aie::detail::vector" @_ZN3aie8to_floatIiLj8EEEDaRKNS_6detail6vectorIT_XT0_EEEi(%"class.aie::detail::vector.3"* nonnull align 32 dereferenceable(32) %v, i32 %shift) addrspace(1) #9 comdat !dbg !2857 {
entry:
  %retval = alloca %"class.aie::detail::vector", align 32
  %v.addr = alloca %"class.aie::detail::vector.3"*, align 4
  %shift.addr = alloca i32, align 4
  store %"class.aie::detail::vector.3"* %v, %"class.aie::detail::vector.3"** %v.addr, align 4, !tbaa !1217
  call addrspace(1) void @llvm.dbg.declare(metadata %"class.aie::detail::vector.3"** %v.addr, metadata !2863, metadata !DIExpression()), !dbg !2865
  store i32 %shift, i32* %shift.addr, align 4, !tbaa !1164
  call addrspace(1) void @llvm.dbg.declare(metadata i32* %shift.addr, metadata !2864, metadata !DIExpression()), !dbg !2866
  %0 = load %"class.aie::detail::vector.3"*, %"class.aie::detail::vector.3"** %v.addr, align 4, !dbg !2867, !tbaa !1217
  %1 = load i32, i32* %shift.addr, align 4, !dbg !2870, !tbaa !1164
  %call = call addrspace(1) %"class.aie::detail::vector" @_ZN3aie6detail22elementary_vector_bitsILNS0_12ElementaryOpE7ELj32EfiLj8EE3runERKNS0_6vectorIiLj8EEEi(%"class.aie::detail::vector.3"* nonnull align 32 dereferenceable(32) %0, i32 %1) #26, !dbg !2871
  %2 = getelementptr inbounds %"class.aie::detail::vector", %"class.aie::detail::vector"* %retval, i32 0, i32 0, !dbg !2871
  %3 = extractvalue %"class.aie::detail::vector" %call, 0, !dbg !2871
  store %struct.v8float %3, %struct.v8float* %2, align 32, !dbg !2871
  %4 = load %"class.aie::detail::vector", %"class.aie::detail::vector"* %retval, align 32, !dbg !2872
  ret %"class.aie::detail::vector" %4, !dbg !2872
}

; Function Attrs: alwaysinline nounwind mustprogress
define linkonce_odr dso_local %"class.aie::detail::vector.3" @_ZN3aie7bit_andIiNS_6detail6vectorIiLj8EEEEEN22aie_dm_resource_removeIT0_E4typeET_RKS5_(i32 %a, %"class.aie::detail::vector.3"* nonnull align 32 dereferenceable(32) %v) addrspace(1) #9 comdat !dbg !569 {
entry:
  %retval = alloca %"class.aie::detail::vector.3", align 32
  %a.addr = alloca i32, align 4
  %v.addr = alloca %"class.aie::detail::vector.3"*, align 4
  %Elems = alloca i32, align 4
  %cleanup.dest.slot = alloca i32, align 4
  store i32 %a, i32* %a.addr, align 4, !tbaa !1164
  call addrspace(1) void @llvm.dbg.declare(metadata i32* %a.addr, metadata !783, metadata !DIExpression()), !dbg !2873
  store %"class.aie::detail::vector.3"* %v, %"class.aie::detail::vector.3"** %v.addr, align 4, !tbaa !1217
  call addrspace(1) void @llvm.dbg.declare(metadata %"class.aie::detail::vector.3"** %v.addr, metadata !784, metadata !DIExpression()), !dbg !2874
  store i32 undef, i32* %Elems, align 4, !dbg !2875
  %0 = bitcast i32* %Elems to i8*, !dbg !2875
  call addrspace(1) void @llvm.lifetime.start.p0i8(i64 4, i8* %0) #25, !dbg !2875
  call addrspace(1) void @llvm.dbg.declare(metadata i32* %Elems, metadata !785, metadata !DIExpression()), !dbg !2876
  store i32 8, i32* %Elems, align 4, !dbg !2876, !tbaa !1164
  %1 = load i32, i32* %a.addr, align 4, !dbg !2877, !tbaa !1164
  %cmp = icmp eq i32 %1, -1, !dbg !2877
  %2 = call addrspace(1) i1 @llvm.chess_manifest(i1 %cmp), !dbg !2877
  br i1 %2, label %if.then, label %if.end, !dbg !2881

if.then:                                          ; preds = %entry
  %3 = load %"class.aie::detail::vector.3"*, %"class.aie::detail::vector.3"** %v.addr, align 4, !dbg !2882, !tbaa !1217
  %4 = load %"class.aie::detail::vector.3", %"class.aie::detail::vector.3"* %3, align 32, !dbg !2882, !tbaa !2189
  store %"class.aie::detail::vector.3" %4, %"class.aie::detail::vector.3"* %retval, align 32, !dbg !2882, !tbaa !2189
  store i32 1, i32* %cleanup.dest.slot, align 4
  br label %cleanup, !dbg !2883

if.end:                                           ; preds = %entry
  %5 = load %"class.aie::detail::vector.3"*, %"class.aie::detail::vector.3"** %v.addr, align 4, !dbg !2884, !tbaa !1217
  %call = call addrspace(1) %"class.aie::detail::vector.3" @_ZN3aie6detail8bit_bitsILj32EiLj8ELNS0_5BitOpE0EE3runERKiRKNS0_6vectorIiLj8EEE(i32* nonnull align 4 dereferenceable(4) %a.addr, %"class.aie::detail::vector.3"* nonnull align 32 dereferenceable(32) %5) #26, !dbg !2885
  %6 = getelementptr inbounds %"class.aie::detail::vector.3", %"class.aie::detail::vector.3"* %retval, i32 0, i32 0, !dbg !2885
  %7 = extractvalue %"class.aie::detail::vector.3" %call, 0, !dbg !2885
  store %struct.v8int32 %7, %struct.v8int32* %6, align 32, !dbg !2885
  store i32 1, i32* %cleanup.dest.slot, align 4
  br label %cleanup, !dbg !2886

cleanup:                                          ; preds = %if.end, %if.then
  %8 = bitcast i32* %Elems to i8*, !dbg !2887
  call addrspace(1) void @llvm.lifetime.end.p0i8(i64 4, i8* %8) #25, !dbg !2887
  %9 = load %"class.aie::detail::vector.3", %"class.aie::detail::vector.3"* %retval, align 32, !dbg !2887
  ret %"class.aie::detail::vector.3" %9, !dbg !2887
}

; Function Attrs: alwaysinline nounwind mustprogress
define linkonce_odr dso_local %"class.aie::detail::vector.3" @_ZN3aie6bit_orIiNS_6detail6vectorIiLj8EEEEEN22aie_dm_resource_removeIT0_E4typeET_RKS5_(i32 %a, %"class.aie::detail::vector.3"* nonnull align 32 dereferenceable(32) %v) addrspace(1) #9 comdat !dbg !2888 {
entry:
  %retval = alloca %"class.aie::detail::vector.3", align 32
  %a.addr = alloca i32, align 4
  %v.addr = alloca %"class.aie::detail::vector.3"*, align 4
  %Elems = alloca i32, align 4
  %cleanup.dest.slot = alloca i32, align 4
  store i32 %a, i32* %a.addr, align 4, !tbaa !1164
  call addrspace(1) void @llvm.dbg.declare(metadata i32* %a.addr, metadata !2890, metadata !DIExpression()), !dbg !2893
  store %"class.aie::detail::vector.3"* %v, %"class.aie::detail::vector.3"** %v.addr, align 4, !tbaa !1217
  call addrspace(1) void @llvm.dbg.declare(metadata %"class.aie::detail::vector.3"** %v.addr, metadata !2891, metadata !DIExpression()), !dbg !2894
  store i32 undef, i32* %Elems, align 4, !dbg !2895
  %0 = bitcast i32* %Elems to i8*, !dbg !2895
  call addrspace(1) void @llvm.lifetime.start.p0i8(i64 4, i8* %0) #25, !dbg !2895
  call addrspace(1) void @llvm.dbg.declare(metadata i32* %Elems, metadata !2892, metadata !DIExpression()), !dbg !2896
  store i32 8, i32* %Elems, align 4, !dbg !2896, !tbaa !1164
  %1 = load i32, i32* %a.addr, align 4, !dbg !2897, !tbaa !1164
  %cmp = icmp eq i32 %1, 0, !dbg !2897
  %2 = call addrspace(1) i1 @llvm.chess_manifest(i1 %cmp), !dbg !2897
  br i1 %2, label %if.then, label %if.end, !dbg !2901

if.then:                                          ; preds = %entry
  %3 = load %"class.aie::detail::vector.3"*, %"class.aie::detail::vector.3"** %v.addr, align 4, !dbg !2902, !tbaa !1217
  %4 = load %"class.aie::detail::vector.3", %"class.aie::detail::vector.3"* %3, align 32, !dbg !2902, !tbaa !2189
  store %"class.aie::detail::vector.3" %4, %"class.aie::detail::vector.3"* %retval, align 32, !dbg !2902, !tbaa !2189
  store i32 1, i32* %cleanup.dest.slot, align 4
  br label %cleanup, !dbg !2903

if.end:                                           ; preds = %entry
  %5 = load %"class.aie::detail::vector.3"*, %"class.aie::detail::vector.3"** %v.addr, align 4, !dbg !2904, !tbaa !1217
  %call = call addrspace(1) %"class.aie::detail::vector.3" @_ZN3aie6detail8bit_bitsILj32EiLj8ELNS0_5BitOpE2EE3runERKiRKNS0_6vectorIiLj8EEE(i32* nonnull align 4 dereferenceable(4) %a.addr, %"class.aie::detail::vector.3"* nonnull align 32 dereferenceable(32) %5) #26, !dbg !2905
  %6 = getelementptr inbounds %"class.aie::detail::vector.3", %"class.aie::detail::vector.3"* %retval, i32 0, i32 0, !dbg !2905
